
main.elf:     file format elf32-littleriscv


Disassembly of section .text:

00000000 <_isr_handler>:
       0:	0080006f          	j	8 <_isr_routine>
       4:	1440006f          	j	148 <_start>

00000008 <_isr_routine>:
       8:	f8010113          	addi	sp,sp,-128
       c:	00112023          	sw	ra,0(sp)
      10:	00312423          	sw	gp,8(sp)
      14:	00412623          	sw	tp,12(sp)
      18:	00512823          	sw	t0,16(sp)
      1c:	00612a23          	sw	t1,20(sp)
      20:	00712c23          	sw	t2,24(sp)
      24:	00812e23          	sw	s0,28(sp)
      28:	02912023          	sw	s1,32(sp)
      2c:	02a12223          	sw	a0,36(sp)
      30:	02b12423          	sw	a1,40(sp)
      34:	02c12623          	sw	a2,44(sp)
      38:	02d12823          	sw	a3,48(sp)
      3c:	02e12a23          	sw	a4,52(sp)
      40:	02f12c23          	sw	a5,56(sp)
      44:	03012e23          	sw	a6,60(sp)
      48:	05112023          	sw	a7,64(sp)
      4c:	05212223          	sw	s2,68(sp)
      50:	05312423          	sw	s3,72(sp)
      54:	05412623          	sw	s4,76(sp)
      58:	05512823          	sw	s5,80(sp)
      5c:	05612a23          	sw	s6,84(sp)
      60:	05712c23          	sw	s7,88(sp)
      64:	05812e23          	sw	s8,92(sp)
      68:	07912023          	sw	s9,96(sp)
      6c:	07a12223          	sw	s10,100(sp)
      70:	07b12423          	sw	s11,104(sp)
      74:	07c12623          	sw	t3,108(sp)
      78:	07d12823          	sw	t4,112(sp)
      7c:	07e12a23          	sw	t5,116(sp)
      80:	07f12c23          	sw	t6,120(sp)
      84:	342022f3          	csrr	t0,mcause
      88:	80000337          	lui	t1,0x80000
      8c:	02536463          	bltu	t1,t0,b4 <external_irq>
      90:	00028833          	add	a6,t0,zero
      94:	00b00313          	li	t1,11
      98:	00628463          	beq	t0,t1,a0 <skip_init_args>
      9c:	34102573          	csrr	a0,mepc

000000a0 <skip_init_args>:
      a0:	404030ef          	jal	34a4 <handle_exception>
      a4:	341022f3          	csrr	t0,mepc
      a8:	00428293          	addi	t0,t0,4
      ac:	34129073          	csrw	mepc,t0
      b0:	0180006f          	j	c8 <restore>

000000b4 <external_irq>:
      b4:	800002b7          	lui	t0,0x80000
      b8:	fff28293          	addi	t0,t0,-1 # 7fffffff <_stack_end+0x7fefacab>
      bc:	34202373          	csrr	t1,mcause
      c0:	0062f533          	and	a0,t0,t1
      c4:	730020ef          	jal	27f4 <handle_interrupt>

000000c8 <restore>:
      c8:	00012083          	lw	ra,0(sp)
      cc:	00812183          	lw	gp,8(sp)
      d0:	00c12203          	lw	tp,12(sp)
      d4:	01012283          	lw	t0,16(sp)
      d8:	01412303          	lw	t1,20(sp)
      dc:	01812383          	lw	t2,24(sp)
      e0:	01c12403          	lw	s0,28(sp)
      e4:	02012483          	lw	s1,32(sp)
      e8:	02412503          	lw	a0,36(sp)
      ec:	02812583          	lw	a1,40(sp)
      f0:	02c12603          	lw	a2,44(sp)
      f4:	03012683          	lw	a3,48(sp)
      f8:	03412703          	lw	a4,52(sp)
      fc:	03812783          	lw	a5,56(sp)
     100:	03c12803          	lw	a6,60(sp)
     104:	04012883          	lw	a7,64(sp)
     108:	04412903          	lw	s2,68(sp)
     10c:	04812983          	lw	s3,72(sp)
     110:	04c12a03          	lw	s4,76(sp)
     114:	05012a83          	lw	s5,80(sp)
     118:	05412b03          	lw	s6,84(sp)
     11c:	05812b83          	lw	s7,88(sp)
     120:	05c12c03          	lw	s8,92(sp)
     124:	06012c83          	lw	s9,96(sp)
     128:	06412d03          	lw	s10,100(sp)
     12c:	06812d83          	lw	s11,104(sp)
     130:	06c12e03          	lw	t3,108(sp)
     134:	07012e83          	lw	t4,112(sp)
     138:	07412f03          	lw	t5,116(sp)
     13c:	07812f83          	lw	t6,120(sp)
     140:	08010113          	addi	sp,sp,128
     144:	30200073          	mret

00000148 <_start>:
     148:	00105117          	auipc	sp,0x105
     14c:	20c10113          	addi	sp,sp,524 # 105354 <_stack_end>
     150:	00004197          	auipc	gp,0x4
     154:	dc818193          	addi	gp,gp,-568 # 3f18 <__global_pointer>
     158:	00003517          	auipc	a0,0x3
     15c:	46050513          	addi	a0,a0,1120 # 35b8 <welcome_msg>
     160:	00400893          	li	a7,4
     164:	00000073          	ecall
     168:	1e8000ef          	jal	350 <main>

0000016c <loop>:
     16c:	0000006f          	j	16c <loop>

00000170 <enable_interrupt>:
     170:	3001e073          	csrsi	mstatus,3
     174:	00008067          	ret

00000178 <clear_counters>:
     178:	ff010113          	addi	sp,sp,-16
     17c:	00112623          	sw	ra,12(sp)
     180:	00004537          	lui	a0,0x4
     184:	bd050513          	addi	a0,a0,-1072 # 3bd0 <timeoutcount+0x48c>
     188:	1cc030ef          	jal	3354 <print>
     18c:	b0001073          	csrw	mcycle,zero
     190:	b0201073          	csrw	minstret,zero
     194:	b0301073          	csrw	mhpmcounter3,zero
     198:	b0401073          	csrw	mhpmcounter4,zero
     19c:	b0501073          	csrw	mhpmcounter5,zero
     1a0:	b0601073          	csrw	mhpmcounter6,zero
     1a4:	b0701073          	csrw	mhpmcounter7,zero
     1a8:	b0801073          	csrw	mhpmcounter8,zero
     1ac:	b0901073          	csrw	mhpmcounter9,zero
     1b0:	00004537          	lui	a0,0x4
     1b4:	bf450513          	addi	a0,a0,-1036 # 3bf4 <timeoutcount+0x4b0>
     1b8:	19c030ef          	jal	3354 <print>
     1bc:	00c12083          	lw	ra,12(sp)
     1c0:	01010113          	addi	sp,sp,16
     1c4:	00008067          	ret

000001c8 <read_counters>:
     1c8:	ff010113          	addi	sp,sp,-16
     1cc:	00112623          	sw	ra,12(sp)
     1d0:	00812423          	sw	s0,8(sp)
     1d4:	00050413          	mv	s0,a0
     1d8:	b00027f3          	csrr	a5,mcycle
     1dc:	00f52023          	sw	a5,0(a0)
     1e0:	00004537          	lui	a0,0x4
     1e4:	c1450513          	addi	a0,a0,-1004 # 3c14 <timeoutcount+0x4d0>
     1e8:	16c030ef          	jal	3354 <print>
     1ec:	00042503          	lw	a0,0(s0)
     1f0:	19c030ef          	jal	338c <print_dec>
     1f4:	00004537          	lui	a0,0x4
     1f8:	c3450513          	addi	a0,a0,-972 # 3c34 <timeoutcount+0x4f0>
     1fc:	158030ef          	jal	3354 <print>
     200:	b02027f3          	csrr	a5,minstret
     204:	00f42023          	sw	a5,0(s0)
     208:	00004537          	lui	a0,0x4
     20c:	c4450513          	addi	a0,a0,-956 # 3c44 <timeoutcount+0x500>
     210:	144030ef          	jal	3354 <print>
     214:	00042503          	lw	a0,0(s0)
     218:	174030ef          	jal	338c <print_dec>
     21c:	00004537          	lui	a0,0x4
     220:	c7050513          	addi	a0,a0,-912 # 3c70 <timeoutcount+0x52c>
     224:	130030ef          	jal	3354 <print>
     228:	b03027f3          	csrr	a5,mhpmcounter3
     22c:	00f42023          	sw	a5,0(s0)
     230:	00004537          	lui	a0,0x4
     234:	c8050513          	addi	a0,a0,-896 # 3c80 <timeoutcount+0x53c>
     238:	11c030ef          	jal	3354 <print>
     23c:	00042503          	lw	a0,0(s0)
     240:	14c030ef          	jal	338c <print_dec>
     244:	00004537          	lui	a0,0x4
     248:	cac50513          	addi	a0,a0,-852 # 3cac <timeoutcount+0x568>
     24c:	108030ef          	jal	3354 <print>
     250:	b04027f3          	csrr	a5,mhpmcounter4
     254:	00f42023          	sw	a5,0(s0)
     258:	00004537          	lui	a0,0x4
     25c:	cc450513          	addi	a0,a0,-828 # 3cc4 <timeoutcount+0x580>
     260:	0f4030ef          	jal	3354 <print>
     264:	00042503          	lw	a0,0(s0)
     268:	124030ef          	jal	338c <print_dec>
     26c:	00004537          	lui	a0,0x4
     270:	cec50513          	addi	a0,a0,-788 # 3cec <timeoutcount+0x5a8>
     274:	0e0030ef          	jal	3354 <print>
     278:	b05027f3          	csrr	a5,mhpmcounter5
     27c:	00f42023          	sw	a5,0(s0)
     280:	00004537          	lui	a0,0x4
     284:	d0050513          	addi	a0,a0,-768 # 3d00 <timeoutcount+0x5bc>
     288:	0cc030ef          	jal	3354 <print>
     28c:	00042503          	lw	a0,0(s0)
     290:	0fc030ef          	jal	338c <print_dec>
     294:	00004537          	lui	a0,0x4
     298:	d2850513          	addi	a0,a0,-728 # 3d28 <timeoutcount+0x5e4>
     29c:	0b8030ef          	jal	3354 <print>
     2a0:	b06027f3          	csrr	a5,mhpmcounter6
     2a4:	00f42023          	sw	a5,0(s0)
     2a8:	00004537          	lui	a0,0x4
     2ac:	d3c50513          	addi	a0,a0,-708 # 3d3c <timeoutcount+0x5f8>
     2b0:	0a4030ef          	jal	3354 <print>
     2b4:	00042503          	lw	a0,0(s0)
     2b8:	0d4030ef          	jal	338c <print_dec>
     2bc:	00004537          	lui	a0,0x4
     2c0:	d7c50513          	addi	a0,a0,-644 # 3d7c <timeoutcount+0x638>
     2c4:	090030ef          	jal	3354 <print>
     2c8:	b07027f3          	csrr	a5,mhpmcounter7
     2cc:	00f42023          	sw	a5,0(s0)
     2d0:	00004537          	lui	a0,0x4
     2d4:	d9050513          	addi	a0,a0,-624 # 3d90 <timeoutcount+0x64c>
     2d8:	07c030ef          	jal	3354 <print>
     2dc:	00042503          	lw	a0,0(s0)
     2e0:	0ac030ef          	jal	338c <print_dec>
     2e4:	00004537          	lui	a0,0x4
     2e8:	dd050513          	addi	a0,a0,-560 # 3dd0 <timeoutcount+0x68c>
     2ec:	068030ef          	jal	3354 <print>
     2f0:	b08027f3          	csrr	a5,mhpmcounter8
     2f4:	00f42023          	sw	a5,0(s0)
     2f8:	00004537          	lui	a0,0x4
     2fc:	de450513          	addi	a0,a0,-540 # 3de4 <timeoutcount+0x6a0>
     300:	054030ef          	jal	3354 <print>
     304:	00042503          	lw	a0,0(s0)
     308:	084030ef          	jal	338c <print_dec>
     30c:	00004537          	lui	a0,0x4
     310:	e1850513          	addi	a0,a0,-488 # 3e18 <timeoutcount+0x6d4>
     314:	040030ef          	jal	3354 <print>
     318:	b09027f3          	csrr	a5,mhpmcounter9
     31c:	00f42023          	sw	a5,0(s0)
     320:	00004537          	lui	a0,0x4
     324:	e3050513          	addi	a0,a0,-464 # 3e30 <timeoutcount+0x6ec>
     328:	02c030ef          	jal	3354 <print>
     32c:	00042503          	lw	a0,0(s0)
     330:	05c030ef          	jal	338c <print_dec>
     334:	00004537          	lui	a0,0x4
     338:	e7050513          	addi	a0,a0,-400 # 3e70 <timeoutcount+0x72c>
     33c:	018030ef          	jal	3354 <print>
     340:	00c12083          	lw	ra,12(sp)
     344:	00812403          	lw	s0,8(sp)
     348:	01010113          	addi	sp,sp,16
     34c:	00008067          	ret

00000350 <main>:
     350:	fe010113          	addi	sp,sp,-32
     354:	00112e23          	sw	ra,28(sp)
     358:	e21ff0ef          	jal	178 <clear_counters>
     35c:	724010ef          	jal	1a80 <start_game>
     360:	00c10513          	addi	a0,sp,12
     364:	e65ff0ef          	jal	1c8 <read_counters>
     368:	00000513          	li	a0,0
     36c:	01c12083          	lw	ra,28(sp)
     370:	02010113          	addi	sp,sp,32
     374:	00008067          	ret

00000378 <create_player>:
     378:	00052823          	sw	zero,16(a0)
     37c:	00052a23          	sw	zero,20(a0)
     380:	00052c23          	sw	zero,24(a0)
     384:	00052e23          	sw	zero,28(a0)
     388:	02052023          	sw	zero,32(a0)
     38c:	02052223          	sw	zero,36(a0)
     390:	00052023          	sw	zero,0(a0)
     394:	00300713          	li	a4,3
     398:	00e52223          	sw	a4,4(a0)
     39c:	06300713          	li	a4,99
     3a0:	00e52423          	sw	a4,8(a0)
     3a4:	00e52623          	sw	a4,12(a0)
     3a8:	02e52423          	sw	a4,40(a0)
     3ac:	00008067          	ret

000003b0 <int_to_str>:
     3b0:	08050463          	beqz	a0,438 <int_to_str+0x88>
     3b4:	ff010113          	addi	sp,sp,-16
     3b8:	00000893          	li	a7,0
     3bc:	08054663          	bltz	a0,448 <int_to_str+0x98>
     3c0:	00000793          	li	a5,0
     3c4:	00a00693          	li	a3,10
     3c8:	00078813          	mv	a6,a5
     3cc:	00178793          	addi	a5,a5,1
     3d0:	00410713          	addi	a4,sp,4
     3d4:	00f70633          	add	a2,a4,a5
     3d8:	02d56733          	rem	a4,a0,a3
     3dc:	03070713          	addi	a4,a4,48
     3e0:	fee60fa3          	sb	a4,-1(a2)
     3e4:	02d54533          	div	a0,a0,a3
     3e8:	fe0510e3          	bnez	a0,3c8 <int_to_str+0x18>
     3ec:	00088c63          	beqz	a7,404 <int_to_str+0x54>
     3f0:	01078793          	addi	a5,a5,16
     3f4:	002787b3          	add	a5,a5,sp
     3f8:	02d00713          	li	a4,45
     3fc:	fee78a23          	sb	a4,-12(a5)
     400:	00280793          	addi	a5,a6,2
     404:	04f05863          	blez	a5,454 <int_to_str+0xa4>
     408:	00410513          	addi	a0,sp,4
     40c:	00f50733          	add	a4,a0,a5
     410:	00058693          	mv	a3,a1
     414:	fff74603          	lbu	a2,-1(a4)
     418:	00c68023          	sb	a2,0(a3)
     41c:	fff70713          	addi	a4,a4,-1
     420:	00168693          	addi	a3,a3,1
     424:	fee518e3          	bne	a0,a4,414 <int_to_str+0x64>
     428:	00f585b3          	add	a1,a1,a5
     42c:	00058023          	sb	zero,0(a1)
     430:	01010113          	addi	sp,sp,16
     434:	00008067          	ret
     438:	03000793          	li	a5,48
     43c:	00f58023          	sb	a5,0(a1)
     440:	000580a3          	sb	zero,1(a1)
     444:	00008067          	ret
     448:	40a00533          	neg	a0,a0
     44c:	00100893          	li	a7,1
     450:	f71ff06f          	j	3c0 <int_to_str+0x10>
     454:	00050793          	mv	a5,a0
     458:	fd1ff06f          	j	428 <int_to_str+0x78>

0000045c <append_str>:
     45c:	00054783          	lbu	a5,0(a0)
     460:	00078863          	beqz	a5,470 <append_str+0x14>
     464:	00150513          	addi	a0,a0,1
     468:	00054783          	lbu	a5,0(a0)
     46c:	fe079ce3          	bnez	a5,464 <append_str+0x8>
     470:	0005c783          	lbu	a5,0(a1)
     474:	00078c63          	beqz	a5,48c <append_str+0x30>
     478:	00f50023          	sb	a5,0(a0)
     47c:	00150513          	addi	a0,a0,1
     480:	00158593          	addi	a1,a1,1
     484:	0005c783          	lbu	a5,0(a1)
     488:	fe0798e3          	bnez	a5,478 <append_str+0x1c>
     48c:	00050023          	sb	zero,0(a0)
     490:	00008067          	ret

00000494 <str_length>:
     494:	00050713          	mv	a4,a0
     498:	00054783          	lbu	a5,0(a0)
     49c:	00078e63          	beqz	a5,4b8 <str_length+0x24>
     4a0:	00000513          	li	a0,0
     4a4:	00150513          	addi	a0,a0,1
     4a8:	00a707b3          	add	a5,a4,a0
     4ac:	0007c783          	lbu	a5,0(a5)
     4b0:	fe079ae3          	bnez	a5,4a4 <str_length+0x10>
     4b4:	00008067          	ret
     4b8:	00000513          	li	a0,0
     4bc:	00008067          	ret

000004c0 <drop_stats>:
     4c0:	ff010113          	addi	sp,sp,-16
     4c4:	00112623          	sw	ra,12(sp)
     4c8:	00812423          	sw	s0,8(sp)
     4cc:	00050413          	mv	s0,a0
     4d0:	0245a783          	lw	a5,36(a1)
     4d4:	00100713          	li	a4,1
     4d8:	00e78a63          	beq	a5,a4,4ec <drop_stats+0x2c>
     4dc:	00079e63          	bnez	a5,4f8 <drop_stats+0x38>
     4e0:	06300793          	li	a5,99
     4e4:	00f52623          	sw	a5,12(a0)
     4e8:	0100006f          	j	4f8 <drop_stats+0x38>
     4ec:	00c52783          	lw	a5,12(a0)
     4f0:	fff78793          	addi	a5,a5,-1
     4f4:	00f52623          	sw	a5,12(a0)
     4f8:	02842783          	lw	a5,40(s0)
     4fc:	fff78793          	addi	a5,a5,-1
     500:	02f42423          	sw	a5,40(s0)
     504:	00842783          	lw	a5,8(s0)
     508:	fff78793          	addi	a5,a5,-1
     50c:	00f42423          	sw	a5,8(s0)
     510:	00c42783          	lw	a5,12(s0)
     514:	02f05263          	blez	a5,538 <drop_stats+0x78>
     518:	02842783          	lw	a5,40(s0)
     51c:	02f05a63          	blez	a5,550 <drop_stats+0x90>
     520:	00842783          	lw	a5,8(s0)
     524:	04f05263          	blez	a5,568 <drop_stats+0xa8>
     528:	00c12083          	lw	ra,12(sp)
     52c:	00812403          	lw	s0,8(sp)
     530:	01010113          	addi	sp,sp,16
     534:	00008067          	ret
     538:	00004537          	lui	a0,0x4
     53c:	e8050513          	addi	a0,a0,-384 # 3e80 <timeoutcount+0x73c>
     540:	615020ef          	jal	3354 <print>
     544:	000037b7          	lui	a5,0x3
     548:	7007ac23          	sw	zero,1816(a5) # 3718 <game_running>
     54c:	fcdff06f          	j	518 <drop_stats+0x58>
     550:	00004537          	lui	a0,0x4
     554:	ea850513          	addi	a0,a0,-344 # 3ea8 <timeoutcount+0x764>
     558:	5fd020ef          	jal	3354 <print>
     55c:	000037b7          	lui	a5,0x3
     560:	7007ac23          	sw	zero,1816(a5) # 3718 <game_running>
     564:	fbdff06f          	j	520 <drop_stats+0x60>
     568:	00004537          	lui	a0,0x4
     56c:	ed050513          	addi	a0,a0,-304 # 3ed0 <timeoutcount+0x78c>
     570:	5e5020ef          	jal	3354 <print>
     574:	000037b7          	lui	a5,0x3
     578:	7007ac23          	sw	zero,1816(a5) # 3718 <game_running>
     57c:	fadff06f          	j	528 <drop_stats+0x68>

00000580 <print_hold>:
     580:	ff010113          	addi	sp,sp,-16
     584:	00112623          	sw	ra,12(sp)
     588:	5cd020ef          	jal	3354 <print>
     58c:	00003737          	lui	a4,0x3
     590:	73c72783          	lw	a5,1852(a4) # 373c <timer_event>
     594:	fe078ee3          	beqz	a5,590 <print_hold+0x10>
     598:	000037b7          	lui	a5,0x3
     59c:	7207ae23          	sw	zero,1852(a5) # 373c <timer_event>
     5a0:	00078713          	mv	a4,a5
     5a4:	73c72783          	lw	a5,1852(a4)
     5a8:	fe078ee3          	beqz	a5,5a4 <print_hold+0x24>
     5ac:	000037b7          	lui	a5,0x3
     5b0:	7207ae23          	sw	zero,1852(a5) # 373c <timer_event>
     5b4:	00c12083          	lw	ra,12(sp)
     5b8:	01010113          	addi	sp,sp,16
     5bc:	00008067          	ret

000005c0 <update_display>:
     5c0:	ff010113          	addi	sp,sp,-16
     5c4:	00112623          	sw	ra,12(sp)
     5c8:	00812423          	sw	s0,8(sp)
     5cc:	00912223          	sw	s1,4(sp)
     5d0:	01212023          	sw	s2,0(sp)
     5d4:	00852403          	lw	s0,8(a0)
     5d8:	00c52903          	lw	s2,12(a0)
     5dc:	02852483          	lw	s1,40(a0)
     5e0:	000037b7          	lui	a5,0x3
     5e4:	7307a783          	lw	a5,1840(a5) # 3730 <current_display>
     5e8:	02078663          	beqz	a5,614 <update_display+0x54>
     5ec:	00100713          	li	a4,1
     5f0:	06e78a63          	beq	a5,a4,664 <update_display+0xa4>
     5f4:	00200713          	li	a4,2
     5f8:	0ae78e63          	beq	a5,a4,6b4 <update_display+0xf4>
     5fc:	00c12083          	lw	ra,12(sp)
     600:	00812403          	lw	s0,8(sp)
     604:	00412483          	lw	s1,4(sp)
     608:	00012903          	lw	s2,0(sp)
     60c:	01010113          	addi	sp,sp,16
     610:	00008067          	ret
     614:	00a00593          	li	a1,10
     618:	00500513          	li	a0,5
     61c:	078020ef          	jal	2694 <set_displays>
     620:	00b00593          	li	a1,11
     624:	00400513          	li	a0,4
     628:	06c020ef          	jal	2694 <set_displays>
     62c:	00b00593          	li	a1,11
     630:	00300513          	li	a0,3
     634:	060020ef          	jal	2694 <set_displays>
     638:	00c00593          	li	a1,12
     63c:	00200513          	li	a0,2
     640:	054020ef          	jal	2694 <set_displays>
     644:	00a00493          	li	s1,10
     648:	029445b3          	div	a1,s0,s1
     64c:	00100513          	li	a0,1
     650:	044020ef          	jal	2694 <set_displays>
     654:	029465b3          	rem	a1,s0,s1
     658:	00000513          	li	a0,0
     65c:	038020ef          	jal	2694 <set_displays>
     660:	f9dff06f          	j	5fc <update_display+0x3c>
     664:	00d00593          	li	a1,13
     668:	00500513          	li	a0,5
     66c:	028020ef          	jal	2694 <set_displays>
     670:	00200593          	li	a1,2
     674:	00400513          	li	a0,4
     678:	01c020ef          	jal	2694 <set_displays>
     67c:	00000593          	li	a1,0
     680:	00300513          	li	a0,3
     684:	010020ef          	jal	2694 <set_displays>
     688:	06400593          	li	a1,100
     68c:	00200513          	li	a0,2
     690:	004020ef          	jal	2694 <set_displays>
     694:	00a00413          	li	s0,10
     698:	0284c5b3          	div	a1,s1,s0
     69c:	00100513          	li	a0,1
     6a0:	7f5010ef          	jal	2694 <set_displays>
     6a4:	0284e5b3          	rem	a1,s1,s0
     6a8:	00000513          	li	a0,0
     6ac:	7e9010ef          	jal	2694 <set_displays>
     6b0:	f4dff06f          	j	5fc <update_display+0x3c>
     6b4:	00000593          	li	a1,0
     6b8:	00500513          	li	a0,5
     6bc:	7d9010ef          	jal	2694 <set_displays>
     6c0:	00200593          	li	a1,2
     6c4:	00400513          	li	a0,4
     6c8:	7cd010ef          	jal	2694 <set_displays>
     6cc:	06400593          	li	a1,100
     6d0:	00300513          	li	a0,3
     6d4:	7c1010ef          	jal	2694 <set_displays>
     6d8:	06400593          	li	a1,100
     6dc:	00200513          	li	a0,2
     6e0:	7b5010ef          	jal	2694 <set_displays>
     6e4:	00a00413          	li	s0,10
     6e8:	028945b3          	div	a1,s2,s0
     6ec:	00100513          	li	a0,1
     6f0:	7a5010ef          	jal	2694 <set_displays>
     6f4:	028965b3          	rem	a1,s2,s0
     6f8:	00000513          	li	a0,0
     6fc:	799010ef          	jal	2694 <set_displays>
     700:	efdff06f          	j	5fc <update_display+0x3c>

00000704 <update_status>:
     704:	fc010113          	addi	sp,sp,-64
     708:	02112e23          	sw	ra,60(sp)
     70c:	6685af03          	lw	t5,1640(a1)
     710:	66c5ae83          	lw	t4,1644(a1)
     714:	6705ae03          	lw	t3,1648(a1)
     718:	6745a303          	lw	t1,1652(a1)
     71c:	6785a883          	lw	a7,1656(a1)
     720:	67c5a803          	lw	a6,1660(a1)
     724:	6805a603          	lw	a2,1664(a1)
     728:	6845a683          	lw	a3,1668(a1)
     72c:	6885a703          	lw	a4,1672(a1)
     730:	68c5a783          	lw	a5,1676(a1)
     734:	01e12423          	sw	t5,8(sp)
     738:	01d12623          	sw	t4,12(sp)
     73c:	01c12823          	sw	t3,16(sp)
     740:	00612a23          	sw	t1,20(sp)
     744:	01112c23          	sw	a7,24(sp)
     748:	01012e23          	sw	a6,28(sp)
     74c:	02c12023          	sw	a2,32(sp)
     750:	02d12223          	sw	a3,36(sp)
     754:	02e12423          	sw	a4,40(sp)
     758:	02f12623          	sw	a5,44(sp)
     75c:	7dc5a703          	lw	a4,2012(a1)
     760:	00900793          	li	a5,9
     764:	06f71663          	bne	a4,a5,7d0 <update_status+0xcc>
     768:	00050793          	mv	a5,a0
     76c:	01850693          	addi	a3,a0,24
     770:	00100513          	li	a0,1
     774:	00600613          	li	a2,6
     778:	00c0006f          	j	784 <update_status+0x80>
     77c:	00478793          	addi	a5,a5,4
     780:	00d78e63          	beq	a5,a3,79c <update_status+0x98>
     784:	0107a703          	lw	a4,16(a5)
     788:	ff670713          	addi	a4,a4,-10
     78c:	fee668e3          	bltu	a2,a4,77c <update_status+0x78>
     790:	00151513          	slli	a0,a0,0x1
     794:	00150513          	addi	a0,a0,1
     798:	fe5ff06f          	j	77c <update_status+0x78>
     79c:	01410793          	addi	a5,sp,20
     7a0:	02810613          	addi	a2,sp,40
     7a4:	00600693          	li	a3,6
     7a8:	00c0006f          	j	7b4 <update_status+0xb0>
     7ac:	00478793          	addi	a5,a5,4
     7b0:	00c78e63          	beq	a5,a2,7cc <update_status+0xc8>
     7b4:	0007a703          	lw	a4,0(a5)
     7b8:	ff670713          	addi	a4,a4,-10
     7bc:	fee6e8e3          	bltu	a3,a4,7ac <update_status+0xa8>
     7c0:	00151513          	slli	a0,a0,0x1
     7c4:	00150513          	addi	a0,a0,1
     7c8:	fe5ff06f          	j	7ac <update_status+0xa8>
     7cc:	7a5010ef          	jal	2770 <set_leds>
     7d0:	03c12083          	lw	ra,60(sp)
     7d4:	04010113          	addi	sp,sp,64
     7d8:	00008067          	ret

000007dc <display_frame>:
     7dc:	ab010113          	addi	sp,sp,-1360
     7e0:	54112623          	sw	ra,1356(sp)
     7e4:	54812423          	sw	s0,1352(sp)
     7e8:	54912223          	sw	s1,1348(sp)
     7ec:	55212023          	sw	s2,1344(sp)
     7f0:	53312e23          	sw	s3,1340(sp)
     7f4:	53412c23          	sw	s4,1336(sp)
     7f8:	53512a23          	sw	s5,1332(sp)
     7fc:	53612823          	sw	s6,1328(sp)
     800:	53712623          	sw	s7,1324(sp)
     804:	53812423          	sw	s8,1320(sp)
     808:	53912223          	sw	s9,1316(sp)
     80c:	53a12023          	sw	s10,1312(sp)
     810:	51b12e23          	sw	s11,1308(sp)
     814:	00050d13          	mv	s10,a0
     818:	00058413          	mv	s0,a1
     81c:	00060c93          	mv	s9,a2
     820:	00052983          	lw	s3,0(a0)
     824:	00452c03          	lw	s8,4(a0)
     828:	0085ad83          	lw	s11,8(a1)
     82c:	00004537          	lui	a0,0x4
     830:	ef850513          	addi	a0,a0,-264 # 3ef8 <timeoutcount+0x7b4>
     834:	321020ef          	jal	3354 <print>
     838:	00004537          	lui	a0,0x4
     83c:	f0050513          	addi	a0,a0,-256 # 3f00 <timeoutcount+0x7bc>
     840:	315020ef          	jal	3354 <print>
     844:	000044b7          	lui	s1,0x4
     848:	f0448513          	addi	a0,s1,-252 # 3f04 <timeoutcount+0x7c0>
     84c:	309020ef          	jal	3354 <print>
     850:	00004537          	lui	a0,0x4
     854:	f3c50513          	addi	a0,a0,-196 # 3f3c <__global_pointer+0x24>
     858:	2fd020ef          	jal	3354 <print>
     85c:	f0448513          	addi	a0,s1,-252
     860:	2f5020ef          	jal	3354 <print>
     864:	40010823          	sb	zero,1040(sp)
     868:	000045b7          	lui	a1,0x4
     86c:	f7458593          	addi	a1,a1,-140 # 3f74 <__global_pointer+0x5c>
     870:	41010513          	addi	a0,sp,1040
     874:	be9ff0ef          	jal	45c <append_str>
     878:	40410593          	addi	a1,sp,1028
     87c:	00098513          	mv	a0,s3
     880:	b31ff0ef          	jal	3b0 <int_to_str>
     884:	40410593          	addi	a1,sp,1028
     888:	41010513          	addi	a0,sp,1040
     88c:	bd1ff0ef          	jal	45c <append_str>
     890:	000045b7          	lui	a1,0x4
     894:	f8458593          	addi	a1,a1,-124 # 3f84 <__global_pointer+0x6c>
     898:	41010513          	addi	a0,sp,1040
     89c:	bc1ff0ef          	jal	45c <append_str>
     8a0:	40410593          	addi	a1,sp,1028
     8a4:	000c0513          	mv	a0,s8
     8a8:	b09ff0ef          	jal	3b0 <int_to_str>
     8ac:	40410593          	addi	a1,sp,1028
     8b0:	41010513          	addi	a0,sp,1040
     8b4:	ba9ff0ef          	jal	45c <append_str>
     8b8:	000045b7          	lui	a1,0x4
     8bc:	f8858593          	addi	a1,a1,-120 # 3f88 <__global_pointer+0x70>
     8c0:	41010513          	addi	a0,sp,1040
     8c4:	b99ff0ef          	jal	45c <append_str>
     8c8:	41010513          	addi	a0,sp,1040
     8cc:	289020ef          	jal	3354 <print>
     8d0:	40010823          	sb	zero,1040(sp)
     8d4:	000045b7          	lui	a1,0x4
     8d8:	fac58593          	addi	a1,a1,-84 # 3fac <__global_pointer+0x94>
     8dc:	41010513          	addi	a0,sp,1040
     8e0:	b7dff0ef          	jal	45c <append_str>
     8e4:	000037b7          	lui	a5,0x3
     8e8:	00042703          	lw	a4,0(s0)
     8ec:	00271713          	slli	a4,a4,0x2
     8f0:	6d478793          	addi	a5,a5,1748 # 36d4 <TILETYPE_NAMES>
     8f4:	00e787b3          	add	a5,a5,a4
     8f8:	0007a583          	lw	a1,0(a5)
     8fc:	41010513          	addi	a0,sp,1040
     900:	b5dff0ef          	jal	45c <append_str>
     904:	000045b7          	lui	a1,0x4
     908:	fbc58593          	addi	a1,a1,-68 # 3fbc <__global_pointer+0xa4>
     90c:	41010513          	addi	a0,sp,1040
     910:	b4dff0ef          	jal	45c <append_str>
     914:	41010513          	addi	a0,sp,1040
     918:	23d020ef          	jal	3354 <print>
     91c:	f0448513          	addi	a0,s1,-252
     920:	235020ef          	jal	3354 <print>
     924:	00004537          	lui	a0,0x4
     928:	fe450513          	addi	a0,a0,-28 # 3fe4 <__global_pointer+0xcc>
     92c:	229020ef          	jal	3354 <print>
     930:	00000b93          	li	s7,0
     934:	00004b37          	lui	s6,0x4
     938:	00003a37          	lui	s4,0x3
     93c:	690a0a13          	addi	s4,s4,1680 # 3690 <TILETYPE_MAP_NAMES>
     940:	00004ab7          	lui	s5,0x4
     944:	0840006f          	j	9c8 <__heap_size+0x1c8>
     948:	028b0593          	addi	a1,s6,40 # 4028 <__global_pointer+0x110>
     94c:	00410513          	addi	a0,sp,4
     950:	b0dff0ef          	jal	45c <append_str>
     954:	0004a783          	lw	a5,0(s1)
     958:	00279793          	slli	a5,a5,0x2
     95c:	00fa07b3          	add	a5,s4,a5
     960:	0007a583          	lw	a1,0(a5)
     964:	00410513          	addi	a0,sp,4
     968:	af5ff0ef          	jal	45c <append_str>
     96c:	02ca8593          	addi	a1,s5,44 # 402c <__global_pointer+0x114>
     970:	00410513          	addi	a0,sp,4
     974:	ae9ff0ef          	jal	45c <append_str>
     978:	00140413          	addi	s0,s0,1
     97c:	02848493          	addi	s1,s1,40
     980:	03240063          	beq	s0,s2,9a0 <__heap_size+0x1a0>
     984:	fc8992e3          	bne	s3,s0,948 <__heap_size+0x148>
     988:	fd7c10e3          	bne	s8,s7,948 <__heap_size+0x148>
     98c:	000045b7          	lui	a1,0x4
     990:	02058593          	addi	a1,a1,32 # 4020 <__global_pointer+0x108>
     994:	00410513          	addi	a0,sp,4
     998:	ac5ff0ef          	jal	45c <append_str>
     99c:	fddff06f          	j	978 <__heap_size+0x178>
     9a0:	000045b7          	lui	a1,0x4
     9a4:	0a058593          	addi	a1,a1,160 # 40a0 <__global_pointer+0x188>
     9a8:	00410513          	addi	a0,sp,4
     9ac:	ab1ff0ef          	jal	45c <append_str>
     9b0:	00410513          	addi	a0,sp,4
     9b4:	1a1020ef          	jal	3354 <print>
     9b8:	001b8b93          	addi	s7,s7,1
     9bc:	190c8c93          	addi	s9,s9,400
     9c0:	00a00793          	li	a5,10
     9c4:	02fb8463          	beq	s7,a5,9ec <__heap_size+0x1ec>
     9c8:	00010223          	sb	zero,4(sp)
     9cc:	000045b7          	lui	a1,0x4
     9d0:	01c58593          	addi	a1,a1,28 # 401c <__global_pointer+0x104>
     9d4:	00410513          	addi	a0,sp,4
     9d8:	a85ff0ef          	jal	45c <append_str>
     9dc:	000c8493          	mv	s1,s9
     9e0:	00000413          	li	s0,0
     9e4:	00a00913          	li	s2,10
     9e8:	f9dff06f          	j	984 <__heap_size+0x184>
     9ec:	00004537          	lui	a0,0x4
     9f0:	03050513          	addi	a0,a0,48 # 4030 <__global_pointer+0x118>
     9f4:	161020ef          	jal	3354 <print>
     9f8:	00000413          	li	s0,0
     9fc:	000049b7          	lui	s3,0x4
     a00:	00004937          	lui	s2,0x4
     a04:	00004ab7          	lui	s5,0x4
     a08:	00003a37          	lui	s4,0x3
     a0c:	64ca0a13          	addi	s4,s4,1612 # 364c <COLLECTIBLE_NAMES>
     a10:	000044b7          	lui	s1,0x4
     a14:	0300006f          	j	a44 <__heap_size+0x244>
     a18:	074a8593          	addi	a1,s5,116 # 4074 <__global_pointer+0x15c>
     a1c:	41010513          	addi	a0,sp,1040
     a20:	a3dff0ef          	jal	45c <append_str>
     a24:	07c48593          	addi	a1,s1,124 # 407c <__global_pointer+0x164>
     a28:	41010513          	addi	a0,sp,1040
     a2c:	a31ff0ef          	jal	45c <append_str>
     a30:	41010513          	addi	a0,sp,1040
     a34:	121020ef          	jal	3354 <print>
     a38:	004d0d13          	addi	s10,s10,4
     a3c:	00600793          	li	a5,6
     a40:	04f40e63          	beq	s0,a5,a9c <__heap_size+0x29c>
     a44:	40010823          	sb	zero,1040(sp)
     a48:	06898593          	addi	a1,s3,104 # 4068 <__global_pointer+0x150>
     a4c:	41010513          	addi	a0,sp,1040
     a50:	a0dff0ef          	jal	45c <append_str>
     a54:	00140413          	addi	s0,s0,1
     a58:	40410593          	addi	a1,sp,1028
     a5c:	00040513          	mv	a0,s0
     a60:	951ff0ef          	jal	3b0 <int_to_str>
     a64:	40410593          	addi	a1,sp,1028
     a68:	41010513          	addi	a0,sp,1040
     a6c:	9f1ff0ef          	jal	45c <append_str>
     a70:	c3090593          	addi	a1,s2,-976 # 3c30 <timeoutcount+0x4ec>
     a74:	41010513          	addi	a0,sp,1040
     a78:	9e5ff0ef          	jal	45c <append_str>
     a7c:	010d2783          	lw	a5,16(s10)
     a80:	f8078ce3          	beqz	a5,a18 <__heap_size+0x218>
     a84:	00279793          	slli	a5,a5,0x2
     a88:	00fa07b3          	add	a5,s4,a5
     a8c:	0007a583          	lw	a1,0(a5)
     a90:	41010513          	addi	a0,sp,1040
     a94:	9c9ff0ef          	jal	45c <append_str>
     a98:	f8dff06f          	j	a24 <__heap_size+0x224>
     a9c:	00004537          	lui	a0,0x4
     aa0:	0a450513          	addi	a0,a0,164 # 40a4 <__global_pointer+0x18c>
     aa4:	0b1020ef          	jal	3354 <print>
     aa8:	020d8e63          	beqz	s11,ae4 <__heap_size+0x2e4>
     aac:	40010823          	sb	zero,1040(sp)
     ab0:	000045b7          	lui	a1,0x4
     ab4:	01c58593          	addi	a1,a1,28 # 401c <__global_pointer+0x104>
     ab8:	41010513          	addi	a0,sp,1040
     abc:	9a1ff0ef          	jal	45c <append_str>
     ac0:	000d8593          	mv	a1,s11
     ac4:	41010513          	addi	a0,sp,1040
     ac8:	995ff0ef          	jal	45c <append_str>
     acc:	000045b7          	lui	a1,0x4
     ad0:	0a058593          	addi	a1,a1,160 # 40a0 <__global_pointer+0x188>
     ad4:	41010513          	addi	a0,sp,1040
     ad8:	985ff0ef          	jal	45c <append_str>
     adc:	41010513          	addi	a0,sp,1040
     ae0:	075020ef          	jal	3354 <print>
     ae4:	00004537          	lui	a0,0x4
     ae8:	0a450513          	addi	a0,a0,164 # 40a4 <__global_pointer+0x18c>
     aec:	069020ef          	jal	3354 <print>
     af0:	54c12083          	lw	ra,1356(sp)
     af4:	54812403          	lw	s0,1352(sp)
     af8:	54412483          	lw	s1,1348(sp)
     afc:	54012903          	lw	s2,1344(sp)
     b00:	53c12983          	lw	s3,1340(sp)
     b04:	53812a03          	lw	s4,1336(sp)
     b08:	53412a83          	lw	s5,1332(sp)
     b0c:	53012b03          	lw	s6,1328(sp)
     b10:	52c12b83          	lw	s7,1324(sp)
     b14:	52812c03          	lw	s8,1320(sp)
     b18:	52412c83          	lw	s9,1316(sp)
     b1c:	52012d03          	lw	s10,1312(sp)
     b20:	51c12d83          	lw	s11,1308(sp)
     b24:	55010113          	addi	sp,sp,1360
     b28:	00008067          	ret

00000b2c <wait_for_yes_no>:
     b2c:	ff010113          	addi	sp,sp,-16
     b30:	00112623          	sw	ra,12(sp)
     b34:	00004537          	lui	a0,0x4
     b38:	0d850513          	addi	a0,a0,216 # 40d8 <__global_pointer+0x1c0>
     b3c:	019020ef          	jal	3354 <print>
     b40:	345010ef          	jal	2684 <get_sw>
     b44:	00157713          	andi	a4,a0,1
     b48:	00071663          	bnez	a4,b54 <wait_for_yes_no+0x28>
     b4c:	00257793          	andi	a5,a0,2
     b50:	fe0788e3          	beqz	a5,b40 <wait_for_yes_no+0x14>
     b54:	00070513          	mv	a0,a4
     b58:	00c12083          	lw	ra,12(sp)
     b5c:	01010113          	addi	sp,sp,16
     b60:	00008067          	ret

00000b64 <wait_for_exit>:
     b64:	ff010113          	addi	sp,sp,-16
     b68:	00112623          	sw	ra,12(sp)
     b6c:	02050663          	beqz	a0,b98 <wait_for_exit+0x34>
     b70:	a11ff0ef          	jal	580 <print_hold>
     b74:	311010ef          	jal	2684 <get_sw>
     b78:	10057513          	andi	a0,a0,256
     b7c:	fe050ce3          	beqz	a0,b74 <wait_for_exit+0x10>
     b80:	00004537          	lui	a0,0x4
     b84:	11450513          	addi	a0,a0,276 # 4114 <__global_pointer+0x1fc>
     b88:	9f9ff0ef          	jal	580 <print_hold>
     b8c:	00c12083          	lw	ra,12(sp)
     b90:	01010113          	addi	sp,sp,16
     b94:	00008067          	ret
     b98:	00004537          	lui	a0,0x4
     b9c:	0fc50513          	addi	a0,a0,252 # 40fc <__global_pointer+0x1e4>
     ba0:	fd1ff06f          	j	b70 <wait_for_exit+0xc>

00000ba4 <interact_with_tile>:
     ba4:	ec010113          	addi	sp,sp,-320
     ba8:	12112e23          	sw	ra,316(sp)
     bac:	0005a703          	lw	a4,0(a1)
     bb0:	00f00793          	li	a5,15
     bb4:	42e7e8e3          	bltu	a5,a4,17e4 <interact_with_tile+0xc40>
     bb8:	12812c23          	sw	s0,312(sp)
     bbc:	12912a23          	sw	s1,308(sp)
     bc0:	00050493          	mv	s1,a0
     bc4:	00058413          	mv	s0,a1
     bc8:	00271793          	slli	a5,a4,0x2
     bcc:	00003737          	lui	a4,0x3
     bd0:	74870713          	addi	a4,a4,1864 # 3748 <timeoutcount+0x4>
     bd4:	00e787b3          	add	a5,a5,a4
     bd8:	0007a783          	lw	a5,0(a5)
     bdc:	00078067          	jr	a5
     be0:	13212823          	sw	s2,304(sp)
     be4:	00004537          	lui	a0,0x4
     be8:	12050513          	addi	a0,a0,288 # 4120 <__global_pointer+0x208>
     bec:	768020ef          	jal	3354 <print>
     bf0:	00004537          	lui	a0,0x4
     bf4:	13050513          	addi	a0,a0,304 # 4130 <__global_pointer+0x218>
     bf8:	75c020ef          	jal	3354 <print>
     bfc:	00004537          	lui	a0,0x4
     c00:	14c50513          	addi	a0,a0,332 # 414c <__global_pointer+0x234>
     c04:	750020ef          	jal	3354 <print>
     c08:	00004537          	lui	a0,0x4
     c0c:	17c50513          	addi	a0,a0,380 # 417c <__global_pointer+0x264>
     c10:	744020ef          	jal	3354 <print>
     c14:	00004537          	lui	a0,0x4
     c18:	1ac50513          	addi	a0,a0,428 # 41ac <__global_pointer+0x294>
     c1c:	738020ef          	jal	3354 <print>
     c20:	00004537          	lui	a0,0x4
     c24:	1c450513          	addi	a0,a0,452 # 41c4 <__global_pointer+0x2ac>
     c28:	72c020ef          	jal	3354 <print>
     c2c:	259010ef          	jal	2684 <get_sw>
     c30:	10057793          	andi	a5,a0,256
     c34:	06079263          	bnez	a5,c98 <interact_with_tile+0xf4>
     c38:	00157913          	andi	s2,a0,1
     c3c:	06091c63          	bnez	s2,cb4 <interact_with_tile+0x110>
     c40:	00257793          	andi	a5,a0,2
     c44:	0a079863          	bnez	a5,cf4 <interact_with_tile+0x150>
     c48:	00457793          	andi	a5,a0,4
     c4c:	fe0780e3          	beqz	a5,c2c <interact_with_tile+0x88>
     c50:	13312623          	sw	s3,300(sp)
     c54:	13412423          	sw	s4,296(sp)
     c58:	13512223          	sw	s5,292(sp)
     c5c:	13612023          	sw	s6,288(sp)
     c60:	11712e23          	sw	s7,284(sp)
     c64:	11812c23          	sw	s8,280(sp)
     c68:	00004537          	lui	a0,0x4
     c6c:	20050513          	addi	a0,a0,512 # 4200 <__global_pointer+0x2e8>
     c70:	911ff0ef          	jal	580 <print_hold>
     c74:	00c40993          	addi	s3,s0,12
     c78:	00100913          	li	s2,1
     c7c:	00004c37          	lui	s8,0x4
     c80:	00004bb7          	lui	s7,0x4
     c84:	00003ab7          	lui	s5,0x3
     c88:	64ca8a93          	addi	s5,s5,1612 # 364c <COLLECTIBLE_NAMES>
     c8c:	00004b37          	lui	s6,0x4
     c90:	00600a13          	li	s4,6
     c94:	21c0006f          	j	eb0 <interact_with_tile+0x30c>
     c98:	00004537          	lui	a0,0x4
     c9c:	1ec50513          	addi	a0,a0,492 # 41ec <__global_pointer+0x2d4>
     ca0:	8e1ff0ef          	jal	580 <print_hold>
     ca4:	13812403          	lw	s0,312(sp)
     ca8:	13412483          	lw	s1,308(sp)
     cac:	13012903          	lw	s2,304(sp)
     cb0:	5a80006f          	j	1258 <interact_with_tile+0x6b4>
     cb4:	00004537          	lui	a0,0x4
     cb8:	20050513          	addi	a0,a0,512 # 4200 <__global_pointer+0x2e8>
     cbc:	8c5ff0ef          	jal	580 <print_hold>
     cc0:	00040593          	mv	a1,s0
     cc4:	00048513          	mv	a0,s1
     cc8:	7d9010ef          	jal	2ca0 <check_storage>
     ccc:	00004537          	lui	a0,0x4
     cd0:	31850513          	addi	a0,a0,792 # 4318 <__global_pointer+0x400>
     cd4:	e91ff0ef          	jal	b64 <wait_for_exit>
     cd8:	00004537          	lui	a0,0x4
     cdc:	1ec50513          	addi	a0,a0,492 # 41ec <__global_pointer+0x2d4>
     ce0:	674020ef          	jal	3354 <print>
     ce4:	13812403          	lw	s0,312(sp)
     ce8:	13412483          	lw	s1,308(sp)
     cec:	13012903          	lw	s2,304(sp)
     cf0:	5680006f          	j	1258 <interact_with_tile+0x6b4>
     cf4:	13312623          	sw	s3,300(sp)
     cf8:	13412423          	sw	s4,296(sp)
     cfc:	13512223          	sw	s5,292(sp)
     d00:	13612023          	sw	s6,288(sp)
     d04:	11712e23          	sw	s7,284(sp)
     d08:	11812c23          	sw	s8,280(sp)
     d0c:	00004537          	lui	a0,0x4
     d10:	21050513          	addi	a0,a0,528 # 4210 <__global_pointer+0x2f8>
     d14:	86dff0ef          	jal	580 <print_hold>
     d18:	01048993          	addi	s3,s1,16
     d1c:	00004b37          	lui	s6,0x4
     d20:	00004ab7          	lui	s5,0x4
     d24:	00004c37          	lui	s8,0x4
     d28:	00003bb7          	lui	s7,0x3
     d2c:	64cb8b93          	addi	s7,s7,1612 # 364c <COLLECTIBLE_NAMES>
     d30:	00004a37          	lui	s4,0x4
     d34:	0300006f          	j	d64 <interact_with_tile+0x1c0>
     d38:	074c0593          	addi	a1,s8,116 # 4074 <__global_pointer+0x15c>
     d3c:	01010513          	addi	a0,sp,16
     d40:	f1cff0ef          	jal	45c <append_str>
     d44:	0a0a0593          	addi	a1,s4,160 # 40a0 <__global_pointer+0x188>
     d48:	01010513          	addi	a0,sp,16
     d4c:	f10ff0ef          	jal	45c <append_str>
     d50:	01010513          	addi	a0,sp,16
     d54:	600020ef          	jal	3354 <print>
     d58:	00498993          	addi	s3,s3,4
     d5c:	00600793          	li	a5,6
     d60:	04f90e63          	beq	s2,a5,dbc <interact_with_tile+0x218>
     d64:	00010823          	sb	zero,16(sp)
     d68:	06cb0593          	addi	a1,s6,108 # 406c <__global_pointer+0x154>
     d6c:	01010513          	addi	a0,sp,16
     d70:	eecff0ef          	jal	45c <append_str>
     d74:	00190913          	addi	s2,s2,1
     d78:	00410593          	addi	a1,sp,4
     d7c:	00090513          	mv	a0,s2
     d80:	e30ff0ef          	jal	3b0 <int_to_str>
     d84:	00410593          	addi	a1,sp,4
     d88:	01010513          	addi	a0,sp,16
     d8c:	ed0ff0ef          	jal	45c <append_str>
     d90:	c30a8593          	addi	a1,s5,-976 # 3c30 <timeoutcount+0x4ec>
     d94:	01010513          	addi	a0,sp,16
     d98:	ec4ff0ef          	jal	45c <append_str>
     d9c:	0009a783          	lw	a5,0(s3)
     da0:	f8078ce3          	beqz	a5,d38 <interact_with_tile+0x194>
     da4:	00279793          	slli	a5,a5,0x2
     da8:	00fb87b3          	add	a5,s7,a5
     dac:	0007a583          	lw	a1,0(a5)
     db0:	01010513          	addi	a0,sp,16
     db4:	ea8ff0ef          	jal	45c <append_str>
     db8:	f8dff06f          	j	d44 <interact_with_tile+0x1a0>
     dbc:	00004537          	lui	a0,0x4
     dc0:	22450513          	addi	a0,a0,548 # 4224 <__global_pointer+0x30c>
     dc4:	590020ef          	jal	3354 <print>
     dc8:	00100913          	li	s2,1
     dcc:	0b9010ef          	jal	2684 <get_sw>
     dd0:	06050663          	beqz	a0,e3c <interact_with_tile+0x298>
     dd4:	06091263          	bnez	s2,e38 <interact_with_tile+0x294>
     dd8:	10057793          	andi	a5,a0,256
     ddc:	06079863          	bnez	a5,e4c <interact_with_tile+0x2a8>
     de0:	01f57793          	andi	a5,a0,31
     de4:	06078063          	beqz	a5,e44 <interact_with_tile+0x2a0>
     de8:	00157793          	andi	a5,a0,1
     dec:	20079ae3          	bnez	a5,1800 <interact_with_tile+0xc5c>
     df0:	00257793          	andi	a5,a0,2
     df4:	200794e3          	bnez	a5,17fc <interact_with_tile+0xc58>
     df8:	00457793          	andi	a5,a0,4
     dfc:	240792e3          	bnez	a5,1840 <interact_with_tile+0xc9c>
     e00:	00857793          	andi	a5,a0,8
     e04:	240792e3          	bnez	a5,1848 <interact_with_tile+0xca4>
     e08:	01057513          	andi	a0,a0,16
     e0c:	240512e3          	bnez	a0,1850 <interact_with_tile+0xcac>
     e10:	00004537          	lui	a0,0x4
     e14:	27450513          	addi	a0,a0,628 # 4274 <__global_pointer+0x35c>
     e18:	f68ff0ef          	jal	580 <print_hold>
     e1c:	12c12983          	lw	s3,300(sp)
     e20:	12812a03          	lw	s4,296(sp)
     e24:	12412a83          	lw	s5,292(sp)
     e28:	12012b03          	lw	s6,288(sp)
     e2c:	11c12b83          	lw	s7,284(sp)
     e30:	11812c03          	lw	s8,280(sp)
     e34:	e99ff06f          	j	ccc <interact_with_tile+0x128>
     e38:	00090513          	mv	a0,s2
     e3c:	00050913          	mv	s2,a0
     e40:	f8dff06f          	j	dcc <interact_with_tile+0x228>
     e44:	00078513          	mv	a0,a5
     e48:	ff5ff06f          	j	e3c <interact_with_tile+0x298>
     e4c:	00004537          	lui	a0,0x4
     e50:	27450513          	addi	a0,a0,628 # 4274 <__global_pointer+0x35c>
     e54:	f2cff0ef          	jal	580 <print_hold>
     e58:	12c12983          	lw	s3,300(sp)
     e5c:	12812a03          	lw	s4,296(sp)
     e60:	12412a83          	lw	s5,292(sp)
     e64:	12012b03          	lw	s6,288(sp)
     e68:	11c12b83          	lw	s7,284(sp)
     e6c:	11812c03          	lw	s8,280(sp)
     e70:	e5dff06f          	j	ccc <interact_with_tile+0x128>
     e74:	00040513          	mv	a0,s0
     e78:	3ed010ef          	jal	2a64 <add_to_storage>
     e7c:	00090593          	mv	a1,s2
     e80:	00048513          	mv	a0,s1
     e84:	2cd010ef          	jal	2950 <remove_from_inventory>
     e88:	12c12983          	lw	s3,300(sp)
     e8c:	12812a03          	lw	s4,296(sp)
     e90:	12412a83          	lw	s5,292(sp)
     e94:	12012b03          	lw	s6,288(sp)
     e98:	11c12b83          	lw	s7,284(sp)
     e9c:	11812c03          	lw	s8,280(sp)
     ea0:	e2dff06f          	j	ccc <interact_with_tile+0x128>
     ea4:	00190913          	addi	s2,s2,1
     ea8:	00498993          	addi	s3,s3,4
     eac:	07490863          	beq	s2,s4,f1c <interact_with_tile+0x378>
     eb0:	0009a783          	lw	a5,0(s3)
     eb4:	fe0788e3          	beqz	a5,ea4 <interact_with_tile+0x300>
     eb8:	00010823          	sb	zero,16(sp)
     ebc:	06cc0593          	addi	a1,s8,108
     ec0:	01010513          	addi	a0,sp,16
     ec4:	d98ff0ef          	jal	45c <append_str>
     ec8:	00410593          	addi	a1,sp,4
     ecc:	00090513          	mv	a0,s2
     ed0:	ce0ff0ef          	jal	3b0 <int_to_str>
     ed4:	00410593          	addi	a1,sp,4
     ed8:	01010513          	addi	a0,sp,16
     edc:	d80ff0ef          	jal	45c <append_str>
     ee0:	c30b8593          	addi	a1,s7,-976
     ee4:	01010513          	addi	a0,sp,16
     ee8:	d74ff0ef          	jal	45c <append_str>
     eec:	0009a783          	lw	a5,0(s3)
     ef0:	00279793          	slli	a5,a5,0x2
     ef4:	00fa87b3          	add	a5,s5,a5
     ef8:	0007a583          	lw	a1,0(a5)
     efc:	01010513          	addi	a0,sp,16
     f00:	d5cff0ef          	jal	45c <append_str>
     f04:	0a0b0593          	addi	a1,s6,160
     f08:	01010513          	addi	a0,sp,16
     f0c:	d50ff0ef          	jal	45c <append_str>
     f10:	01010513          	addi	a0,sp,16
     f14:	440020ef          	jal	3354 <print>
     f18:	f8dff06f          	j	ea4 <interact_with_tile+0x300>
     f1c:	00004537          	lui	a0,0x4
     f20:	29c50513          	addi	a0,a0,668 # 429c <__global_pointer+0x384>
     f24:	430020ef          	jal	3354 <print>
     f28:	00100913          	li	s2,1
     f2c:	758010ef          	jal	2684 <get_sw>
     f30:	06050e63          	beqz	a0,fac <interact_with_tile+0x408>
     f34:	fe091ce3          	bnez	s2,f2c <interact_with_tile+0x388>
     f38:	10057793          	andi	a5,a0,256
     f3c:	04079463          	bnez	a5,f84 <interact_with_tile+0x3e0>
     f40:	00157793          	andi	a5,a0,1
     f44:	06078463          	beqz	a5,fac <interact_with_tile+0x408>
     f48:	fff78913          	addi	s2,a5,-1
     f4c:	00291793          	slli	a5,s2,0x2
     f50:	00f407b3          	add	a5,s0,a5
     f54:	00c7a583          	lw	a1,12(a5)
     f58:	06059e63          	bnez	a1,fd4 <interact_with_tile+0x430>
     f5c:	00004537          	lui	a0,0x4
     f60:	30050513          	addi	a0,a0,768 # 4300 <__global_pointer+0x3e8>
     f64:	e1cff0ef          	jal	580 <print_hold>
     f68:	12c12983          	lw	s3,300(sp)
     f6c:	12812a03          	lw	s4,296(sp)
     f70:	12412a83          	lw	s5,292(sp)
     f74:	12012b03          	lw	s6,288(sp)
     f78:	11c12b83          	lw	s7,284(sp)
     f7c:	11812c03          	lw	s8,280(sp)
     f80:	d4dff06f          	j	ccc <interact_with_tile+0x128>
     f84:	00004537          	lui	a0,0x4
     f88:	27450513          	addi	a0,a0,628 # 4274 <__global_pointer+0x35c>
     f8c:	df4ff0ef          	jal	580 <print_hold>
     f90:	12c12983          	lw	s3,300(sp)
     f94:	12812a03          	lw	s4,296(sp)
     f98:	12412a83          	lw	s5,292(sp)
     f9c:	12012b03          	lw	s6,288(sp)
     fa0:	11c12b83          	lw	s7,284(sp)
     fa4:	11812c03          	lw	s8,280(sp)
     fa8:	d25ff06f          	j	ccc <interact_with_tile+0x128>
     fac:	00257793          	andi	a5,a0,2
     fb0:	0a0794e3          	bnez	a5,1858 <interact_with_tile+0xcb4>
     fb4:	00457793          	andi	a5,a0,4
     fb8:	0a0794e3          	bnez	a5,1860 <interact_with_tile+0xcbc>
     fbc:	00857793          	andi	a5,a0,8
     fc0:	0a0794e3          	bnez	a5,1868 <interact_with_tile+0xcc4>
     fc4:	01057913          	andi	s2,a0,16
     fc8:	f60902e3          	beqz	s2,f2c <interact_with_tile+0x388>
     fcc:	00500793          	li	a5,5
     fd0:	f79ff06f          	j	f48 <interact_with_tile+0x3a4>
     fd4:	00048513          	mv	a0,s1
     fd8:	0d1010ef          	jal	28a8 <add_to_inventory>
     fdc:	00090593          	mv	a1,s2
     fe0:	00040513          	mv	a0,s0
     fe4:	3a9010ef          	jal	2b8c <remove_from_storage>
     fe8:	12c12983          	lw	s3,300(sp)
     fec:	12812a03          	lw	s4,296(sp)
     ff0:	12412a83          	lw	s5,292(sp)
     ff4:	12012b03          	lw	s6,288(sp)
     ff8:	11c12b83          	lw	s7,284(sp)
     ffc:	11812c03          	lw	s8,280(sp)
    1000:	ccdff06f          	j	ccc <interact_with_tile+0x128>
    1004:	00004537          	lui	a0,0x4
    1008:	34050513          	addi	a0,a0,832 # 4340 <__global_pointer+0x428>
    100c:	348020ef          	jal	3354 <print>
    1010:	b1dff0ef          	jal	b2c <wait_for_yes_no>
    1014:	1e050a63          	beqz	a0,1208 <interact_with_tile+0x664>
    1018:	13212823          	sw	s2,304(sp)
    101c:	00004537          	lui	a0,0x4
    1020:	37450513          	addi	a0,a0,884 # 4374 <__global_pointer+0x45c>
    1024:	330020ef          	jal	3354 <print>
    1028:	758010ef          	jal	2780 <get_leds>
    102c:	01f00793          	li	a5,31
    1030:	02a7c263          	blt	a5,a0,1054 <interact_with_tile+0x4b0>
    1034:	12054c63          	bltz	a0,116c <interact_with_tile+0x5c8>
    1038:	12a7ee63          	bltu	a5,a0,1174 <interact_with_tile+0x5d0>
    103c:	00251793          	slli	a5,a0,0x2
    1040:	00003737          	lui	a4,0x3
    1044:	78870713          	addi	a4,a4,1928 # 3788 <timeoutcount+0x44>
    1048:	00e787b3          	add	a5,a5,a4
    104c:	0007a783          	lw	a5,0(a5)
    1050:	00078067          	jr	a5
    1054:	0ff00793          	li	a5,255
    1058:	0ef50663          	beq	a0,a5,1144 <interact_with_tile+0x5a0>
    105c:	02a7c663          	blt	a5,a0,1088 <interact_with_tile+0x4e4>
    1060:	03f00793          	li	a5,63
    1064:	0cf50663          	beq	a0,a5,1130 <interact_with_tile+0x58c>
    1068:	07f00793          	li	a5,127
    106c:	00000913          	li	s2,0
    1070:	10f51463          	bne	a0,a5,1178 <interact_with_tile+0x5d4>
    1074:	00004537          	lui	a0,0x4
    1078:	3ec50513          	addi	a0,a0,1004 # 43ec <__global_pointer+0x4d4>
    107c:	2d8020ef          	jal	3354 <print>
    1080:	04600913          	li	s2,70
    1084:	0f40006f          	j	1178 <interact_with_tile+0x5d4>
    1088:	1ff00793          	li	a5,511
    108c:	0cf50663          	beq	a0,a5,1158 <interact_with_tile+0x5b4>
    1090:	3ff00793          	li	a5,1023
    1094:	00000913          	li	s2,0
    1098:	0ef51063          	bne	a0,a5,1178 <interact_with_tile+0x5d4>
    109c:	00004537          	lui	a0,0x4
    10a0:	3f850513          	addi	a0,a0,1016 # 43f8 <__global_pointer+0x4e0>
    10a4:	2b0020ef          	jal	3354 <print>
    10a8:	06200913          	li	s2,98
    10ac:	0cc0006f          	j	1178 <interact_with_tile+0x5d4>
    10b0:	00004537          	lui	a0,0x4
    10b4:	39850513          	addi	a0,a0,920 # 4398 <__global_pointer+0x480>
    10b8:	cc8ff0ef          	jal	580 <print_hold>
    10bc:	13812403          	lw	s0,312(sp)
    10c0:	13412483          	lw	s1,308(sp)
    10c4:	13012903          	lw	s2,304(sp)
    10c8:	1900006f          	j	1258 <interact_with_tile+0x6b4>
    10cc:	00004537          	lui	a0,0x4
    10d0:	3d450513          	addi	a0,a0,980 # 43d4 <__global_pointer+0x4bc>
    10d4:	280020ef          	jal	3354 <print>
    10d8:	00a00913          	li	s2,10
    10dc:	09c0006f          	j	1178 <interact_with_tile+0x5d4>
    10e0:	00004537          	lui	a0,0x4
    10e4:	3d850513          	addi	a0,a0,984 # 43d8 <__global_pointer+0x4c0>
    10e8:	26c020ef          	jal	3354 <print>
    10ec:	01400913          	li	s2,20
    10f0:	0880006f          	j	1178 <interact_with_tile+0x5d4>
    10f4:	00004537          	lui	a0,0x4
    10f8:	3dc50513          	addi	a0,a0,988 # 43dc <__global_pointer+0x4c4>
    10fc:	258020ef          	jal	3354 <print>
    1100:	01e00913          	li	s2,30
    1104:	0740006f          	j	1178 <interact_with_tile+0x5d4>
    1108:	00004537          	lui	a0,0x4
    110c:	3e050513          	addi	a0,a0,992 # 43e0 <__global_pointer+0x4c8>
    1110:	244020ef          	jal	3354 <print>
    1114:	02800913          	li	s2,40
    1118:	0600006f          	j	1178 <interact_with_tile+0x5d4>
    111c:	00004537          	lui	a0,0x4
    1120:	3e450513          	addi	a0,a0,996 # 43e4 <__global_pointer+0x4cc>
    1124:	230020ef          	jal	3354 <print>
    1128:	03200913          	li	s2,50
    112c:	04c0006f          	j	1178 <interact_with_tile+0x5d4>
    1130:	00004537          	lui	a0,0x4
    1134:	3e850513          	addi	a0,a0,1000 # 43e8 <__global_pointer+0x4d0>
    1138:	21c020ef          	jal	3354 <print>
    113c:	03c00913          	li	s2,60
    1140:	0380006f          	j	1178 <interact_with_tile+0x5d4>
    1144:	00004537          	lui	a0,0x4
    1148:	3f050513          	addi	a0,a0,1008 # 43f0 <__global_pointer+0x4d8>
    114c:	208020ef          	jal	3354 <print>
    1150:	05000913          	li	s2,80
    1154:	0240006f          	j	1178 <interact_with_tile+0x5d4>
    1158:	00004537          	lui	a0,0x4
    115c:	3f450513          	addi	a0,a0,1012 # 43f4 <__global_pointer+0x4dc>
    1160:	1f4020ef          	jal	3354 <print>
    1164:	05a00913          	li	s2,90
    1168:	0100006f          	j	1178 <interact_with_tile+0x5d4>
    116c:	00000913          	li	s2,0
    1170:	0080006f          	j	1178 <interact_with_tile+0x5d4>
    1174:	00000913          	li	s2,0
    1178:	0084a403          	lw	s0,8(s1)
    117c:	0284a783          	lw	a5,40(s1)
    1180:	02f40433          	mul	s0,s0,a5
    1184:	0069f7b7          	lui	a5,0x69f
    1188:	d7578793          	addi	a5,a5,-651 # 69ed75 <_stack_end+0x599a21>
    118c:	02f40433          	mul	s0,s0,a5
    1190:	06400793          	li	a5,100
    1194:	02f46433          	rem	s0,s0,a5
    1198:	00004537          	lui	a0,0x4
    119c:	3fc50513          	addi	a0,a0,1020 # 43fc <__global_pointer+0x4e4>
    11a0:	1b4020ef          	jal	3354 <print>
    11a4:	00090513          	mv	a0,s2
    11a8:	1e4020ef          	jal	338c <print_dec>
    11ac:	00004537          	lui	a0,0x4
    11b0:	41c50513          	addi	a0,a0,1052 # 441c <__global_pointer+0x504>
    11b4:	1a0020ef          	jal	3354 <print>
    11b8:	00004537          	lui	a0,0x4
    11bc:	42050513          	addi	a0,a0,1056 # 4420 <__global_pointer+0x508>
    11c0:	194020ef          	jal	3354 <print>
    11c4:	00040513          	mv	a0,s0
    11c8:	1c4020ef          	jal	338c <print_dec>
    11cc:	00004537          	lui	a0,0x4
    11d0:	0a050513          	addi	a0,a0,160 # 40a0 <__global_pointer+0x188>
    11d4:	180020ef          	jal	3354 <print>
    11d8:	02894063          	blt	s2,s0,11f8 <interact_with_tile+0x654>
    11dc:	00004537          	lui	a0,0x4
    11e0:	43850513          	addi	a0,a0,1080 # 4438 <__global_pointer+0x520>
    11e4:	170020ef          	jal	3354 <print>
    11e8:	000037b7          	lui	a5,0x3
    11ec:	7007ac23          	sw	zero,1816(a5) # 3718 <game_running>
    11f0:	13012903          	lw	s2,304(sp)
    11f4:	0200006f          	j	1214 <interact_with_tile+0x670>
    11f8:	00004537          	lui	a0,0x4
    11fc:	47450513          	addi	a0,a0,1140 # 4474 <__global_pointer+0x55c>
    1200:	154020ef          	jal	3354 <print>
    1204:	fe5ff06f          	j	11e8 <interact_with_tile+0x644>
    1208:	00004537          	lui	a0,0x4
    120c:	4b450513          	addi	a0,a0,1204 # 44b4 <__global_pointer+0x59c>
    1210:	144020ef          	jal	3354 <print>
    1214:	00000513          	li	a0,0
    1218:	94dff0ef          	jal	b64 <wait_for_exit>
    121c:	13812403          	lw	s0,312(sp)
    1220:	13412483          	lw	s1,308(sp)
    1224:	0340006f          	j	1258 <interact_with_tile+0x6b4>
    1228:	00004537          	lui	a0,0x4
    122c:	4cc50513          	addi	a0,a0,1228 # 44cc <__global_pointer+0x5b4>
    1230:	124020ef          	jal	3354 <print>
    1234:	8f9ff0ef          	jal	b2c <wait_for_yes_no>
    1238:	02050663          	beqz	a0,1264 <interact_with_tile+0x6c0>
    123c:	00700593          	li	a1,7
    1240:	00048513          	mv	a0,s1
    1244:	664010ef          	jal	28a8 <add_to_inventory>
    1248:	00000513          	li	a0,0
    124c:	919ff0ef          	jal	b64 <wait_for_exit>
    1250:	13812403          	lw	s0,312(sp)
    1254:	13412483          	lw	s1,308(sp)
    1258:	13c12083          	lw	ra,316(sp)
    125c:	14010113          	addi	sp,sp,320
    1260:	00008067          	ret
    1264:	00004537          	lui	a0,0x4
    1268:	4e050513          	addi	a0,a0,1248 # 44e0 <__global_pointer+0x5c8>
    126c:	b14ff0ef          	jal	580 <print_hold>
    1270:	fd9ff06f          	j	1248 <interact_with_tile+0x6a4>
    1274:	00004537          	lui	a0,0x4
    1278:	4fc50513          	addi	a0,a0,1276 # 44fc <__global_pointer+0x5e4>
    127c:	0d8020ef          	jal	3354 <print>
    1280:	8adff0ef          	jal	b2c <wait_for_yes_no>
    1284:	02050e63          	beqz	a0,12c0 <interact_with_tile+0x71c>
    1288:	13212823          	sw	s2,304(sp)
    128c:	01048793          	addi	a5,s1,16
    1290:	00000913          	li	s2,0
    1294:	00900693          	li	a3,9
    1298:	00600613          	li	a2,6
    129c:	0007a703          	lw	a4,0(a5)
    12a0:	02d70a63          	beq	a4,a3,12d4 <interact_with_tile+0x730>
    12a4:	00190913          	addi	s2,s2,1
    12a8:	00478793          	addi	a5,a5,4
    12ac:	fec918e3          	bne	s2,a2,129c <interact_with_tile+0x6f8>
    12b0:	00004537          	lui	a0,0x4
    12b4:	54850513          	addi	a0,a0,1352 # 4548 <__global_pointer+0x630>
    12b8:	ac8ff0ef          	jal	580 <print_hold>
    12bc:	13012903          	lw	s2,304(sp)
    12c0:	00000513          	li	a0,0
    12c4:	8a1ff0ef          	jal	b64 <wait_for_exit>
    12c8:	13812403          	lw	s0,312(sp)
    12cc:	13412483          	lw	s1,308(sp)
    12d0:	f89ff06f          	j	1258 <interact_with_tile+0x6b4>
    12d4:	00900593          	li	a1,9
    12d8:	00040513          	mv	a0,s0
    12dc:	02d010ef          	jal	2b08 <add_fuel_enginebay>
    12e0:	00040593          	mv	a1,s0
    12e4:	00048513          	mv	a0,s1
    12e8:	1b9010ef          	jal	2ca0 <check_storage>
    12ec:	00090593          	mv	a1,s2
    12f0:	00048513          	mv	a0,s1
    12f4:	65c010ef          	jal	2950 <remove_from_inventory>
    12f8:	00004537          	lui	a0,0x4
    12fc:	51c50513          	addi	a0,a0,1308 # 451c <__global_pointer+0x604>
    1300:	054020ef          	jal	3354 <print>
    1304:	13012903          	lw	s2,304(sp)
    1308:	fb9ff06f          	j	12c0 <interact_with_tile+0x71c>
    130c:	00004537          	lui	a0,0x4
    1310:	57450513          	addi	a0,a0,1396 # 4574 <__global_pointer+0x65c>
    1314:	040020ef          	jal	3354 <print>
    1318:	00004537          	lui	a0,0x4
    131c:	59c50513          	addi	a0,a0,1436 # 459c <__global_pointer+0x684>
    1320:	034020ef          	jal	3354 <print>
    1324:	00004537          	lui	a0,0x4
    1328:	5bc50513          	addi	a0,a0,1468 # 45bc <__global_pointer+0x6a4>
    132c:	028020ef          	jal	3354 <print>
    1330:	00004537          	lui	a0,0x4
    1334:	5dc50513          	addi	a0,a0,1500 # 45dc <__global_pointer+0x6c4>
    1338:	01c020ef          	jal	3354 <print>
    133c:	348010ef          	jal	2684 <get_sw>
    1340:	00857793          	andi	a5,a0,8
    1344:	04079463          	bnez	a5,138c <interact_with_tile+0x7e8>
    1348:	00157793          	andi	a5,a0,1
    134c:	02079463          	bnez	a5,1374 <interact_with_tile+0x7d0>
    1350:	00257793          	andi	a5,a0,2
    1354:	fe0784e3          	beqz	a5,133c <interact_with_tile+0x798>
    1358:	00900593          	li	a1,9
    135c:	00048513          	mv	a0,s1
    1360:	548010ef          	jal	28a8 <add_to_inventory>
    1364:	00004537          	lui	a0,0x4
    1368:	60850513          	addi	a0,a0,1544 # 4608 <__global_pointer+0x6f0>
    136c:	a14ff0ef          	jal	580 <print_hold>
    1370:	01c0006f          	j	138c <interact_with_tile+0x7e8>
    1374:	00800593          	li	a1,8
    1378:	00048513          	mv	a0,s1
    137c:	52c010ef          	jal	28a8 <add_to_inventory>
    1380:	00004537          	lui	a0,0x4
    1384:	5ec50513          	addi	a0,a0,1516 # 45ec <__global_pointer+0x6d4>
    1388:	9f8ff0ef          	jal	580 <print_hold>
    138c:	00000513          	li	a0,0
    1390:	fd4ff0ef          	jal	b64 <wait_for_exit>
    1394:	13812403          	lw	s0,312(sp)
    1398:	13412483          	lw	s1,308(sp)
    139c:	ebdff06f          	j	1258 <interact_with_tile+0x6b4>
    13a0:	00004537          	lui	a0,0x4
    13a4:	62050513          	addi	a0,a0,1568 # 4620 <__global_pointer+0x708>
    13a8:	9d8ff0ef          	jal	580 <print_hold>
    13ac:	00000513          	li	a0,0
    13b0:	fb4ff0ef          	jal	b64 <wait_for_exit>
    13b4:	13812403          	lw	s0,312(sp)
    13b8:	13412483          	lw	s1,308(sp)
    13bc:	e9dff06f          	j	1258 <interact_with_tile+0x6b4>
    13c0:	00004537          	lui	a0,0x4
    13c4:	66c50513          	addi	a0,a0,1644 # 466c <__global_pointer+0x754>
    13c8:	9b8ff0ef          	jal	580 <print_hold>
    13cc:	00004537          	lui	a0,0x4
    13d0:	69450513          	addi	a0,a0,1684 # 4694 <__global_pointer+0x77c>
    13d4:	781010ef          	jal	3354 <print>
    13d8:	f54ff0ef          	jal	b2c <wait_for_yes_no>
    13dc:	00051c63          	bnez	a0,13f4 <interact_with_tile+0x850>
    13e0:	00000513          	li	a0,0
    13e4:	f80ff0ef          	jal	b64 <wait_for_exit>
    13e8:	13812403          	lw	s0,312(sp)
    13ec:	13412483          	lw	s1,308(sp)
    13f0:	e69ff06f          	j	1258 <interact_with_tile+0x6b4>
    13f4:	00004537          	lui	a0,0x4
    13f8:	6c450513          	addi	a0,a0,1732 # 46c4 <__global_pointer+0x7ac>
    13fc:	759010ef          	jal	3354 <print>
    1400:	00b00593          	li	a1,11
    1404:	00048513          	mv	a0,s1
    1408:	4a0010ef          	jal	28a8 <add_to_inventory>
    140c:	fd5ff06f          	j	13e0 <interact_with_tile+0x83c>
    1410:	00004537          	lui	a0,0x4
    1414:	72050513          	addi	a0,a0,1824 # 4720 <__global_pointer+0x808>
    1418:	968ff0ef          	jal	580 <print_hold>
    141c:	0044a783          	lw	a5,4(s1)
    1420:	08079263          	bnez	a5,14a4 <interact_with_tile+0x900>
    1424:	0004a703          	lw	a4,0(s1)
    1428:	00400793          	li	a5,4
    142c:	06f70263          	beq	a4,a5,1490 <interact_with_tile+0x8ec>
    1430:	0044a703          	lw	a4,4(s1)
    1434:	00600793          	li	a5,6
    1438:	08f71263          	bne	a4,a5,14bc <interact_with_tile+0x918>
    143c:	0004a703          	lw	a4,0(s1)
    1440:	00400793          	li	a5,4
    1444:	16f70e63          	beq	a4,a5,15c0 <interact_with_tile+0xa1c>
    1448:	0044a703          	lw	a4,4(s1)
    144c:	00300793          	li	a5,3
    1450:	08f71263          	bne	a4,a5,14d4 <interact_with_tile+0x930>
    1454:	0004a703          	lw	a4,0(s1)
    1458:	00400793          	li	a5,4
    145c:	06f71c63          	bne	a4,a5,14d4 <interact_with_tile+0x930>
    1460:	00004537          	lui	a0,0x4
    1464:	74c50513          	addi	a0,a0,1868 # 474c <__global_pointer+0x834>
    1468:	6ed010ef          	jal	3354 <print>
    146c:	ec0ff0ef          	jal	b2c <wait_for_yes_no>
    1470:	06050263          	beqz	a0,14d4 <interact_with_tile+0x930>
    1474:	00005537          	lui	a0,0x5
    1478:	88c50513          	addi	a0,a0,-1908 # 488c <__global_pointer+0x974>
    147c:	6d9010ef          	jal	3354 <print>
    1480:	00500593          	li	a1,5
    1484:	00048513          	mv	a0,s1
    1488:	420010ef          	jal	28a8 <add_to_inventory>
    148c:	0480006f          	j	14d4 <interact_with_tile+0x930>
    1490:	00004537          	lui	a0,0x4
    1494:	74c50513          	addi	a0,a0,1868 # 474c <__global_pointer+0x834>
    1498:	6bd010ef          	jal	3354 <print>
    149c:	e90ff0ef          	jal	b2c <wait_for_yes_no>
    14a0:	04051463          	bnez	a0,14e8 <interact_with_tile+0x944>
    14a4:	0044a703          	lw	a4,4(s1)
    14a8:	00700793          	li	a5,7
    14ac:	06f71663          	bne	a4,a5,1518 <interact_with_tile+0x974>
    14b0:	0004a703          	lw	a4,0(s1)
    14b4:	00100793          	li	a5,1
    14b8:	04f70663          	beq	a4,a5,1504 <interact_with_tile+0x960>
    14bc:	0044a703          	lw	a4,4(s1)
    14c0:	00500793          	li	a5,5
    14c4:	06f71663          	bne	a4,a5,1530 <interact_with_tile+0x98c>
    14c8:	0004a703          	lw	a4,0(s1)
    14cc:	00400793          	li	a5,4
    14d0:	12f70063          	beq	a4,a5,15f0 <interact_with_tile+0xa4c>
    14d4:	00000513          	li	a0,0
    14d8:	e8cff0ef          	jal	b64 <wait_for_exit>
    14dc:	13812403          	lw	s0,312(sp)
    14e0:	13412483          	lw	s1,308(sp)
    14e4:	d75ff06f          	j	1258 <interact_with_tile+0x6b4>
    14e8:	00004537          	lui	a0,0x4
    14ec:	77850513          	addi	a0,a0,1912 # 4778 <__global_pointer+0x860>
    14f0:	665010ef          	jal	3354 <print>
    14f4:	00a00593          	li	a1,10
    14f8:	00048513          	mv	a0,s1
    14fc:	3ac010ef          	jal	28a8 <add_to_inventory>
    1500:	fa5ff06f          	j	14a4 <interact_with_tile+0x900>
    1504:	00004537          	lui	a0,0x4
    1508:	74c50513          	addi	a0,a0,1868 # 474c <__global_pointer+0x834>
    150c:	649010ef          	jal	3354 <print>
    1510:	e1cff0ef          	jal	b2c <wait_for_yes_no>
    1514:	06051063          	bnez	a0,1574 <interact_with_tile+0x9d0>
    1518:	0044a703          	lw	a4,4(s1)
    151c:	00200793          	li	a5,2
    1520:	f0f718e3          	bne	a4,a5,1430 <interact_with_tile+0x88c>
    1524:	0004a703          	lw	a4,0(s1)
    1528:	00400793          	li	a5,4
    152c:	06f70263          	beq	a4,a5,1590 <interact_with_tile+0x9ec>
    1530:	0044a703          	lw	a4,4(s1)
    1534:	00400793          	li	a5,4
    1538:	f0f718e3          	bne	a4,a5,1448 <interact_with_tile+0x8a4>
    153c:	0004a703          	lw	a4,0(s1)
    1540:	f8f71ae3          	bne	a4,a5,14d4 <interact_with_tile+0x930>
    1544:	00004537          	lui	a0,0x4
    1548:	74c50513          	addi	a0,a0,1868 # 474c <__global_pointer+0x834>
    154c:	609010ef          	jal	3354 <print>
    1550:	ddcff0ef          	jal	b2c <wait_for_yes_no>
    1554:	ee050ae3          	beqz	a0,1448 <interact_with_tile+0x8a4>
    1558:	00005537          	lui	a0,0x5
    155c:	85c50513          	addi	a0,a0,-1956 # 485c <__global_pointer+0x944>
    1560:	5f5010ef          	jal	3354 <print>
    1564:	01000593          	li	a1,16
    1568:	00048513          	mv	a0,s1
    156c:	33c010ef          	jal	28a8 <add_to_inventory>
    1570:	ed9ff06f          	j	1448 <interact_with_tile+0x8a4>
    1574:	00004537          	lui	a0,0x4
    1578:	7a850513          	addi	a0,a0,1960 # 47a8 <__global_pointer+0x890>
    157c:	5d9010ef          	jal	3354 <print>
    1580:	00c00593          	li	a1,12
    1584:	00048513          	mv	a0,s1
    1588:	320010ef          	jal	28a8 <add_to_inventory>
    158c:	f8dff06f          	j	1518 <interact_with_tile+0x974>
    1590:	00004537          	lui	a0,0x4
    1594:	74c50513          	addi	a0,a0,1868 # 474c <__global_pointer+0x834>
    1598:	5bd010ef          	jal	3354 <print>
    159c:	d90ff0ef          	jal	b2c <wait_for_yes_no>
    15a0:	e80508e3          	beqz	a0,1430 <interact_with_tile+0x88c>
    15a4:	00004537          	lui	a0,0x4
    15a8:	7d050513          	addi	a0,a0,2000 # 47d0 <__global_pointer+0x8b8>
    15ac:	5a9010ef          	jal	3354 <print>
    15b0:	00d00593          	li	a1,13
    15b4:	00048513          	mv	a0,s1
    15b8:	2f0010ef          	jal	28a8 <add_to_inventory>
    15bc:	e75ff06f          	j	1430 <interact_with_tile+0x88c>
    15c0:	00004537          	lui	a0,0x4
    15c4:	74c50513          	addi	a0,a0,1868 # 474c <__global_pointer+0x834>
    15c8:	58d010ef          	jal	3354 <print>
    15cc:	d60ff0ef          	jal	b2c <wait_for_yes_no>
    15d0:	ee0506e3          	beqz	a0,14bc <interact_with_tile+0x918>
    15d4:	00005537          	lui	a0,0x5
    15d8:	80050513          	addi	a0,a0,-2048 # 4800 <__global_pointer+0x8e8>
    15dc:	579010ef          	jal	3354 <print>
    15e0:	00e00593          	li	a1,14
    15e4:	00048513          	mv	a0,s1
    15e8:	2c0010ef          	jal	28a8 <add_to_inventory>
    15ec:	ed1ff06f          	j	14bc <interact_with_tile+0x918>
    15f0:	00004537          	lui	a0,0x4
    15f4:	74c50513          	addi	a0,a0,1868 # 474c <__global_pointer+0x834>
    15f8:	55d010ef          	jal	3354 <print>
    15fc:	d30ff0ef          	jal	b2c <wait_for_yes_no>
    1600:	f20508e3          	beqz	a0,1530 <interact_with_tile+0x98c>
    1604:	00005537          	lui	a0,0x5
    1608:	83050513          	addi	a0,a0,-2000 # 4830 <__global_pointer+0x918>
    160c:	549010ef          	jal	3354 <print>
    1610:	00f00593          	li	a1,15
    1614:	00048513          	mv	a0,s1
    1618:	290010ef          	jal	28a8 <add_to_inventory>
    161c:	f15ff06f          	j	1530 <interact_with_tile+0x98c>
    1620:	00005537          	lui	a0,0x5
    1624:	8c050513          	addi	a0,a0,-1856 # 48c0 <__global_pointer+0x9a8>
    1628:	f59fe0ef          	jal	580 <print_hold>
    162c:	0084a703          	lw	a4,8(s1)
    1630:	01f75793          	srli	a5,a4,0x1f
    1634:	00e787b3          	add	a5,a5,a4
    1638:	4017d793          	srai	a5,a5,0x1
    163c:	00f4a423          	sw	a5,8(s1)
    1640:	00000513          	li	a0,0
    1644:	d20ff0ef          	jal	b64 <wait_for_exit>
    1648:	13812403          	lw	s0,312(sp)
    164c:	13412483          	lw	s1,308(sp)
    1650:	c09ff06f          	j	1258 <interact_with_tile+0x6b4>
    1654:	00005537          	lui	a0,0x5
    1658:	90050513          	addi	a0,a0,-1792 # 4900 <__global_pointer+0x9e8>
    165c:	4f9010ef          	jal	3354 <print>
    1660:	cccff0ef          	jal	b2c <wait_for_yes_no>
    1664:	00051c63          	bnez	a0,167c <interact_with_tile+0xad8>
    1668:	00000513          	li	a0,0
    166c:	cf8ff0ef          	jal	b64 <wait_for_exit>
    1670:	13812403          	lw	s0,312(sp)
    1674:	13412483          	lw	s1,308(sp)
    1678:	be1ff06f          	j	1258 <interact_with_tile+0x6b4>
    167c:	00005537          	lui	a0,0x5
    1680:	93c50513          	addi	a0,a0,-1732 # 493c <__global_pointer+0xa24>
    1684:	4d1010ef          	jal	3354 <print>
    1688:	00100593          	li	a1,1
    168c:	00048513          	mv	a0,s1
    1690:	218010ef          	jal	28a8 <add_to_inventory>
    1694:	fd5ff06f          	j	1668 <interact_with_tile+0xac4>
    1698:	00005537          	lui	a0,0x5
    169c:	97c50513          	addi	a0,a0,-1668 # 497c <__global_pointer+0xa64>
    16a0:	ee1fe0ef          	jal	580 <print_hold>
    16a4:	00c4a703          	lw	a4,12(s1)
    16a8:	01f75793          	srli	a5,a4,0x1f
    16ac:	00e787b3          	add	a5,a5,a4
    16b0:	4017d793          	srai	a5,a5,0x1
    16b4:	00f4a623          	sw	a5,12(s1)
    16b8:	00000513          	li	a0,0
    16bc:	ca8ff0ef          	jal	b64 <wait_for_exit>
    16c0:	13812403          	lw	s0,312(sp)
    16c4:	13412483          	lw	s1,308(sp)
    16c8:	b91ff06f          	j	1258 <interact_with_tile+0x6b4>
    16cc:	00005537          	lui	a0,0x5
    16d0:	9e050513          	addi	a0,a0,-1568 # 49e0 <__global_pointer+0xac8>
    16d4:	481010ef          	jal	3354 <print>
    16d8:	c54ff0ef          	jal	b2c <wait_for_yes_no>
    16dc:	00051c63          	bnez	a0,16f4 <interact_with_tile+0xb50>
    16e0:	00000513          	li	a0,0
    16e4:	c80ff0ef          	jal	b64 <wait_for_exit>
    16e8:	13812403          	lw	s0,312(sp)
    16ec:	13412483          	lw	s1,308(sp)
    16f0:	b69ff06f          	j	1258 <interact_with_tile+0x6b4>
    16f4:	00005537          	lui	a0,0x5
    16f8:	a0850513          	addi	a0,a0,-1528 # 4a08 <__global_pointer+0xaf0>
    16fc:	e85fe0ef          	jal	580 <print_hold>
    1700:	00400593          	li	a1,4
    1704:	00048513          	mv	a0,s1
    1708:	1a0010ef          	jal	28a8 <add_to_inventory>
    170c:	fd5ff06f          	j	16e0 <interact_with_tile+0xb3c>
    1710:	00005537          	lui	a0,0x5
    1714:	a3850513          	addi	a0,a0,-1480 # 4a38 <__global_pointer+0xb20>
    1718:	43d010ef          	jal	3354 <print>
    171c:	c10ff0ef          	jal	b2c <wait_for_yes_no>
    1720:	00051c63          	bnez	a0,1738 <interact_with_tile+0xb94>
    1724:	00000513          	li	a0,0
    1728:	c3cff0ef          	jal	b64 <wait_for_exit>
    172c:	13812403          	lw	s0,312(sp)
    1730:	13412483          	lw	s1,308(sp)
    1734:	b25ff06f          	j	1258 <interact_with_tile+0x6b4>
    1738:	00005537          	lui	a0,0x5
    173c:	a6c50513          	addi	a0,a0,-1428 # 4a6c <__global_pointer+0xb54>
    1740:	415010ef          	jal	3354 <print>
    1744:	00200593          	li	a1,2
    1748:	00048513          	mv	a0,s1
    174c:	15c010ef          	jal	28a8 <add_to_inventory>
    1750:	fd5ff06f          	j	1724 <interact_with_tile+0xb80>
    1754:	00005537          	lui	a0,0x5
    1758:	aac50513          	addi	a0,a0,-1364 # 4aac <__global_pointer+0xb94>
    175c:	3f9010ef          	jal	3354 <print>
    1760:	bccff0ef          	jal	b2c <wait_for_yes_no>
    1764:	00051c63          	bnez	a0,177c <interact_with_tile+0xbd8>
    1768:	00000513          	li	a0,0
    176c:	bf8ff0ef          	jal	b64 <wait_for_exit>
    1770:	13812403          	lw	s0,312(sp)
    1774:	13412483          	lw	s1,308(sp)
    1778:	ae1ff06f          	j	1258 <interact_with_tile+0x6b4>
    177c:	00005537          	lui	a0,0x5
    1780:	ae450513          	addi	a0,a0,-1308 # 4ae4 <__global_pointer+0xbcc>
    1784:	3d1010ef          	jal	3354 <print>
    1788:	00300593          	li	a1,3
    178c:	00048513          	mv	a0,s1
    1790:	118010ef          	jal	28a8 <add_to_inventory>
    1794:	fd5ff06f          	j	1768 <interact_with_tile+0xbc4>
    1798:	00005537          	lui	a0,0x5
    179c:	b2050513          	addi	a0,a0,-1248 # 4b20 <__global_pointer+0xc08>
    17a0:	3b5010ef          	jal	3354 <print>
    17a4:	b88ff0ef          	jal	b2c <wait_for_yes_no>
    17a8:	00051c63          	bnez	a0,17c0 <interact_with_tile+0xc1c>
    17ac:	00000513          	li	a0,0
    17b0:	bb4ff0ef          	jal	b64 <wait_for_exit>
    17b4:	13812403          	lw	s0,312(sp)
    17b8:	13412483          	lw	s1,308(sp)
    17bc:	a9dff06f          	j	1258 <interact_with_tile+0x6b4>
    17c0:	00005537          	lui	a0,0x5
    17c4:	b5850513          	addi	a0,a0,-1192 # 4b58 <__global_pointer+0xc40>
    17c8:	38d010ef          	jal	3354 <print>
    17cc:	00600593          	li	a1,6
    17d0:	00048513          	mv	a0,s1
    17d4:	0d4010ef          	jal	28a8 <add_to_inventory>
    17d8:	fd5ff06f          	j	17ac <interact_with_tile+0xc08>
    17dc:	13812403          	lw	s0,312(sp)
    17e0:	13412483          	lw	s1,308(sp)
    17e4:	00005537          	lui	a0,0x5
    17e8:	b8850513          	addi	a0,a0,-1144 # 4b88 <__global_pointer+0xc70>
    17ec:	d95fe0ef          	jal	580 <print_hold>
    17f0:	00000513          	li	a0,0
    17f4:	b70ff0ef          	jal	b64 <wait_for_exit>
    17f8:	a61ff06f          	j	1258 <interact_with_tile+0x6b4>
    17fc:	00200793          	li	a5,2
    1800:	fff78913          	addi	s2,a5,-1
    1804:	00378793          	addi	a5,a5,3
    1808:	00279793          	slli	a5,a5,0x2
    180c:	00f487b3          	add	a5,s1,a5
    1810:	0007a583          	lw	a1,0(a5)
    1814:	e6059063          	bnez	a1,e74 <interact_with_tile+0x2d0>
    1818:	00004537          	lui	a0,0x4
    181c:	28050513          	addi	a0,a0,640 # 4280 <__global_pointer+0x368>
    1820:	d61fe0ef          	jal	580 <print_hold>
    1824:	12c12983          	lw	s3,300(sp)
    1828:	12812a03          	lw	s4,296(sp)
    182c:	12412a83          	lw	s5,292(sp)
    1830:	12012b03          	lw	s6,288(sp)
    1834:	11c12b83          	lw	s7,284(sp)
    1838:	11812c03          	lw	s8,280(sp)
    183c:	c90ff06f          	j	ccc <interact_with_tile+0x128>
    1840:	00300793          	li	a5,3
    1844:	fbdff06f          	j	1800 <interact_with_tile+0xc5c>
    1848:	00400793          	li	a5,4
    184c:	fb5ff06f          	j	1800 <interact_with_tile+0xc5c>
    1850:	00500793          	li	a5,5
    1854:	fadff06f          	j	1800 <interact_with_tile+0xc5c>
    1858:	00200793          	li	a5,2
    185c:	eecff06f          	j	f48 <interact_with_tile+0x3a4>
    1860:	00300793          	li	a5,3
    1864:	ee4ff06f          	j	f48 <interact_with_tile+0x3a4>
    1868:	00400793          	li	a5,4
    186c:	edcff06f          	j	f48 <interact_with_tile+0x3a4>

00001870 <handle_input>:
    1870:	ff010113          	addi	sp,sp,-16
    1874:	00112623          	sw	ra,12(sp)
    1878:	00812423          	sw	s0,8(sp)
    187c:	00912223          	sw	s1,4(sp)
    1880:	01212023          	sw	s2,0(sp)
    1884:	00050413          	mv	s0,a0
    1888:	00058913          	mv	s2,a1
    188c:	0005a783          	lw	a5,0(a1)
    1890:	0045a703          	lw	a4,4(a1)
    1894:	20057493          	andi	s1,a0,512
    1898:	06049e63          	bnez	s1,1914 <handle_input+0xa4>
    189c:	00157593          	andi	a1,a0,1
    18a0:	00b787b3          	add	a5,a5,a1
    18a4:	00257693          	andi	a3,a0,2
    18a8:	00068663          	beqz	a3,18b4 <handle_input+0x44>
    18ac:	fff78793          	addi	a5,a5,-1
    18b0:	00100593          	li	a1,1
    18b4:	00447693          	andi	a3,s0,4
    18b8:	08068463          	beqz	a3,1940 <handle_input+0xd0>
    18bc:	00170713          	addi	a4,a4,1
    18c0:	10047693          	andi	a3,s0,256
    18c4:	00068463          	beqz	a3,18cc <handle_input+0x5c>
    18c8:	fff70713          	addi	a4,a4,-1
    18cc:	00900693          	li	a3,9
    18d0:	0af6e063          	bltu	a3,a5,1970 <handle_input+0x100>
    18d4:	08e6ee63          	bltu	a3,a4,1970 <handle_input+0x100>
    18d8:	19000693          	li	a3,400
    18dc:	02d706b3          	mul	a3,a4,a3
    18e0:	00d60633          	add	a2,a2,a3
    18e4:	00279693          	slli	a3,a5,0x2
    18e8:	00f686b3          	add	a3,a3,a5
    18ec:	00369693          	slli	a3,a3,0x3
    18f0:	00d60633          	add	a2,a2,a3
    18f4:	00062683          	lw	a3,0(a2)
    18f8:	01000613          	li	a2,16
    18fc:	06c68263          	beq	a3,a2,1960 <handle_input+0xf0>
    1900:	00f00613          	li	a2,15
    1904:	04c68663          	beq	a3,a2,1950 <handle_input+0xe0>
    1908:	00f92023          	sw	a5,0(s2)
    190c:	00e92223          	sw	a4,4(s2)
    1910:	06c0006f          	j	197c <handle_input+0x10c>
    1914:	19000693          	li	a3,400
    1918:	02d70733          	mul	a4,a4,a3
    191c:	00279693          	slli	a3,a5,0x2
    1920:	00f687b3          	add	a5,a3,a5
    1924:	00379793          	slli	a5,a5,0x3
    1928:	00f70733          	add	a4,a4,a5
    192c:	00050693          	mv	a3,a0
    1930:	00e605b3          	add	a1,a2,a4
    1934:	00090513          	mv	a0,s2
    1938:	a6cff0ef          	jal	ba4 <interact_with_tile>
    193c:	12c0006f          	j	1a68 <handle_input+0x1f8>
    1940:	10047693          	andi	a3,s0,256
    1944:	f80692e3          	bnez	a3,18c8 <handle_input+0x58>
    1948:	02058a63          	beqz	a1,197c <handle_input+0x10c>
    194c:	f81ff06f          	j	18cc <handle_input+0x5c>
    1950:	00005537          	lui	a0,0x5
    1954:	bb450513          	addi	a0,a0,-1100 # 4bb4 <__global_pointer+0xc9c>
    1958:	c29fe0ef          	jal	580 <print_hold>
    195c:	0200006f          	j	197c <handle_input+0x10c>
    1960:	00005537          	lui	a0,0x5
    1964:	bec50513          	addi	a0,a0,-1044 # 4bec <__global_pointer+0xcd4>
    1968:	c19fe0ef          	jal	580 <print_hold>
    196c:	0100006f          	j	197c <handle_input+0x10c>
    1970:	00005537          	lui	a0,0x5
    1974:	c3c50513          	addi	a0,a0,-964 # 4c3c <__global_pointer+0xd24>
    1978:	c09fe0ef          	jal	580 <print_hold>
    197c:	04047793          	andi	a5,s0,64
    1980:	06078a63          	beqz	a5,19f4 <handle_input+0x184>
    1984:	01090713          	addi	a4,s2,16
    1988:	00048793          	mv	a5,s1
    198c:	00800613          	li	a2,8
    1990:	00600593          	li	a1,6
    1994:	00072683          	lw	a3,0(a4)
    1998:	02c68063          	beq	a3,a2,19b8 <handle_input+0x148>
    199c:	00178793          	addi	a5,a5,1
    19a0:	00470713          	addi	a4,a4,4
    19a4:	feb798e3          	bne	a5,a1,1994 <handle_input+0x124>
    19a8:	00005537          	lui	a0,0x5
    19ac:	ca050513          	addi	a0,a0,-864 # 4ca0 <__global_pointer+0xd88>
    19b0:	bd1fe0ef          	jal	580 <print_hold>
    19b4:	0400006f          	j	19f4 <handle_input+0x184>
    19b8:	fff00713          	li	a4,-1
    19bc:	fee786e3          	beq	a5,a4,19a8 <handle_input+0x138>
    19c0:	00478793          	addi	a5,a5,4
    19c4:	00279793          	slli	a5,a5,0x2
    19c8:	00f907b3          	add	a5,s2,a5
    19cc:	0007a023          	sw	zero,0(a5)
    19d0:	02892783          	lw	a5,40(s2)
    19d4:	03278793          	addi	a5,a5,50
    19d8:	06300713          	li	a4,99
    19dc:	00f75463          	bge	a4,a5,19e4 <handle_input+0x174>
    19e0:	06300793          	li	a5,99
    19e4:	02f92423          	sw	a5,40(s2)
    19e8:	00005537          	lui	a0,0x5
    19ec:	c7450513          	addi	a0,a0,-908 # 4c74 <__global_pointer+0xd5c>
    19f0:	b91fe0ef          	jal	580 <print_hold>
    19f4:	08047413          	andi	s0,s0,128
    19f8:	06040863          	beqz	s0,1a68 <handle_input+0x1f8>
    19fc:	01090793          	addi	a5,s2,16
    1a00:	00700693          	li	a3,7
    1a04:	00600613          	li	a2,6
    1a08:	0007a703          	lw	a4,0(a5)
    1a0c:	02d70063          	beq	a4,a3,1a2c <handle_input+0x1bc>
    1a10:	00148493          	addi	s1,s1,1
    1a14:	00478793          	addi	a5,a5,4
    1a18:	fec498e3          	bne	s1,a2,1a08 <handle_input+0x198>
    1a1c:	00005537          	lui	a0,0x5
    1a20:	cec50513          	addi	a0,a0,-788 # 4cec <__global_pointer+0xdd4>
    1a24:	b5dfe0ef          	jal	580 <print_hold>
    1a28:	0400006f          	j	1a68 <handle_input+0x1f8>
    1a2c:	fff00793          	li	a5,-1
    1a30:	fef486e3          	beq	s1,a5,1a1c <handle_input+0x1ac>
    1a34:	00448493          	addi	s1,s1,4
    1a38:	00249493          	slli	s1,s1,0x2
    1a3c:	009904b3          	add	s1,s2,s1
    1a40:	0004a023          	sw	zero,0(s1)
    1a44:	00892783          	lw	a5,8(s2)
    1a48:	03278793          	addi	a5,a5,50
    1a4c:	06300713          	li	a4,99
    1a50:	00f75463          	bge	a4,a5,1a58 <handle_input+0x1e8>
    1a54:	06300793          	li	a5,99
    1a58:	00f92423          	sw	a5,8(s2)
    1a5c:	00005537          	lui	a0,0x5
    1a60:	cc050513          	addi	a0,a0,-832 # 4cc0 <__global_pointer+0xda8>
    1a64:	b1dfe0ef          	jal	580 <print_hold>
    1a68:	00c12083          	lw	ra,12(sp)
    1a6c:	00812403          	lw	s0,8(sp)
    1a70:	00412483          	lw	s1,4(sp)
    1a74:	00012903          	lw	s2,0(sp)
    1a78:	01010113          	addi	sp,sp,16
    1a7c:	00008067          	ret

00001a80 <start_game>:
    1a80:	f7010113          	addi	sp,sp,-144
    1a84:	08112623          	sw	ra,140(sp)
    1a88:	08812423          	sw	s0,136(sp)
    1a8c:	08912223          	sw	s1,132(sp)
    1a90:	09212023          	sw	s2,128(sp)
    1a94:	07312e23          	sw	s3,124(sp)
    1a98:	07412c23          	sw	s4,120(sp)
    1a9c:	07512a23          	sw	s5,116(sp)
    1aa0:	07612823          	sw	s6,112(sp)
    1aa4:	fffff2b7          	lui	t0,0xfffff
    1aa8:	00510133          	add	sp,sp,t0
    1aac:	00004437          	lui	s0,0x4
    1ab0:	3d440513          	addi	a0,s0,980 # 43d4 <__global_pointer+0x4bc>
    1ab4:	0a1010ef          	jal	3354 <print>
    1ab8:	4dd000ef          	jal	2794 <labinit>
    1abc:	00004537          	lui	a0,0x4
    1ac0:	3d850513          	addi	a0,a0,984 # 43d8 <__global_pointer+0x4c0>
    1ac4:	091010ef          	jal	3354 <print>
    1ac8:	fffff7b7          	lui	a5,0xfffff
    1acc:	000014b7          	lui	s1,0x1
    1ad0:	06048713          	addi	a4,s1,96 # 1060 <interact_with_tile+0x4bc>
    1ad4:	00f70733          	add	a4,a4,a5
    1ad8:	01010793          	addi	a5,sp,16
    1adc:	00f707b3          	add	a5,a4,a5
    1ae0:	00f12623          	sw	a5,12(sp)
    1ae4:	00a00593          	li	a1,10
    1ae8:	06078513          	addi	a0,a5,96 # fffff060 <_stack_end+0xffef9d0c>
    1aec:	5c8010ef          	jal	30b4 <ct>
    1af0:	00900593          	li	a1,9
    1af4:	00c12783          	lw	a5,12(sp)
    1af8:	08878513          	addi	a0,a5,136
    1afc:	5b8010ef          	jal	30b4 <ct>
    1b00:	00800593          	li	a1,8
    1b04:	00c12783          	lw	a5,12(sp)
    1b08:	0b078513          	addi	a0,a5,176
    1b0c:	5a8010ef          	jal	30b4 <ct>
    1b10:	00800593          	li	a1,8
    1b14:	00c12783          	lw	a5,12(sp)
    1b18:	0d878513          	addi	a0,a5,216
    1b1c:	598010ef          	jal	30b4 <ct>
    1b20:	00800593          	li	a1,8
    1b24:	00c12783          	lw	a5,12(sp)
    1b28:	10078513          	addi	a0,a5,256
    1b2c:	588010ef          	jal	30b4 <ct>
    1b30:	00a00593          	li	a1,10
    1b34:	00c12783          	lw	a5,12(sp)
    1b38:	12878513          	addi	a0,a5,296
    1b3c:	578010ef          	jal	30b4 <ct>
    1b40:	00800593          	li	a1,8
    1b44:	00c12783          	lw	a5,12(sp)
    1b48:	15078513          	addi	a0,a5,336
    1b4c:	568010ef          	jal	30b4 <ct>
    1b50:	00800593          	li	a1,8
    1b54:	00c12783          	lw	a5,12(sp)
    1b58:	17878513          	addi	a0,a5,376
    1b5c:	558010ef          	jal	30b4 <ct>
    1b60:	00f00593          	li	a1,15
    1b64:	00c12783          	lw	a5,12(sp)
    1b68:	1a078513          	addi	a0,a5,416
    1b6c:	548010ef          	jal	30b4 <ct>
    1b70:	00a00593          	li	a1,10
    1b74:	00c12783          	lw	a5,12(sp)
    1b78:	1c878513          	addi	a0,a5,456
    1b7c:	538010ef          	jal	30b4 <ct>
    1b80:	00b00593          	li	a1,11
    1b84:	00c12783          	lw	a5,12(sp)
    1b88:	1f078513          	addi	a0,a5,496
    1b8c:	528010ef          	jal	30b4 <ct>
    1b90:	00800593          	li	a1,8
    1b94:	00c12783          	lw	a5,12(sp)
    1b98:	21878513          	addi	a0,a5,536
    1b9c:	518010ef          	jal	30b4 <ct>
    1ba0:	00800593          	li	a1,8
    1ba4:	00c12783          	lw	a5,12(sp)
    1ba8:	24078513          	addi	a0,a5,576
    1bac:	508010ef          	jal	30b4 <ct>
    1bb0:	00800593          	li	a1,8
    1bb4:	00c12783          	lw	a5,12(sp)
    1bb8:	26878513          	addi	a0,a5,616
    1bbc:	4f8010ef          	jal	30b4 <ct>
    1bc0:	00800593          	li	a1,8
    1bc4:	00c12783          	lw	a5,12(sp)
    1bc8:	29078513          	addi	a0,a5,656
    1bcc:	4e8010ef          	jal	30b4 <ct>
    1bd0:	00800593          	li	a1,8
    1bd4:	00c12783          	lw	a5,12(sp)
    1bd8:	2b878513          	addi	a0,a5,696
    1bdc:	4d8010ef          	jal	30b4 <ct>
    1be0:	00a00593          	li	a1,10
    1be4:	00c12783          	lw	a5,12(sp)
    1be8:	2e078513          	addi	a0,a5,736
    1bec:	4c8010ef          	jal	30b4 <ct>
    1bf0:	00800593          	li	a1,8
    1bf4:	00c12783          	lw	a5,12(sp)
    1bf8:	30878513          	addi	a0,a5,776
    1bfc:	4b8010ef          	jal	30b4 <ct>
    1c00:	00f00593          	li	a1,15
    1c04:	00c12783          	lw	a5,12(sp)
    1c08:	33078513          	addi	a0,a5,816
    1c0c:	4a8010ef          	jal	30b4 <ct>
    1c10:	00e00593          	li	a1,14
    1c14:	00c12783          	lw	a5,12(sp)
    1c18:	35878513          	addi	a0,a5,856
    1c1c:	498010ef          	jal	30b4 <ct>
    1c20:	01000593          	li	a1,16
    1c24:	00c12783          	lw	a5,12(sp)
    1c28:	38078513          	addi	a0,a5,896
    1c2c:	488010ef          	jal	30b4 <ct>
    1c30:	01000593          	li	a1,16
    1c34:	00c12783          	lw	a5,12(sp)
    1c38:	3a878513          	addi	a0,a5,936
    1c3c:	478010ef          	jal	30b4 <ct>
    1c40:	01000593          	li	a1,16
    1c44:	00c12783          	lw	a5,12(sp)
    1c48:	3d078513          	addi	a0,a5,976
    1c4c:	468010ef          	jal	30b4 <ct>
    1c50:	00800593          	li	a1,8
    1c54:	00c12783          	lw	a5,12(sp)
    1c58:	3f878513          	addi	a0,a5,1016
    1c5c:	458010ef          	jal	30b4 <ct>
    1c60:	00800593          	li	a1,8
    1c64:	00c12783          	lw	a5,12(sp)
    1c68:	42078513          	addi	a0,a5,1056
    1c6c:	448010ef          	jal	30b4 <ct>
    1c70:	00800593          	li	a1,8
    1c74:	00c12783          	lw	a5,12(sp)
    1c78:	44878513          	addi	a0,a5,1096
    1c7c:	438010ef          	jal	30b4 <ct>
    1c80:	00800593          	li	a1,8
    1c84:	00c12783          	lw	a5,12(sp)
    1c88:	47078513          	addi	a0,a5,1136
    1c8c:	428010ef          	jal	30b4 <ct>
    1c90:	00800593          	li	a1,8
    1c94:	00c12783          	lw	a5,12(sp)
    1c98:	49878513          	addi	a0,a5,1176
    1c9c:	418010ef          	jal	30b4 <ct>
    1ca0:	00f00593          	li	a1,15
    1ca4:	00c12783          	lw	a5,12(sp)
    1ca8:	4c078513          	addi	a0,a5,1216
    1cac:	408010ef          	jal	30b4 <ct>
    1cb0:	00e00593          	li	a1,14
    1cb4:	00c12783          	lw	a5,12(sp)
    1cb8:	4e878513          	addi	a0,a5,1256
    1cbc:	3f8010ef          	jal	30b4 <ct>
    1cc0:	00100593          	li	a1,1
    1cc4:	00c12783          	lw	a5,12(sp)
    1cc8:	51078513          	addi	a0,a5,1296
    1ccc:	3e8010ef          	jal	30b4 <ct>
    1cd0:	00200593          	li	a1,2
    1cd4:	00c12783          	lw	a5,12(sp)
    1cd8:	53878513          	addi	a0,a5,1336
    1cdc:	3d8010ef          	jal	30b4 <ct>
    1ce0:	01000593          	li	a1,16
    1ce4:	00c12783          	lw	a5,12(sp)
    1ce8:	56078513          	addi	a0,a5,1376
    1cec:	3c8010ef          	jal	30b4 <ct>
    1cf0:	00800593          	li	a1,8
    1cf4:	00c12783          	lw	a5,12(sp)
    1cf8:	58878513          	addi	a0,a5,1416
    1cfc:	3b8010ef          	jal	30b4 <ct>
    1d00:	00800593          	li	a1,8
    1d04:	00c12783          	lw	a5,12(sp)
    1d08:	5b078513          	addi	a0,a5,1456
    1d0c:	3a8010ef          	jal	30b4 <ct>
    1d10:	00800593          	li	a1,8
    1d14:	00c12783          	lw	a5,12(sp)
    1d18:	5d878513          	addi	a0,a5,1496
    1d1c:	398010ef          	jal	30b4 <ct>
    1d20:	00b00593          	li	a1,11
    1d24:	00c12783          	lw	a5,12(sp)
    1d28:	60078513          	addi	a0,a5,1536
    1d2c:	388010ef          	jal	30b4 <ct>
    1d30:	00a00593          	li	a1,10
    1d34:	00c12783          	lw	a5,12(sp)
    1d38:	62878513          	addi	a0,a5,1576
    1d3c:	378010ef          	jal	30b4 <ct>
    1d40:	00f00593          	li	a1,15
    1d44:	00c12783          	lw	a5,12(sp)
    1d48:	65078513          	addi	a0,a5,1616
    1d4c:	368010ef          	jal	30b4 <ct>
    1d50:	00800593          	li	a1,8
    1d54:	00c12783          	lw	a5,12(sp)
    1d58:	67878513          	addi	a0,a5,1656
    1d5c:	358010ef          	jal	30b4 <ct>
    1d60:	00300593          	li	a1,3
    1d64:	00c12783          	lw	a5,12(sp)
    1d68:	6a078513          	addi	a0,a5,1696
    1d6c:	348010ef          	jal	30b4 <ct>
    1d70:	00000593          	li	a1,0
    1d74:	00c12783          	lw	a5,12(sp)
    1d78:	6c878513          	addi	a0,a5,1736
    1d7c:	338010ef          	jal	30b4 <ct>
    1d80:	00600593          	li	a1,6
    1d84:	00c12783          	lw	a5,12(sp)
    1d88:	6f078513          	addi	a0,a5,1776
    1d8c:	328010ef          	jal	30b4 <ct>
    1d90:	00700593          	li	a1,7
    1d94:	00c12783          	lw	a5,12(sp)
    1d98:	71878513          	addi	a0,a5,1816
    1d9c:	318010ef          	jal	30b4 <ct>
    1da0:	00800593          	li	a1,8
    1da4:	00c12783          	lw	a5,12(sp)
    1da8:	74078513          	addi	a0,a5,1856
    1dac:	308010ef          	jal	30b4 <ct>
    1db0:	00800593          	li	a1,8
    1db4:	00c12783          	lw	a5,12(sp)
    1db8:	76878513          	addi	a0,a5,1896
    1dbc:	2f8010ef          	jal	30b4 <ct>
    1dc0:	00800593          	li	a1,8
    1dc4:	00c12783          	lw	a5,12(sp)
    1dc8:	79078513          	addi	a0,a5,1936
    1dcc:	2e8010ef          	jal	30b4 <ct>
    1dd0:	00800593          	li	a1,8
    1dd4:	00c12783          	lw	a5,12(sp)
    1dd8:	7b878513          	addi	a0,a5,1976
    1ddc:	2d8010ef          	jal	30b4 <ct>
    1de0:	00f00593          	li	a1,15
    1de4:	00c12783          	lw	a5,12(sp)
    1de8:	7e078513          	addi	a0,a5,2016
    1dec:	2c8010ef          	jal	30b4 <ct>
    1df0:	00900593          	li	a1,9
    1df4:	00048a13          	mv	s4,s1
    1df8:	87848793          	addi	a5,s1,-1928
    1dfc:	00278533          	add	a0,a5,sp
    1e00:	2b4010ef          	jal	30b4 <ct>
    1e04:	00400593          	li	a1,4
    1e08:	8a048793          	addi	a5,s1,-1888
    1e0c:	00278533          	add	a0,a5,sp
    1e10:	2a4010ef          	jal	30b4 <ct>
    1e14:	00500593          	li	a1,5
    1e18:	8c848793          	addi	a5,s1,-1848
    1e1c:	00278533          	add	a0,a5,sp
    1e20:	294010ef          	jal	30b4 <ct>
    1e24:	01000593          	li	a1,16
    1e28:	8f048793          	addi	a5,s1,-1808
    1e2c:	00278533          	add	a0,a5,sp
    1e30:	284010ef          	jal	30b4 <ct>
    1e34:	00800593          	li	a1,8
    1e38:	91848793          	addi	a5,s1,-1768
    1e3c:	00278533          	add	a0,a5,sp
    1e40:	274010ef          	jal	30b4 <ct>
    1e44:	00800593          	li	a1,8
    1e48:	94048793          	addi	a5,s1,-1728
    1e4c:	00278533          	add	a0,a5,sp
    1e50:	264010ef          	jal	30b4 <ct>
    1e54:	00900593          	li	a1,9
    1e58:	96848793          	addi	a5,s1,-1688
    1e5c:	00278533          	add	a0,a5,sp
    1e60:	254010ef          	jal	30b4 <ct>
    1e64:	00800593          	li	a1,8
    1e68:	99048793          	addi	a5,s1,-1648
    1e6c:	00278533          	add	a0,a5,sp
    1e70:	244010ef          	jal	30b4 <ct>
    1e74:	00800593          	li	a1,8
    1e78:	9b848793          	addi	a5,s1,-1608
    1e7c:	00278533          	add	a0,a5,sp
    1e80:	234010ef          	jal	30b4 <ct>
    1e84:	00f00593          	li	a1,15
    1e88:	9e048793          	addi	a5,s1,-1568
    1e8c:	00278533          	add	a0,a5,sp
    1e90:	224010ef          	jal	30b4 <ct>
    1e94:	00800593          	li	a1,8
    1e98:	a0848793          	addi	a5,s1,-1528
    1e9c:	00278533          	add	a0,a5,sp
    1ea0:	214010ef          	jal	30b4 <ct>
    1ea4:	01000593          	li	a1,16
    1ea8:	a3048793          	addi	a5,s1,-1488
    1eac:	00278533          	add	a0,a5,sp
    1eb0:	204010ef          	jal	30b4 <ct>
    1eb4:	01000593          	li	a1,16
    1eb8:	a5848793          	addi	a5,s1,-1448
    1ebc:	00278533          	add	a0,a5,sp
    1ec0:	1f4010ef          	jal	30b4 <ct>
    1ec4:	01000593          	li	a1,16
    1ec8:	a8048793          	addi	a5,s1,-1408
    1ecc:	00278533          	add	a0,a5,sp
    1ed0:	1e4010ef          	jal	30b4 <ct>
    1ed4:	00b00593          	li	a1,11
    1ed8:	aa848793          	addi	a5,s1,-1368
    1edc:	00278533          	add	a0,a5,sp
    1ee0:	1d4010ef          	jal	30b4 <ct>
    1ee4:	00800593          	li	a1,8
    1ee8:	ad048793          	addi	a5,s1,-1328
    1eec:	00278533          	add	a0,a5,sp
    1ef0:	1c4010ef          	jal	30b4 <ct>
    1ef4:	00800593          	li	a1,8
    1ef8:	af848793          	addi	a5,s1,-1288
    1efc:	00278533          	add	a0,a5,sp
    1f00:	1b4010ef          	jal	30b4 <ct>
    1f04:	00800593          	li	a1,8
    1f08:	b2048793          	addi	a5,s1,-1248
    1f0c:	00278533          	add	a0,a5,sp
    1f10:	1a4010ef          	jal	30b4 <ct>
    1f14:	00800593          	li	a1,8
    1f18:	b4848793          	addi	a5,s1,-1208
    1f1c:	00278533          	add	a0,a5,sp
    1f20:	194010ef          	jal	30b4 <ct>
    1f24:	00b00593          	li	a1,11
    1f28:	b7048793          	addi	a5,s1,-1168
    1f2c:	00278533          	add	a0,a5,sp
    1f30:	184010ef          	jal	30b4 <ct>
    1f34:	00800593          	li	a1,8
    1f38:	b9848793          	addi	a5,s1,-1128
    1f3c:	00278533          	add	a0,a5,sp
    1f40:	174010ef          	jal	30b4 <ct>
    1f44:	00800593          	li	a1,8
    1f48:	bc048793          	addi	a5,s1,-1088
    1f4c:	00278533          	add	a0,a5,sp
    1f50:	164010ef          	jal	30b4 <ct>
    1f54:	00800593          	li	a1,8
    1f58:	be848793          	addi	a5,s1,-1048
    1f5c:	00278533          	add	a0,a5,sp
    1f60:	154010ef          	jal	30b4 <ct>
    1f64:	00900593          	li	a1,9
    1f68:	c1048793          	addi	a5,s1,-1008
    1f6c:	00278533          	add	a0,a5,sp
    1f70:	144010ef          	jal	30b4 <ct>
    1f74:	00800593          	li	a1,8
    1f78:	c3848793          	addi	a5,s1,-968
    1f7c:	00278533          	add	a0,a5,sp
    1f80:	134010ef          	jal	30b4 <ct>
    1f84:	00800593          	li	a1,8
    1f88:	c6048793          	addi	a5,s1,-928
    1f8c:	00278533          	add	a0,a5,sp
    1f90:	124010ef          	jal	30b4 <ct>
    1f94:	00e00593          	li	a1,14
    1f98:	c8848793          	addi	a5,s1,-888
    1f9c:	00278533          	add	a0,a5,sp
    1fa0:	114010ef          	jal	30b4 <ct>
    1fa4:	00800593          	li	a1,8
    1fa8:	cb048793          	addi	a5,s1,-848
    1fac:	00278533          	add	a0,a5,sp
    1fb0:	104010ef          	jal	30b4 <ct>
    1fb4:	00800593          	li	a1,8
    1fb8:	cd848793          	addi	a5,s1,-808
    1fbc:	00278533          	add	a0,a5,sp
    1fc0:	0f4010ef          	jal	30b4 <ct>
    1fc4:	00f00593          	li	a1,15
    1fc8:	d0048793          	addi	a5,s1,-768
    1fcc:	00278533          	add	a0,a5,sp
    1fd0:	0e4010ef          	jal	30b4 <ct>
    1fd4:	00800593          	li	a1,8
    1fd8:	d2848793          	addi	a5,s1,-728
    1fdc:	00278533          	add	a0,a5,sp
    1fe0:	0d4010ef          	jal	30b4 <ct>
    1fe4:	00d00593          	li	a1,13
    1fe8:	d5048793          	addi	a5,s1,-688
    1fec:	00278533          	add	a0,a5,sp
    1ff0:	0c4010ef          	jal	30b4 <ct>
    1ff4:	00800593          	li	a1,8
    1ff8:	d7848793          	addi	a5,s1,-648
    1ffc:	00278533          	add	a0,a5,sp
    2000:	0b4010ef          	jal	30b4 <ct>
    2004:	00800593          	li	a1,8
    2008:	da048793          	addi	a5,s1,-608
    200c:	00278533          	add	a0,a5,sp
    2010:	0a4010ef          	jal	30b4 <ct>
    2014:	00f00593          	li	a1,15
    2018:	dc848793          	addi	a5,s1,-568
    201c:	00278533          	add	a0,a5,sp
    2020:	094010ef          	jal	30b4 <ct>
    2024:	00f00593          	li	a1,15
    2028:	df048793          	addi	a5,s1,-528
    202c:	00278533          	add	a0,a5,sp
    2030:	084010ef          	jal	30b4 <ct>
    2034:	00800593          	li	a1,8
    2038:	e1848793          	addi	a5,s1,-488
    203c:	00278533          	add	a0,a5,sp
    2040:	074010ef          	jal	30b4 <ct>
    2044:	00f00593          	li	a1,15
    2048:	e4048793          	addi	a5,s1,-448
    204c:	00278533          	add	a0,a5,sp
    2050:	064010ef          	jal	30b4 <ct>
    2054:	00f00593          	li	a1,15
    2058:	e6848793          	addi	a5,s1,-408
    205c:	00278533          	add	a0,a5,sp
    2060:	054010ef          	jal	30b4 <ct>
    2064:	00f00593          	li	a1,15
    2068:	e9048793          	addi	a5,s1,-368
    206c:	00278533          	add	a0,a5,sp
    2070:	044010ef          	jal	30b4 <ct>
    2074:	00a00593          	li	a1,10
    2078:	eb848793          	addi	a5,s1,-328
    207c:	00278533          	add	a0,a5,sp
    2080:	034010ef          	jal	30b4 <ct>
    2084:	00c00593          	li	a1,12
    2088:	ee048793          	addi	a5,s1,-288
    208c:	00278533          	add	a0,a5,sp
    2090:	024010ef          	jal	30b4 <ct>
    2094:	00800593          	li	a1,8
    2098:	f0848793          	addi	a5,s1,-248
    209c:	00278533          	add	a0,a5,sp
    20a0:	014010ef          	jal	30b4 <ct>
    20a4:	00800593          	li	a1,8
    20a8:	f3048793          	addi	a5,s1,-208
    20ac:	00278533          	add	a0,a5,sp
    20b0:	004010ef          	jal	30b4 <ct>
    20b4:	00f00593          	li	a1,15
    20b8:	f5848793          	addi	a5,s1,-168
    20bc:	00278533          	add	a0,a5,sp
    20c0:	7f5000ef          	jal	30b4 <ct>
    20c4:	00a00593          	li	a1,10
    20c8:	f8048793          	addi	a5,s1,-128
    20cc:	00278533          	add	a0,a5,sp
    20d0:	7e5000ef          	jal	30b4 <ct>
    20d4:	00800593          	li	a1,8
    20d8:	fa848793          	addi	a5,s1,-88
    20dc:	00278533          	add	a0,a5,sp
    20e0:	7d5000ef          	jal	30b4 <ct>
    20e4:	00800593          	li	a1,8
    20e8:	fd048793          	addi	a5,s1,-48
    20ec:	00278533          	add	a0,a5,sp
    20f0:	7c5000ef          	jal	30b4 <ct>
    20f4:	00e00593          	li	a1,14
    20f8:	ff848793          	addi	a5,s1,-8
    20fc:	00278533          	add	a0,a5,sp
    2100:	7b5000ef          	jal	30b4 <ct>
    2104:	00f00593          	li	a1,15
    2108:	02048793          	addi	a5,s1,32
    210c:	00278533          	add	a0,a5,sp
    2110:	7a5000ef          	jal	30b4 <ct>
    2114:	00a00593          	li	a1,10
    2118:	04848793          	addi	a5,s1,72
    211c:	00278533          	add	a0,a5,sp
    2120:	795000ef          	jal	30b4 <ct>
    2124:	00004537          	lui	a0,0x4
    2128:	3dc50513          	addi	a0,a0,988 # 43dc <__global_pointer+0x4c4>
    212c:	228010ef          	jal	3354 <print>
    2130:	00c12783          	lw	a5,12(sp)
    2134:	03478513          	addi	a0,a5,52
    2138:	a40fe0ef          	jal	378 <create_player>
    213c:	3d440513          	addi	a0,s0,980
    2140:	214010ef          	jal	3354 <print>
    2144:	00c12783          	lw	a5,12(sp)
    2148:	0347a703          	lw	a4,52(a5)
    214c:	0387af03          	lw	t5,56(a5)
    2150:	00271793          	slli	a5,a4,0x2
    2154:	00e787b3          	add	a5,a5,a4
    2158:	00379793          	slli	a5,a5,0x3
    215c:	19000693          	li	a3,400
    2160:	02df06b3          	mul	a3,t5,a3
    2164:	00d787b3          	add	a5,a5,a3
    2168:	00c12683          	lw	a3,12(sp)
    216c:	00f687b3          	add	a5,a3,a5
    2170:	0607ae83          	lw	t4,96(a5)
    2174:	0647ae03          	lw	t3,100(a5)
    2178:	0687a303          	lw	t1,104(a5)
    217c:	06c7a883          	lw	a7,108(a5)
    2180:	0707a803          	lw	a6,112(a5)
    2184:	0747a503          	lw	a0,116(a5)
    2188:	0787a583          	lw	a1,120(a5)
    218c:	07c7a603          	lw	a2,124(a5)
    2190:	0807a683          	lw	a3,128(a5)
    2194:	0847a783          	lw	a5,132(a5)
    2198:	00c12f83          	lw	t6,12(sp)
    219c:	01dfa623          	sw	t4,12(t6)
    21a0:	01cfa823          	sw	t3,16(t6)
    21a4:	006faa23          	sw	t1,20(t6)
    21a8:	011fac23          	sw	a7,24(t6)
    21ac:	010fae23          	sw	a6,28(t6)
    21b0:	02afa023          	sw	a0,32(t6)
    21b4:	02bfa223          	sw	a1,36(t6)
    21b8:	02cfa423          	sw	a2,40(t6)
    21bc:	02dfa623          	sw	a3,44(t6)
    21c0:	02ffa823          	sw	a5,48(t6)
    21c4:	03cfa083          	lw	ra,60(t6)
    21c8:	040faa83          	lw	s5,64(t6)
    21cc:	044fa983          	lw	s3,68(t6)
    21d0:	048fa903          	lw	s2,72(t6)
    21d4:	04cfa483          	lw	s1,76(t6)
    21d8:	050fa403          	lw	s0,80(t6)
    21dc:	054fa383          	lw	t2,84(t6)
    21e0:	058fa283          	lw	t0,88(t6)
    21e4:	05cfaf83          	lw	t6,92(t6)
    21e8:	00c12b03          	lw	s6,12(sp)
    21ec:	fceb2823          	sw	a4,-48(s6)
    21f0:	00c12703          	lw	a4,12(sp)
    21f4:	fde72a23          	sw	t5,-44(a4)
    21f8:	00c12703          	lw	a4,12(sp)
    21fc:	fc172c23          	sw	ra,-40(a4)
    2200:	00c12703          	lw	a4,12(sp)
    2204:	fd572e23          	sw	s5,-36(a4)
    2208:	00c12703          	lw	a4,12(sp)
    220c:	ff372023          	sw	s3,-32(a4)
    2210:	00c12703          	lw	a4,12(sp)
    2214:	ff272223          	sw	s2,-28(a4)
    2218:	00c12703          	lw	a4,12(sp)
    221c:	fe972423          	sw	s1,-24(a4)
    2220:	00c12703          	lw	a4,12(sp)
    2224:	fe872623          	sw	s0,-20(a4)
    2228:	00c12703          	lw	a4,12(sp)
    222c:	fe772823          	sw	t2,-16(a4)
    2230:	00c12703          	lw	a4,12(sp)
    2234:	fe572a23          	sw	t0,-12(a4)
    2238:	00c12703          	lw	a4,12(sp)
    223c:	fff72c23          	sw	t6,-8(a4)
    2240:	00c12703          	lw	a4,12(sp)
    2244:	fbd72023          	sw	t4,-96(a4)
    2248:	00c12703          	lw	a4,12(sp)
    224c:	fbc72223          	sw	t3,-92(a4)
    2250:	00c12703          	lw	a4,12(sp)
    2254:	fa672423          	sw	t1,-88(a4)
    2258:	00c12703          	lw	a4,12(sp)
    225c:	fb172623          	sw	a7,-84(a4)
    2260:	00c12703          	lw	a4,12(sp)
    2264:	fb072823          	sw	a6,-80(a4)
    2268:	00c12703          	lw	a4,12(sp)
    226c:	faa72a23          	sw	a0,-76(a4)
    2270:	00c12703          	lw	a4,12(sp)
    2274:	fab72c23          	sw	a1,-72(a4)
    2278:	00c12703          	lw	a4,12(sp)
    227c:	fac72e23          	sw	a2,-68(a4)
    2280:	00c12703          	lw	a4,12(sp)
    2284:	fcd72023          	sw	a3,-64(a4)
    2288:	00c12703          	lw	a4,12(sp)
    228c:	fcf72223          	sw	a5,-60(a4)
    2290:	fffff637          	lui	a2,0xfffff
    2294:	06060613          	addi	a2,a2,96 # fffff060 <_stack_end+0xffef9d0c>
    2298:	fffff5b7          	lui	a1,0xfffff
    229c:	fa058593          	addi	a1,a1,-96 # ffffefa0 <_stack_end+0xffef9c4c>
    22a0:	fffff537          	lui	a0,0xfffff
    22a4:	fd050513          	addi	a0,a0,-48 # ffffefd0 <_stack_end+0xffef9c7c>
    22a8:	060a0793          	addi	a5,s4,96
    22ac:	00c787b3          	add	a5,a5,a2
    22b0:	01010713          	addi	a4,sp,16
    22b4:	00e78633          	add	a2,a5,a4
    22b8:	060a0793          	addi	a5,s4,96
    22bc:	00b787b3          	add	a5,a5,a1
    22c0:	00e785b3          	add	a1,a5,a4
    22c4:	060a0793          	addi	a5,s4,96
    22c8:	00a787b3          	add	a5,a5,a0
    22cc:	00e78533          	add	a0,a5,a4
    22d0:	d0cfe0ef          	jal	7dc <display_frame>
    22d4:	000037b7          	lui	a5,0x3
    22d8:	7187a783          	lw	a5,1816(a5) # 3718 <game_running>
    22dc:	36078463          	beqz	a5,2644 <start_game+0xbc4>
    22e0:	fffff937          	lui	s2,0xfffff
    22e4:	06090913          	addi	s2,s2,96 # fffff060 <_stack_end+0xffef9d0c>
    22e8:	060a0793          	addi	a5,s4,96
    22ec:	012787b3          	add	a5,a5,s2
    22f0:	01010713          	addi	a4,sp,16
    22f4:	00e78933          	add	s2,a5,a4
    22f8:	fffff9b7          	lui	s3,0xfffff
    22fc:	03498993          	addi	s3,s3,52 # fffff034 <_stack_end+0xffef9ce0>
    2300:	060a0793          	addi	a5,s4,96
    2304:	013787b3          	add	a5,a5,s3
    2308:	00e789b3          	add	s3,a5,a4
    230c:	fffff437          	lui	s0,0xfffff
    2310:	060a0793          	addi	a5,s4,96
    2314:	008787b3          	add	a5,a5,s0
    2318:	00e78433          	add	s0,a5,a4
    231c:	fffff4b7          	lui	s1,0xfffff
    2320:	fa048493          	addi	s1,s1,-96 # ffffefa0 <_stack_end+0xffef9c4c>
    2324:	060a0793          	addi	a5,s4,96
    2328:	009787b3          	add	a5,a5,s1
    232c:	00e784b3          	add	s1,a5,a4
    2330:	26c0006f          	j	259c <start_game+0xb1c>
    2334:	000037b7          	lui	a5,0x3
    2338:	7407a023          	sw	zero,1856(a5) # 3740 <switch_event>
    233c:	348000ef          	jal	2684 <get_sw>
    2340:	00090613          	mv	a2,s2
    2344:	00098593          	mv	a1,s3
    2348:	d28ff0ef          	jal	1870 <handle_input>
    234c:	03442703          	lw	a4,52(s0) # fffff034 <_stack_end+0xffef9ce0>
    2350:	03842f03          	lw	t5,56(s0)
    2354:	00271793          	slli	a5,a4,0x2
    2358:	00e787b3          	add	a5,a5,a4
    235c:	00379793          	slli	a5,a5,0x3
    2360:	19000693          	li	a3,400
    2364:	02df06b3          	mul	a3,t5,a3
    2368:	00d787b3          	add	a5,a5,a3
    236c:	00f407b3          	add	a5,s0,a5
    2370:	0607ae83          	lw	t4,96(a5)
    2374:	0647ae03          	lw	t3,100(a5)
    2378:	0687a303          	lw	t1,104(a5)
    237c:	06c7a883          	lw	a7,108(a5)
    2380:	0707a803          	lw	a6,112(a5)
    2384:	0747a503          	lw	a0,116(a5)
    2388:	0787a583          	lw	a1,120(a5)
    238c:	07c7a603          	lw	a2,124(a5)
    2390:	0807a683          	lw	a3,128(a5)
    2394:	0847a783          	lw	a5,132(a5)
    2398:	01d42623          	sw	t4,12(s0)
    239c:	01c42823          	sw	t3,16(s0)
    23a0:	00642a23          	sw	t1,20(s0)
    23a4:	01142c23          	sw	a7,24(s0)
    23a8:	01042e23          	sw	a6,28(s0)
    23ac:	02a42023          	sw	a0,32(s0)
    23b0:	02b42223          	sw	a1,36(s0)
    23b4:	02c42423          	sw	a2,40(s0)
    23b8:	02d42623          	sw	a3,44(s0)
    23bc:	02f42823          	sw	a5,48(s0)
    23c0:	05442383          	lw	t2,84(s0)
    23c4:	05842283          	lw	t0,88(s0)
    23c8:	05c42f83          	lw	t6,92(s0)
    23cc:	fae42023          	sw	a4,-96(s0)
    23d0:	fbe42223          	sw	t5,-92(s0)
    23d4:	03c42703          	lw	a4,60(s0)
    23d8:	fae42423          	sw	a4,-88(s0)
    23dc:	04042703          	lw	a4,64(s0)
    23e0:	fae42623          	sw	a4,-84(s0)
    23e4:	04442703          	lw	a4,68(s0)
    23e8:	fae42823          	sw	a4,-80(s0)
    23ec:	04842703          	lw	a4,72(s0)
    23f0:	fae42a23          	sw	a4,-76(s0)
    23f4:	04c42703          	lw	a4,76(s0)
    23f8:	fae42c23          	sw	a4,-72(s0)
    23fc:	05042703          	lw	a4,80(s0)
    2400:	fae42e23          	sw	a4,-68(s0)
    2404:	fc742023          	sw	t2,-64(s0)
    2408:	fc542223          	sw	t0,-60(s0)
    240c:	fdf42423          	sw	t6,-56(s0)
    2410:	fdd42823          	sw	t4,-48(s0)
    2414:	fdc42a23          	sw	t3,-44(s0)
    2418:	fc642c23          	sw	t1,-40(s0)
    241c:	fd142e23          	sw	a7,-36(s0)
    2420:	ff042023          	sw	a6,-32(s0)
    2424:	fea42223          	sw	a0,-28(s0)
    2428:	feb42423          	sw	a1,-24(s0)
    242c:	fec42623          	sw	a2,-20(s0)
    2430:	fed42823          	sw	a3,-16(s0)
    2434:	fef42a23          	sw	a5,-12(s0)
    2438:	fffff5b7          	lui	a1,0xfffff
    243c:	fd058593          	addi	a1,a1,-48 # ffffefd0 <_stack_end+0xffef9c7c>
    2440:	00090613          	mv	a2,s2
    2444:	000017b7          	lui	a5,0x1
    2448:	06078793          	addi	a5,a5,96 # 1060 <interact_with_tile+0x4bc>
    244c:	00b787b3          	add	a5,a5,a1
    2450:	01010713          	addi	a4,sp,16
    2454:	00e785b3          	add	a1,a5,a4
    2458:	00048513          	mv	a0,s1
    245c:	b80fe0ef          	jal	7dc <display_frame>
    2460:	1480006f          	j	25a8 <start_game+0xb28>
    2464:	000037b7          	lui	a5,0x3
    2468:	7207ae23          	sw	zero,1852(a5) # 373c <timer_event>
    246c:	00c42e03          	lw	t3,12(s0)
    2470:	01042303          	lw	t1,16(s0)
    2474:	01442883          	lw	a7,20(s0)
    2478:	01842803          	lw	a6,24(s0)
    247c:	01c42503          	lw	a0,28(s0)
    2480:	02042583          	lw	a1,32(s0)
    2484:	02442603          	lw	a2,36(s0)
    2488:	02842683          	lw	a3,40(s0)
    248c:	02c42703          	lw	a4,44(s0)
    2490:	03042783          	lw	a5,48(s0)
    2494:	fbc42023          	sw	t3,-96(s0)
    2498:	fa642223          	sw	t1,-92(s0)
    249c:	fb142423          	sw	a7,-88(s0)
    24a0:	fb042623          	sw	a6,-84(s0)
    24a4:	faa42823          	sw	a0,-80(s0)
    24a8:	fab42a23          	sw	a1,-76(s0)
    24ac:	fac42c23          	sw	a2,-72(s0)
    24b0:	fad42e23          	sw	a3,-68(s0)
    24b4:	fce42023          	sw	a4,-64(s0)
    24b8:	fcf42223          	sw	a5,-60(s0)
    24bc:	00048593          	mv	a1,s1
    24c0:	00098513          	mv	a0,s3
    24c4:	ffdfd0ef          	jal	4c0 <drop_stats>
    24c8:	03442e83          	lw	t4,52(s0)
    24cc:	03842e03          	lw	t3,56(s0)
    24d0:	03c42303          	lw	t1,60(s0)
    24d4:	04042883          	lw	a7,64(s0)
    24d8:	04442803          	lw	a6,68(s0)
    24dc:	04842503          	lw	a0,72(s0)
    24e0:	04c42583          	lw	a1,76(s0)
    24e4:	05042603          	lw	a2,80(s0)
    24e8:	05442683          	lw	a3,84(s0)
    24ec:	05842703          	lw	a4,88(s0)
    24f0:	05c42783          	lw	a5,92(s0)
    24f4:	fbd42023          	sw	t4,-96(s0)
    24f8:	fbc42223          	sw	t3,-92(s0)
    24fc:	fa642423          	sw	t1,-88(s0)
    2500:	fb142623          	sw	a7,-84(s0)
    2504:	fb042823          	sw	a6,-80(s0)
    2508:	faa42a23          	sw	a0,-76(s0)
    250c:	fab42c23          	sw	a1,-72(s0)
    2510:	fac42e23          	sw	a2,-68(s0)
    2514:	fcd42023          	sw	a3,-64(s0)
    2518:	fce42223          	sw	a4,-60(s0)
    251c:	fcf42423          	sw	a5,-56(s0)
    2520:	00048513          	mv	a0,s1
    2524:	89cfe0ef          	jal	5c0 <update_display>
    2528:	08c0006f          	j	25b4 <start_game+0xb34>
    252c:	03442e83          	lw	t4,52(s0)
    2530:	03842e03          	lw	t3,56(s0)
    2534:	03c42303          	lw	t1,60(s0)
    2538:	04042883          	lw	a7,64(s0)
    253c:	04442803          	lw	a6,68(s0)
    2540:	04842503          	lw	a0,72(s0)
    2544:	04c42583          	lw	a1,76(s0)
    2548:	05042603          	lw	a2,80(s0)
    254c:	05442683          	lw	a3,84(s0)
    2550:	05842703          	lw	a4,88(s0)
    2554:	05c42783          	lw	a5,92(s0)
    2558:	fbd42023          	sw	t4,-96(s0)
    255c:	fbc42223          	sw	t3,-92(s0)
    2560:	fa642423          	sw	t1,-88(s0)
    2564:	fb142623          	sw	a7,-84(s0)
    2568:	fb042823          	sw	a6,-80(s0)
    256c:	faa42a23          	sw	a0,-76(s0)
    2570:	fab42c23          	sw	a1,-72(s0)
    2574:	fac42e23          	sw	a2,-68(s0)
    2578:	fcd42023          	sw	a3,-64(s0)
    257c:	fce42223          	sw	a4,-60(s0)
    2580:	fcf42423          	sw	a5,-56(s0)
    2584:	00090593          	mv	a1,s2
    2588:	00048513          	mv	a0,s1
    258c:	978fe0ef          	jal	704 <update_status>
    2590:	000037b7          	lui	a5,0x3
    2594:	7187a783          	lw	a5,1816(a5) # 3718 <game_running>
    2598:	0a078663          	beqz	a5,2644 <start_game+0xbc4>
    259c:	000037b7          	lui	a5,0x3
    25a0:	7407a783          	lw	a5,1856(a5) # 3740 <switch_event>
    25a4:	d80798e3          	bnez	a5,2334 <start_game+0x8b4>
    25a8:	000037b7          	lui	a5,0x3
    25ac:	73c7a783          	lw	a5,1852(a5) # 373c <timer_event>
    25b0:	ea079ae3          	bnez	a5,2464 <start_game+0x9e4>
    25b4:	000037b7          	lui	a5,0x3
    25b8:	7387a783          	lw	a5,1848(a5) # 3738 <button_event>
    25bc:	f60788e3          	beqz	a5,252c <start_game+0xaac>
    25c0:	03442e83          	lw	t4,52(s0)
    25c4:	03842e03          	lw	t3,56(s0)
    25c8:	03c42303          	lw	t1,60(s0)
    25cc:	04042883          	lw	a7,64(s0)
    25d0:	04442803          	lw	a6,68(s0)
    25d4:	04842503          	lw	a0,72(s0)
    25d8:	04c42583          	lw	a1,76(s0)
    25dc:	05042603          	lw	a2,80(s0)
    25e0:	05442683          	lw	a3,84(s0)
    25e4:	05842703          	lw	a4,88(s0)
    25e8:	05c42783          	lw	a5,92(s0)
    25ec:	fbd42023          	sw	t4,-96(s0)
    25f0:	fbc42223          	sw	t3,-92(s0)
    25f4:	fa642423          	sw	t1,-88(s0)
    25f8:	fb142623          	sw	a7,-84(s0)
    25fc:	fb042823          	sw	a6,-80(s0)
    2600:	faa42a23          	sw	a0,-76(s0)
    2604:	fab42c23          	sw	a1,-72(s0)
    2608:	fac42e23          	sw	a2,-68(s0)
    260c:	fcd42023          	sw	a3,-64(s0)
    2610:	fce42223          	sw	a4,-60(s0)
    2614:	fcf42423          	sw	a5,-56(s0)
    2618:	00048513          	mv	a0,s1
    261c:	fa5fd0ef          	jal	5c0 <update_display>
    2620:	00003737          	lui	a4,0x3
    2624:	73072783          	lw	a5,1840(a4) # 3730 <current_display>
    2628:	00178793          	addi	a5,a5,1
    262c:	00300693          	li	a3,3
    2630:	02d7e7b3          	rem	a5,a5,a3
    2634:	72f72823          	sw	a5,1840(a4)
    2638:	000037b7          	lui	a5,0x3
    263c:	7207ac23          	sw	zero,1848(a5) # 3738 <button_event>
    2640:	eedff06f          	j	252c <start_game+0xaac>
    2644:	000012b7          	lui	t0,0x1
    2648:	00510133          	add	sp,sp,t0
    264c:	08c12083          	lw	ra,140(sp)
    2650:	08812403          	lw	s0,136(sp)
    2654:	08412483          	lw	s1,132(sp)
    2658:	08012903          	lw	s2,128(sp)
    265c:	07c12983          	lw	s3,124(sp)
    2660:	07812a03          	lw	s4,120(sp)
    2664:	07412a83          	lw	s5,116(sp)
    2668:	07012b03          	lw	s6,112(sp)
    266c:	09010113          	addi	sp,sp,144
    2670:	00008067          	ret

00002674 <get_btn>:
    2674:	040007b7          	lui	a5,0x4000
    2678:	0d07a503          	lw	a0,208(a5) # 40000d0 <_stack_end+0x3efad7c>
    267c:	00157513          	andi	a0,a0,1
    2680:	00008067          	ret

00002684 <get_sw>:
    2684:	040007b7          	lui	a5,0x4000
    2688:	0107a503          	lw	a0,16(a5) # 4000010 <_stack_end+0x3efacbc>
    268c:	3ff57513          	andi	a0,a0,1023
    2690:	00008067          	ret

00002694 <set_displays>:
    2694:	fe010113          	addi	sp,sp,-32
    2698:	00112e23          	sw	ra,28(sp)
    269c:	00500793          	li	a5,5
    26a0:	02a7e663          	bltu	a5,a0,26cc <set_displays+0x38>
    26a4:	00451513          	slli	a0,a0,0x4
    26a8:	00a12623          	sw	a0,12(sp)
    26ac:	06400793          	li	a5,100
    26b0:	02b7e663          	bltu	a5,a1,26dc <set_displays+0x48>
    26b4:	00259593          	slli	a1,a1,0x2
    26b8:	000047b7          	lui	a5,0x4
    26bc:	80878793          	addi	a5,a5,-2040 # 3808 <timeoutcount+0xc4>
    26c0:	00f585b3          	add	a1,a1,a5
    26c4:	0005a783          	lw	a5,0(a1)
    26c8:	00078067          	jr	a5
    26cc:	00005537          	lui	a0,0x5
    26d0:	d0850513          	addi	a0,a0,-760 # 4d08 <__global_pointer+0xdf0>
    26d4:	481000ef          	jal	3354 <print>
    26d8:	01c0006f          	j	26f4 <set_displays+0x60>
    26dc:	04000693          	li	a3,64
    26e0:	00c12783          	lw	a5,12(sp)
    26e4:	04000737          	lui	a4,0x4000
    26e8:	05070713          	addi	a4,a4,80 # 4000050 <_stack_end+0x3efacfc>
    26ec:	00e787b3          	add	a5,a5,a4
    26f0:	00d7a023          	sw	a3,0(a5)
    26f4:	01c12083          	lw	ra,28(sp)
    26f8:	02010113          	addi	sp,sp,32
    26fc:	00008067          	ret
    2700:	02400693          	li	a3,36
    2704:	fddff06f          	j	26e0 <set_displays+0x4c>
    2708:	03000693          	li	a3,48
    270c:	fd5ff06f          	j	26e0 <set_displays+0x4c>
    2710:	01900693          	li	a3,25
    2714:	fcdff06f          	j	26e0 <set_displays+0x4c>
    2718:	01200693          	li	a3,18
    271c:	fc5ff06f          	j	26e0 <set_displays+0x4c>
    2720:	00200693          	li	a3,2
    2724:	fbdff06f          	j	26e0 <set_displays+0x4c>
    2728:	07800693          	li	a3,120
    272c:	fb5ff06f          	j	26e0 <set_displays+0x4c>
    2730:	00000693          	li	a3,0
    2734:	fadff06f          	j	26e0 <set_displays+0x4c>
    2738:	01800693          	li	a3,24
    273c:	fa5ff06f          	j	26e0 <set_displays+0x4c>
    2740:	00e00693          	li	a3,14
    2744:	f9dff06f          	j	26e0 <set_displays+0x4c>
    2748:	02300693          	li	a3,35
    274c:	f95ff06f          	j	26e0 <set_displays+0x4c>
    2750:	02100693          	li	a3,33
    2754:	f8dff06f          	j	26e0 <set_displays+0x4c>
    2758:	00900693          	li	a3,9
    275c:	f85ff06f          	j	26e0 <set_displays+0x4c>
    2760:	07f00693          	li	a3,127
    2764:	f7dff06f          	j	26e0 <set_displays+0x4c>
    2768:	07900693          	li	a3,121
    276c:	f75ff06f          	j	26e0 <set_displays+0x4c>

00002770 <set_leds>:
    2770:	000037b7          	lui	a5,0x3
    2774:	72c7a783          	lw	a5,1836(a5) # 372c <led_start>
    2778:	00a7a023          	sw	a0,0(a5)
    277c:	00008067          	ret

00002780 <get_leds>:
    2780:	000037b7          	lui	a5,0x3
    2784:	72c7a783          	lw	a5,1836(a5) # 372c <led_start>
    2788:	0007a503          	lw	a0,0(a5)
    278c:	3ff57513          	andi	a0,a0,1023
    2790:	00008067          	ret

00002794 <labinit>:
    2794:	ff010113          	addi	sp,sp,-16
    2798:	00112623          	sw	ra,12(sp)
    279c:	000037b7          	lui	a5,0x3
    27a0:	7207a783          	lw	a5,1824(a5) # 3720 <timer_periodl>
    27a4:	6c000713          	li	a4,1728
    27a8:	00e7a023          	sw	a4,0(a5)
    27ac:	000037b7          	lui	a5,0x3
    27b0:	71c7a783          	lw	a5,1820(a5) # 371c <timer_periodh>
    27b4:	02d00713          	li	a4,45
    27b8:	00e7a023          	sw	a4,0(a5)
    27bc:	000037b7          	lui	a5,0x3
    27c0:	7247a783          	lw	a5,1828(a5) # 3724 <timer_control>
    27c4:	00700713          	li	a4,7
    27c8:	00e7a023          	sw	a4,0(a5)
    27cc:	040007b7          	lui	a5,0x4000
    27d0:	00100713          	li	a4,1
    27d4:	0ce7ac23          	sw	a4,216(a5) # 40000d8 <_stack_end+0x3efad84>
    27d8:	040007b7          	lui	a5,0x4000
    27dc:	3ff00713          	li	a4,1023
    27e0:	00e7ac23          	sw	a4,24(a5) # 4000018 <_stack_end+0x3efacc4>
    27e4:	98dfd0ef          	jal	170 <enable_interrupt>
    27e8:	00c12083          	lw	ra,12(sp)
    27ec:	01010113          	addi	sp,sp,16
    27f0:	00008067          	ret

000027f4 <handle_interrupt>:
    27f4:	01000793          	li	a5,16
    27f8:	02f50263          	beq	a0,a5,281c <handle_interrupt+0x28>
    27fc:	01100793          	li	a5,17
    2800:	06f51263          	bne	a0,a5,2864 <handle_interrupt+0x70>
    2804:	040007b7          	lui	a5,0x4000
    2808:	0007ae23          	sw	zero,28(a5) # 400001c <_stack_end+0x3efacc8>
    280c:	000037b7          	lui	a5,0x3
    2810:	00100713          	li	a4,1
    2814:	74e7a023          	sw	a4,1856(a5) # 3740 <switch_event>
    2818:	00008067          	ret
    281c:	000037b7          	lui	a5,0x3
    2820:	7287a703          	lw	a4,1832(a5) # 3728 <timer_status>
    2824:	00072783          	lw	a5,0(a4)
    2828:	ffe7f793          	andi	a5,a5,-2
    282c:	00f72023          	sw	a5,0(a4)
    2830:	000037b7          	lui	a5,0x3
    2834:	7447a703          	lw	a4,1860(a5) # 3744 <timeoutcount>
    2838:	00170713          	addi	a4,a4,1
    283c:	74e7a223          	sw	a4,1860(a5)
    2840:	7447a703          	lw	a4,1860(a5)
    2844:	00900793          	li	a5,9
    2848:	04e7de63          	bge	a5,a4,28a4 <handle_interrupt+0xb0>
    284c:	000037b7          	lui	a5,0x3
    2850:	7407a223          	sw	zero,1860(a5) # 3744 <timeoutcount>
    2854:	000037b7          	lui	a5,0x3
    2858:	00100713          	li	a4,1
    285c:	72e7ae23          	sw	a4,1852(a5) # 373c <timer_event>
    2860:	00008067          	ret
    2864:	01200793          	li	a5,18
    2868:	02f51e63          	bne	a0,a5,28a4 <handle_interrupt+0xb0>
    286c:	040007b7          	lui	a5,0x4000
    2870:	0c07ae23          	sw	zero,220(a5) # 40000dc <_stack_end+0x3efad88>
    2874:	000037b7          	lui	a5,0x3
    2878:	7347a783          	lw	a5,1844(a5) # 3734 <button_toggle>
    287c:	00078e63          	beqz	a5,2898 <handle_interrupt+0xa4>
    2880:	000037b7          	lui	a5,0x3
    2884:	00100713          	li	a4,1
    2888:	72e7ac23          	sw	a4,1848(a5) # 3738 <button_event>
    288c:	000037b7          	lui	a5,0x3
    2890:	7207aa23          	sw	zero,1844(a5) # 3734 <button_toggle>
    2894:	00008067          	ret
    2898:	000037b7          	lui	a5,0x3
    289c:	00100713          	li	a4,1
    28a0:	72e7aa23          	sw	a4,1844(a5) # 3734 <button_toggle>
    28a4:	00008067          	ret

000028a8 <add_to_inventory>:
    28a8:	ef010113          	addi	sp,sp,-272
    28ac:	10112623          	sw	ra,268(sp)
    28b0:	10812423          	sw	s0,264(sp)
    28b4:	00058413          	mv	s0,a1
    28b8:	00010023          	sb	zero,0(sp)
    28bc:	01050713          	addi	a4,a0,16
    28c0:	00000793          	li	a5,0
    28c4:	00600613          	li	a2,6
    28c8:	00072683          	lw	a3,0(a4)
    28cc:	02068663          	beqz	a3,28f8 <add_to_inventory+0x50>
    28d0:	00178793          	addi	a5,a5,1
    28d4:	00470713          	addi	a4,a4,4
    28d8:	fec798e3          	bne	a5,a2,28c8 <add_to_inventory+0x20>
    28dc:	00005537          	lui	a0,0x5
    28e0:	d4c50513          	addi	a0,a0,-692 # 4d4c <__global_pointer+0xe34>
    28e4:	271000ef          	jal	3354 <print>
    28e8:	10c12083          	lw	ra,268(sp)
    28ec:	10812403          	lw	s0,264(sp)
    28f0:	11010113          	addi	sp,sp,272
    28f4:	00008067          	ret
    28f8:	00478793          	addi	a5,a5,4
    28fc:	00279793          	slli	a5,a5,0x2
    2900:	00f50533          	add	a0,a0,a5
    2904:	00852023          	sw	s0,0(a0)
    2908:	000055b7          	lui	a1,0x5
    290c:	d2058593          	addi	a1,a1,-736 # 4d20 <__global_pointer+0xe08>
    2910:	00010513          	mv	a0,sp
    2914:	b49fd0ef          	jal	45c <append_str>
    2918:	000037b7          	lui	a5,0x3
    291c:	00241593          	slli	a1,s0,0x2
    2920:	64c78793          	addi	a5,a5,1612 # 364c <COLLECTIBLE_NAMES>
    2924:	00b787b3          	add	a5,a5,a1
    2928:	0007a583          	lw	a1,0(a5)
    292c:	00010513          	mv	a0,sp
    2930:	b2dfd0ef          	jal	45c <append_str>
    2934:	000055b7          	lui	a1,0x5
    2938:	d3458593          	addi	a1,a1,-716 # 4d34 <__global_pointer+0xe1c>
    293c:	00010513          	mv	a0,sp
    2940:	b1dfd0ef          	jal	45c <append_str>
    2944:	00010513          	mv	a0,sp
    2948:	20d000ef          	jal	3354 <print>
    294c:	f9dff06f          	j	28e8 <add_to_inventory+0x40>

00002950 <remove_from_inventory>:
    2950:	ee010113          	addi	sp,sp,-288
    2954:	10112e23          	sw	ra,284(sp)
    2958:	00010823          	sb	zero,16(sp)
    295c:	00500793          	li	a5,5
    2960:	0eb7ea63          	bltu	a5,a1,2a54 <remove_from_inventory+0x104>
    2964:	10812c23          	sw	s0,280(sp)
    2968:	10912a23          	sw	s1,276(sp)
    296c:	00058493          	mv	s1,a1
    2970:	00259793          	slli	a5,a1,0x2
    2974:	00f50433          	add	s0,a0,a5
    2978:	01042783          	lw	a5,16(s0)
    297c:	08078663          	beqz	a5,2a08 <remove_from_inventory+0xb8>
    2980:	000055b7          	lui	a1,0x5
    2984:	d7c58593          	addi	a1,a1,-644 # 4d7c <__global_pointer+0xe64>
    2988:	01010513          	addi	a0,sp,16
    298c:	ad1fd0ef          	jal	45c <append_str>
    2990:	000037b7          	lui	a5,0x3
    2994:	01042703          	lw	a4,16(s0)
    2998:	00271713          	slli	a4,a4,0x2
    299c:	64c78793          	addi	a5,a5,1612 # 364c <COLLECTIBLE_NAMES>
    29a0:	00e787b3          	add	a5,a5,a4
    29a4:	0007a583          	lw	a1,0(a5)
    29a8:	01010513          	addi	a0,sp,16
    29ac:	ab1fd0ef          	jal	45c <append_str>
    29b0:	000055b7          	lui	a1,0x5
    29b4:	d8858593          	addi	a1,a1,-632 # 4d88 <__global_pointer+0xe70>
    29b8:	01010513          	addi	a0,sp,16
    29bc:	aa1fd0ef          	jal	45c <append_str>
    29c0:	00410593          	addi	a1,sp,4
    29c4:	00148513          	addi	a0,s1,1
    29c8:	9e9fd0ef          	jal	3b0 <int_to_str>
    29cc:	00410593          	addi	a1,sp,4
    29d0:	01010513          	addi	a0,sp,16
    29d4:	a89fd0ef          	jal	45c <append_str>
    29d8:	000045b7          	lui	a1,0x4
    29dc:	0a058593          	addi	a1,a1,160 # 40a0 <__global_pointer+0x188>
    29e0:	01010513          	addi	a0,sp,16
    29e4:	a79fd0ef          	jal	45c <append_str>
    29e8:	01010513          	addi	a0,sp,16
    29ec:	169000ef          	jal	3354 <print>
    29f0:	00042823          	sw	zero,16(s0)
    29f4:	11812403          	lw	s0,280(sp)
    29f8:	11412483          	lw	s1,276(sp)
    29fc:	11c12083          	lw	ra,284(sp)
    2a00:	12010113          	addi	sp,sp,288
    2a04:	00008067          	ret
    2a08:	000055b7          	lui	a1,0x5
    2a0c:	da058593          	addi	a1,a1,-608 # 4da0 <__global_pointer+0xe88>
    2a10:	01010513          	addi	a0,sp,16
    2a14:	a49fd0ef          	jal	45c <append_str>
    2a18:	00410593          	addi	a1,sp,4
    2a1c:	00148513          	addi	a0,s1,1
    2a20:	991fd0ef          	jal	3b0 <int_to_str>
    2a24:	00410593          	addi	a1,sp,4
    2a28:	01010513          	addi	a0,sp,16
    2a2c:	a31fd0ef          	jal	45c <append_str>
    2a30:	000055b7          	lui	a1,0x5
    2a34:	db058593          	addi	a1,a1,-592 # 4db0 <__global_pointer+0xe98>
    2a38:	01010513          	addi	a0,sp,16
    2a3c:	a21fd0ef          	jal	45c <append_str>
    2a40:	01010513          	addi	a0,sp,16
    2a44:	111000ef          	jal	3354 <print>
    2a48:	11812403          	lw	s0,280(sp)
    2a4c:	11412483          	lw	s1,276(sp)
    2a50:	fadff06f          	j	29fc <remove_from_inventory+0xac>
    2a54:	00005537          	lui	a0,0x5
    2a58:	dc450513          	addi	a0,a0,-572 # 4dc4 <__global_pointer+0xeac>
    2a5c:	0f9000ef          	jal	3354 <print>
    2a60:	f9dff06f          	j	29fc <remove_from_inventory+0xac>

00002a64 <add_to_storage>:
    2a64:	ef010113          	addi	sp,sp,-272
    2a68:	10112623          	sw	ra,268(sp)
    2a6c:	10812423          	sw	s0,264(sp)
    2a70:	00058413          	mv	s0,a1
    2a74:	00010023          	sb	zero,0(sp)
    2a78:	00c50713          	addi	a4,a0,12
    2a7c:	00000793          	li	a5,0
    2a80:	00500613          	li	a2,5
    2a84:	00072683          	lw	a3,0(a4)
    2a88:	02068663          	beqz	a3,2ab4 <add_to_storage+0x50>
    2a8c:	00178793          	addi	a5,a5,1
    2a90:	00470713          	addi	a4,a4,4
    2a94:	fec798e3          	bne	a5,a2,2a84 <add_to_storage+0x20>
    2a98:	00005537          	lui	a0,0x5
    2a9c:	df850513          	addi	a0,a0,-520 # 4df8 <__global_pointer+0xee0>
    2aa0:	0b5000ef          	jal	3354 <print>
    2aa4:	10c12083          	lw	ra,268(sp)
    2aa8:	10812403          	lw	s0,264(sp)
    2aac:	11010113          	addi	sp,sp,272
    2ab0:	00008067          	ret
    2ab4:	00279793          	slli	a5,a5,0x2
    2ab8:	00f50533          	add	a0,a0,a5
    2abc:	00852623          	sw	s0,12(a0)
    2ac0:	000055b7          	lui	a1,0x5
    2ac4:	de058593          	addi	a1,a1,-544 # 4de0 <__global_pointer+0xec8>
    2ac8:	00010513          	mv	a0,sp
    2acc:	991fd0ef          	jal	45c <append_str>
    2ad0:	000037b7          	lui	a5,0x3
    2ad4:	00241593          	slli	a1,s0,0x2
    2ad8:	64c78793          	addi	a5,a5,1612 # 364c <COLLECTIBLE_NAMES>
    2adc:	00b787b3          	add	a5,a5,a1
    2ae0:	0007a583          	lw	a1,0(a5)
    2ae4:	00010513          	mv	a0,sp
    2ae8:	975fd0ef          	jal	45c <append_str>
    2aec:	000055b7          	lui	a1,0x5
    2af0:	de858593          	addi	a1,a1,-536 # 4de8 <__global_pointer+0xed0>
    2af4:	00010513          	mv	a0,sp
    2af8:	965fd0ef          	jal	45c <append_str>
    2afc:	00010513          	mv	a0,sp
    2b00:	055000ef          	jal	3354 <print>
    2b04:	fa1ff06f          	j	2aa4 <add_to_storage+0x40>

00002b08 <add_fuel_enginebay>:
    2b08:	ef010113          	addi	sp,sp,-272
    2b0c:	10112623          	sw	ra,268(sp)
    2b10:	00010023          	sb	zero,0(sp)
    2b14:	00c52783          	lw	a5,12(a0)
    2b18:	00078e63          	beqz	a5,2b34 <add_fuel_enginebay+0x2c>
    2b1c:	00005537          	lui	a0,0x5
    2b20:	e3850513          	addi	a0,a0,-456 # 4e38 <__global_pointer+0xf20>
    2b24:	031000ef          	jal	3354 <print>
    2b28:	10c12083          	lw	ra,268(sp)
    2b2c:	11010113          	addi	sp,sp,272
    2b30:	00008067          	ret
    2b34:	10812423          	sw	s0,264(sp)
    2b38:	00058413          	mv	s0,a1
    2b3c:	00b52623          	sw	a1,12(a0)
    2b40:	000055b7          	lui	a1,0x5
    2b44:	de058593          	addi	a1,a1,-544 # 4de0 <__global_pointer+0xec8>
    2b48:	00010513          	mv	a0,sp
    2b4c:	911fd0ef          	jal	45c <append_str>
    2b50:	000037b7          	lui	a5,0x3
    2b54:	00241593          	slli	a1,s0,0x2
    2b58:	64c78793          	addi	a5,a5,1612 # 364c <COLLECTIBLE_NAMES>
    2b5c:	00b787b3          	add	a5,a5,a1
    2b60:	0007a583          	lw	a1,0(a5)
    2b64:	00010513          	mv	a0,sp
    2b68:	8f5fd0ef          	jal	45c <append_str>
    2b6c:	000055b7          	lui	a1,0x5
    2b70:	e2458593          	addi	a1,a1,-476 # 4e24 <__global_pointer+0xf0c>
    2b74:	00010513          	mv	a0,sp
    2b78:	8e5fd0ef          	jal	45c <append_str>
    2b7c:	00010513          	mv	a0,sp
    2b80:	7d4000ef          	jal	3354 <print>
    2b84:	10812403          	lw	s0,264(sp)
    2b88:	fa1ff06f          	j	2b28 <add_fuel_enginebay+0x20>

00002b8c <remove_from_storage>:
    2b8c:	ee010113          	addi	sp,sp,-288
    2b90:	10112e23          	sw	ra,284(sp)
    2b94:	00010823          	sb	zero,16(sp)
    2b98:	00400793          	li	a5,4
    2b9c:	0eb7ea63          	bltu	a5,a1,2c90 <remove_from_storage+0x104>
    2ba0:	10812c23          	sw	s0,280(sp)
    2ba4:	10912a23          	sw	s1,276(sp)
    2ba8:	00058493          	mv	s1,a1
    2bac:	00259793          	slli	a5,a1,0x2
    2bb0:	00f50433          	add	s0,a0,a5
    2bb4:	00c42783          	lw	a5,12(s0)
    2bb8:	08078663          	beqz	a5,2c44 <remove_from_storage+0xb8>
    2bbc:	000055b7          	lui	a1,0x5
    2bc0:	d7c58593          	addi	a1,a1,-644 # 4d7c <__global_pointer+0xe64>
    2bc4:	01010513          	addi	a0,sp,16
    2bc8:	895fd0ef          	jal	45c <append_str>
    2bcc:	000037b7          	lui	a5,0x3
    2bd0:	00c42703          	lw	a4,12(s0)
    2bd4:	00271713          	slli	a4,a4,0x2
    2bd8:	64c78793          	addi	a5,a5,1612 # 364c <COLLECTIBLE_NAMES>
    2bdc:	00e787b3          	add	a5,a5,a4
    2be0:	0007a583          	lw	a1,0(a5)
    2be4:	01010513          	addi	a0,sp,16
    2be8:	875fd0ef          	jal	45c <append_str>
    2bec:	000055b7          	lui	a1,0x5
    2bf0:	e6858593          	addi	a1,a1,-408 # 4e68 <__global_pointer+0xf50>
    2bf4:	01010513          	addi	a0,sp,16
    2bf8:	865fd0ef          	jal	45c <append_str>
    2bfc:	00410593          	addi	a1,sp,4
    2c00:	00148513          	addi	a0,s1,1
    2c04:	facfd0ef          	jal	3b0 <int_to_str>
    2c08:	00410593          	addi	a1,sp,4
    2c0c:	01010513          	addi	a0,sp,16
    2c10:	84dfd0ef          	jal	45c <append_str>
    2c14:	000045b7          	lui	a1,0x4
    2c18:	0a058593          	addi	a1,a1,160 # 40a0 <__global_pointer+0x188>
    2c1c:	01010513          	addi	a0,sp,16
    2c20:	83dfd0ef          	jal	45c <append_str>
    2c24:	01010513          	addi	a0,sp,16
    2c28:	72c000ef          	jal	3354 <print>
    2c2c:	00042623          	sw	zero,12(s0)
    2c30:	11812403          	lw	s0,280(sp)
    2c34:	11412483          	lw	s1,276(sp)
    2c38:	11c12083          	lw	ra,284(sp)
    2c3c:	12010113          	addi	sp,sp,288
    2c40:	00008067          	ret
    2c44:	000055b7          	lui	a1,0x5
    2c48:	e7c58593          	addi	a1,a1,-388 # 4e7c <__global_pointer+0xf64>
    2c4c:	01010513          	addi	a0,sp,16
    2c50:	80dfd0ef          	jal	45c <append_str>
    2c54:	00410593          	addi	a1,sp,4
    2c58:	00148513          	addi	a0,s1,1
    2c5c:	f54fd0ef          	jal	3b0 <int_to_str>
    2c60:	00410593          	addi	a1,sp,4
    2c64:	01010513          	addi	a0,sp,16
    2c68:	ff4fd0ef          	jal	45c <append_str>
    2c6c:	000055b7          	lui	a1,0x5
    2c70:	db058593          	addi	a1,a1,-592 # 4db0 <__global_pointer+0xe98>
    2c74:	01010513          	addi	a0,sp,16
    2c78:	fe4fd0ef          	jal	45c <append_str>
    2c7c:	01010513          	addi	a0,sp,16
    2c80:	6d4000ef          	jal	3354 <print>
    2c84:	11812403          	lw	s0,280(sp)
    2c88:	11412483          	lw	s1,276(sp)
    2c8c:	fadff06f          	j	2c38 <remove_from_storage+0xac>
    2c90:	00005537          	lui	a0,0x5
    2c94:	e8c50513          	addi	a0,a0,-372 # 4e8c <__global_pointer+0xf74>
    2c98:	6bc000ef          	jal	3354 <print>
    2c9c:	f9dff06f          	j	2c38 <remove_from_storage+0xac>

00002ca0 <check_storage>:
    2ca0:	ed010113          	addi	sp,sp,-304
    2ca4:	12112623          	sw	ra,300(sp)
    2ca8:	12812423          	sw	s0,296(sp)
    2cac:	12912223          	sw	s1,292(sp)
    2cb0:	13212023          	sw	s2,288(sp)
    2cb4:	11312e23          	sw	s3,284(sp)
    2cb8:	11412c23          	sw	s4,280(sp)
    2cbc:	11512a23          	sw	s5,276(sp)
    2cc0:	11612823          	sw	s6,272(sp)
    2cc4:	00058413          	mv	s0,a1
    2cc8:	00010823          	sb	zero,16(sp)
    2ccc:	0085a583          	lw	a1,8(a1)
    2cd0:	01010513          	addi	a0,sp,16
    2cd4:	f88fd0ef          	jal	45c <append_str>
    2cd8:	000045b7          	lui	a1,0x4
    2cdc:	0a058593          	addi	a1,a1,160 # 40a0 <__global_pointer+0x188>
    2ce0:	01010513          	addi	a0,sp,16
    2ce4:	f78fd0ef          	jal	45c <append_str>
    2ce8:	01010513          	addi	a0,sp,16
    2cec:	668000ef          	jal	3354 <print>
    2cf0:	00005537          	lui	a0,0x5
    2cf4:	ea450513          	addi	a0,a0,-348 # 4ea4 <__global_pointer+0xf8c>
    2cf8:	889fd0ef          	jal	580 <print_hold>
    2cfc:	00c40413          	addi	s0,s0,12
    2d00:	00100493          	li	s1,1
    2d04:	00900913          	li	s2,9
    2d08:	00004b37          	lui	s6,0x4
    2d0c:	00004ab7          	lui	s5,0x4
    2d10:	000039b7          	lui	s3,0x3
    2d14:	64c98993          	addi	s3,s3,1612 # 364c <COLLECTIBLE_NAMES>
    2d18:	00004a37          	lui	s4,0x4
    2d1c:	0140006f          	j	2d30 <check_storage+0x90>
    2d20:	00148493          	addi	s1,s1,1
    2d24:	00440413          	addi	s0,s0,4
    2d28:	00600793          	li	a5,6
    2d2c:	06f48a63          	beq	s1,a5,2da0 <check_storage+0x100>
    2d30:	00042783          	lw	a5,0(s0)
    2d34:	ff978793          	addi	a5,a5,-7
    2d38:	fef964e3          	bltu	s2,a5,2d20 <check_storage+0x80>
    2d3c:	00010823          	sb	zero,16(sp)
    2d40:	06cb0593          	addi	a1,s6,108 # 406c <__global_pointer+0x154>
    2d44:	01010513          	addi	a0,sp,16
    2d48:	f14fd0ef          	jal	45c <append_str>
    2d4c:	00410593          	addi	a1,sp,4
    2d50:	00048513          	mv	a0,s1
    2d54:	e5cfd0ef          	jal	3b0 <int_to_str>
    2d58:	00410593          	addi	a1,sp,4
    2d5c:	01010513          	addi	a0,sp,16
    2d60:	efcfd0ef          	jal	45c <append_str>
    2d64:	c30a8593          	addi	a1,s5,-976 # 3c30 <timeoutcount+0x4ec>
    2d68:	01010513          	addi	a0,sp,16
    2d6c:	ef0fd0ef          	jal	45c <append_str>
    2d70:	00042783          	lw	a5,0(s0)
    2d74:	00279793          	slli	a5,a5,0x2
    2d78:	00f987b3          	add	a5,s3,a5
    2d7c:	0007a583          	lw	a1,0(a5)
    2d80:	01010513          	addi	a0,sp,16
    2d84:	ed8fd0ef          	jal	45c <append_str>
    2d88:	0a0a0593          	addi	a1,s4,160 # 40a0 <__global_pointer+0x188>
    2d8c:	01010513          	addi	a0,sp,16
    2d90:	eccfd0ef          	jal	45c <append_str>
    2d94:	01010513          	addi	a0,sp,16
    2d98:	5bc000ef          	jal	3354 <print>
    2d9c:	f85ff06f          	j	2d20 <check_storage+0x80>
    2da0:	12c12083          	lw	ra,300(sp)
    2da4:	12812403          	lw	s0,296(sp)
    2da8:	12412483          	lw	s1,292(sp)
    2dac:	12012903          	lw	s2,288(sp)
    2db0:	11c12983          	lw	s3,284(sp)
    2db4:	11812a03          	lw	s4,280(sp)
    2db8:	11412a83          	lw	s5,276(sp)
    2dbc:	11012b03          	lw	s6,272(sp)
    2dc0:	13010113          	addi	sp,sp,304
    2dc4:	00008067          	ret

00002dc8 <storage>:
    2dc8:	fd010113          	addi	sp,sp,-48
    2dcc:	00810793          	addi	a5,sp,8
    2dd0:	03010713          	addi	a4,sp,48
    2dd4:	0007a623          	sw	zero,12(a5)
    2dd8:	00478793          	addi	a5,a5,4
    2ddc:	fef71ce3          	bne	a4,a5,2dd4 <storage+0xc>
    2de0:	00052023          	sw	zero,0(a0)
    2de4:	00100793          	li	a5,1
    2de8:	00f52223          	sw	a5,4(a0)
    2dec:	000057b7          	lui	a5,0x5
    2df0:	ecc78793          	addi	a5,a5,-308 # 4ecc <__global_pointer+0xfb4>
    2df4:	00f52423          	sw	a5,8(a0)
    2df8:	00700793          	li	a5,7
    2dfc:	00f52623          	sw	a5,12(a0)
    2e00:	00900793          	li	a5,9
    2e04:	00f52823          	sw	a5,16(a0)
    2e08:	01c12783          	lw	a5,28(sp)
    2e0c:	00f52a23          	sw	a5,20(a0)
    2e10:	02012783          	lw	a5,32(sp)
    2e14:	00f52c23          	sw	a5,24(a0)
    2e18:	02412783          	lw	a5,36(sp)
    2e1c:	00f52e23          	sw	a5,28(a0)
    2e20:	02812783          	lw	a5,40(sp)
    2e24:	02f52023          	sw	a5,32(a0)
    2e28:	02052223          	sw	zero,36(a0)
    2e2c:	03010113          	addi	sp,sp,48
    2e30:	00008067          	ret

00002e34 <chambers>:
    2e34:	00100713          	li	a4,1
    2e38:	00e52023          	sw	a4,0(a0)
    2e3c:	00005737          	lui	a4,0x5
    2e40:	f3c70713          	addi	a4,a4,-196 # 4f3c <__global_pointer+0x1024>
    2e44:	00e52423          	sw	a4,8(a0)
    2e48:	02052223          	sw	zero,36(a0)
    2e4c:	00008067          	ret

00002e50 <cockpit>:
    2e50:	00200713          	li	a4,2
    2e54:	00e52023          	sw	a4,0(a0)
    2e58:	00100713          	li	a4,1
    2e5c:	00e52223          	sw	a4,4(a0)
    2e60:	00005737          	lui	a4,0x5
    2e64:	f7c70713          	addi	a4,a4,-132 # 4f7c <__global_pointer+0x1064>
    2e68:	00e52423          	sw	a4,8(a0)
    2e6c:	02052223          	sw	zero,36(a0)
    2e70:	00008067          	ret

00002e74 <cafeteria>:
    2e74:	00300713          	li	a4,3
    2e78:	00e52023          	sw	a4,0(a0)
    2e7c:	00005737          	lui	a4,0x5
    2e80:	fcc70713          	addi	a4,a4,-52 # 4fcc <__global_pointer+0x10b4>
    2e84:	00e52423          	sw	a4,8(a0)
    2e88:	00700713          	li	a4,7
    2e8c:	02e52023          	sw	a4,32(a0)
    2e90:	02052223          	sw	zero,36(a0)
    2e94:	00008067          	ret

00002e98 <engine_bay>:
    2e98:	fd010113          	addi	sp,sp,-48
    2e9c:	00810793          	addi	a5,sp,8
    2ea0:	03010713          	addi	a4,sp,48
    2ea4:	0007a623          	sw	zero,12(a5)
    2ea8:	00478793          	addi	a5,a5,4
    2eac:	fee79ce3          	bne	a5,a4,2ea4 <engine_bay+0xc>
    2eb0:	00400793          	li	a5,4
    2eb4:	00f52023          	sw	a5,0(a0)
    2eb8:	00c12783          	lw	a5,12(sp)
    2ebc:	00f52223          	sw	a5,4(a0)
    2ec0:	000057b7          	lui	a5,0x5
    2ec4:	00078793          	mv	a5,a5
    2ec8:	00f52423          	sw	a5,8(a0)
    2ecc:	01412783          	lw	a5,20(sp)
    2ed0:	00f52623          	sw	a5,12(a0)
    2ed4:	01812783          	lw	a5,24(sp)
    2ed8:	00f52823          	sw	a5,16(a0)
    2edc:	01c12783          	lw	a5,28(sp)
    2ee0:	00f52a23          	sw	a5,20(a0)
    2ee4:	02012783          	lw	a5,32(sp)
    2ee8:	00f52c23          	sw	a5,24(a0)
    2eec:	02412783          	lw	a5,36(sp)
    2ef0:	00f52e23          	sw	a5,28(a0)
    2ef4:	02812783          	lw	a5,40(sp)
    2ef8:	02f52023          	sw	a5,32(a0)
    2efc:	02052223          	sw	zero,36(a0)
    2f00:	03010113          	addi	sp,sp,48
    2f04:	00008067          	ret

00002f08 <laboratory>:
    2f08:	00500713          	li	a4,5
    2f0c:	00e52023          	sw	a4,0(a0)
    2f10:	00005737          	lui	a4,0x5
    2f14:	04070713          	addi	a4,a4,64 # 5040 <__global_pointer+0x1128>
    2f18:	00e52423          	sw	a4,8(a0)
    2f1c:	02052223          	sw	zero,36(a0)
    2f20:	00008067          	ret

00002f24 <airlock>:
    2f24:	00600713          	li	a4,6
    2f28:	00e52023          	sw	a4,0(a0)
    2f2c:	00005737          	lui	a4,0x5
    2f30:	07470713          	addi	a4,a4,116 # 5074 <__global_pointer+0x115c>
    2f34:	00e52423          	sw	a4,8(a0)
    2f38:	02052223          	sw	zero,36(a0)
    2f3c:	00008067          	ret

00002f40 <landing_site>:
    2f40:	00700713          	li	a4,7
    2f44:	00e52023          	sw	a4,0(a0)
    2f48:	00100693          	li	a3,1
    2f4c:	00d52223          	sw	a3,4(a0)
    2f50:	00005737          	lui	a4,0x5
    2f54:	0c470713          	addi	a4,a4,196 # 50c4 <__global_pointer+0x11ac>
    2f58:	00e52423          	sw	a4,8(a0)
    2f5c:	00b00713          	li	a4,11
    2f60:	00e52623          	sw	a4,12(a0)
    2f64:	02d52223          	sw	a3,36(a0)
    2f68:	00008067          	ret

00002f6c <wasteland>:
    2f6c:	00800713          	li	a4,8
    2f70:	00e52023          	sw	a4,0(a0)
    2f74:	00005737          	lui	a4,0x5
    2f78:	10470713          	addi	a4,a4,260 # 5104 <__global_pointer+0x11ec>
    2f7c:	00e52423          	sw	a4,8(a0)
    2f80:	00100713          	li	a4,1
    2f84:	02e52223          	sw	a4,36(a0)
    2f88:	00008067          	ret

00002f8c <loose_soil>:
    2f8c:	00900713          	li	a4,9
    2f90:	00e52023          	sw	a4,0(a0)
    2f94:	00005737          	lui	a4,0x5
    2f98:	12870713          	addi	a4,a4,296 # 5128 <__global_pointer+0x1210>
    2f9c:	00e52423          	sw	a4,8(a0)
    2fa0:	00100713          	li	a4,1
    2fa4:	02e52223          	sw	a4,36(a0)
    2fa8:	00008067          	ret

00002fac <pond>:
    2fac:	00a00713          	li	a4,10
    2fb0:	00e52023          	sw	a4,0(a0)
    2fb4:	00005737          	lui	a4,0x5
    2fb8:	16870713          	addi	a4,a4,360 # 5168 <__global_pointer+0x1250>
    2fbc:	00e52423          	sw	a4,8(a0)
    2fc0:	00100713          	li	a4,1
    2fc4:	00e52623          	sw	a4,12(a0)
    2fc8:	02e52023          	sw	a4,32(a0)
    2fcc:	02e52223          	sw	a4,36(a0)
    2fd0:	00008067          	ret

00002fd4 <sharp_rocks>:
    2fd4:	00b00713          	li	a4,11
    2fd8:	00e52023          	sw	a4,0(a0)
    2fdc:	00005737          	lui	a4,0x5
    2fe0:	18870713          	addi	a4,a4,392 # 5188 <__global_pointer+0x1270>
    2fe4:	00e52423          	sw	a4,8(a0)
    2fe8:	00100713          	li	a4,1
    2fec:	02e52223          	sw	a4,36(a0)
    2ff0:	00008067          	ret

00002ff4 <cave>:
    2ff4:	00c00713          	li	a4,12
    2ff8:	00e52023          	sw	a4,0(a0)
    2ffc:	00005737          	lui	a4,0x5
    3000:	1e470713          	addi	a4,a4,484 # 51e4 <__global_pointer+0x12cc>
    3004:	00e52423          	sw	a4,8(a0)
    3008:	00400713          	li	a4,4
    300c:	00e52623          	sw	a4,12(a0)
    3010:	02e52023          	sw	a4,32(a0)
    3014:	00100713          	li	a4,1
    3018:	02e52223          	sw	a4,36(a0)
    301c:	00008067          	ret

00003020 <crater>:
    3020:	00d00713          	li	a4,13
    3024:	00e52023          	sw	a4,0(a0)
    3028:	00005737          	lui	a4,0x5
    302c:	21870713          	addi	a4,a4,536 # 5218 <__global_pointer+0x1300>
    3030:	00e52423          	sw	a4,8(a0)
    3034:	00200713          	li	a4,2
    3038:	00e52623          	sw	a4,12(a0)
    303c:	02e52023          	sw	a4,32(a0)
    3040:	00100713          	li	a4,1
    3044:	02e52223          	sw	a4,36(a0)
    3048:	00008067          	ret

0000304c <canyon>:
    304c:	00e00713          	li	a4,14
    3050:	00e52023          	sw	a4,0(a0)
    3054:	00005737          	lui	a4,0x5
    3058:	23c70713          	addi	a4,a4,572 # 523c <__global_pointer+0x1324>
    305c:	00e52423          	sw	a4,8(a0)
    3060:	00300713          	li	a4,3
    3064:	00e52623          	sw	a4,12(a0)
    3068:	02e52023          	sw	a4,32(a0)
    306c:	00100713          	li	a4,1
    3070:	02e52223          	sw	a4,36(a0)
    3074:	00008067          	ret

00003078 <mountain>:
    3078:	00f00713          	li	a4,15
    307c:	00e52023          	sw	a4,0(a0)
    3080:	00005737          	lui	a4,0x5
    3084:	26c70713          	addi	a4,a4,620 # 526c <__global_pointer+0x1354>
    3088:	00e52423          	sw	a4,8(a0)
    308c:	00100713          	li	a4,1
    3090:	02e52223          	sw	a4,36(a0)
    3094:	00008067          	ret

00003098 <empty>:
    3098:	01000713          	li	a4,16
    309c:	00e52023          	sw	a4,0(a0)
    30a0:	00005737          	lui	a4,0x5
    30a4:	2a070713          	addi	a4,a4,672 # 52a0 <__global_pointer+0x1388>
    30a8:	00e52423          	sw	a4,8(a0)
    30ac:	02052223          	sw	zero,36(a0)
    30b0:	00008067          	ret

000030b4 <ct>:
    30b4:	ff010113          	addi	sp,sp,-16
    30b8:	00112623          	sw	ra,12(sp)
    30bc:	00812423          	sw	s0,8(sp)
    30c0:	00050413          	mv	s0,a0
    30c4:	01000793          	li	a5,16
    30c8:	24b7e663          	bltu	a5,a1,3314 <ct+0x260>
    30cc:	00259593          	slli	a1,a1,0x2
    30d0:	000047b7          	lui	a5,0x4
    30d4:	99c78793          	addi	a5,a5,-1636 # 399c <timeoutcount+0x258>
    30d8:	00f585b3          	add	a1,a1,a5
    30dc:	0005a783          	lw	a5,0(a1)
    30e0:	00078067          	jr	a5
    30e4:	ce5ff0ef          	jal	2dc8 <storage>
    30e8:	00040513          	mv	a0,s0
    30ec:	00c12083          	lw	ra,12(sp)
    30f0:	00812403          	lw	s0,8(sp)
    30f4:	01010113          	addi	sp,sp,16
    30f8:	00008067          	ret
    30fc:	00100793          	li	a5,1
    3100:	00f52023          	sw	a5,0(a0)
    3104:	000057b7          	lui	a5,0x5
    3108:	f3c78793          	addi	a5,a5,-196 # 4f3c <__global_pointer+0x1024>
    310c:	00f52423          	sw	a5,8(a0)
    3110:	02052223          	sw	zero,36(a0)
    3114:	fd5ff06f          	j	30e8 <ct+0x34>
    3118:	00200793          	li	a5,2
    311c:	00f52023          	sw	a5,0(a0)
    3120:	00100793          	li	a5,1
    3124:	00f52223          	sw	a5,4(a0)
    3128:	000057b7          	lui	a5,0x5
    312c:	f7c78793          	addi	a5,a5,-132 # 4f7c <__global_pointer+0x1064>
    3130:	00f52423          	sw	a5,8(a0)
    3134:	02052223          	sw	zero,36(a0)
    3138:	fb1ff06f          	j	30e8 <ct+0x34>
    313c:	00300793          	li	a5,3
    3140:	00f52023          	sw	a5,0(a0)
    3144:	000057b7          	lui	a5,0x5
    3148:	fcc78793          	addi	a5,a5,-52 # 4fcc <__global_pointer+0x10b4>
    314c:	00f52423          	sw	a5,8(a0)
    3150:	00700793          	li	a5,7
    3154:	02f52023          	sw	a5,32(a0)
    3158:	02052223          	sw	zero,36(a0)
    315c:	f8dff06f          	j	30e8 <ct+0x34>
    3160:	d39ff0ef          	jal	2e98 <engine_bay>
    3164:	f85ff06f          	j	30e8 <ct+0x34>
    3168:	00500793          	li	a5,5
    316c:	00f52023          	sw	a5,0(a0)
    3170:	000057b7          	lui	a5,0x5
    3174:	04078793          	addi	a5,a5,64 # 5040 <__global_pointer+0x1128>
    3178:	00f52423          	sw	a5,8(a0)
    317c:	02052223          	sw	zero,36(a0)
    3180:	f69ff06f          	j	30e8 <ct+0x34>
    3184:	00600793          	li	a5,6
    3188:	00f52023          	sw	a5,0(a0)
    318c:	000057b7          	lui	a5,0x5
    3190:	07478793          	addi	a5,a5,116 # 5074 <__global_pointer+0x115c>
    3194:	00f52423          	sw	a5,8(a0)
    3198:	02052223          	sw	zero,36(a0)
    319c:	f4dff06f          	j	30e8 <ct+0x34>
    31a0:	00700793          	li	a5,7
    31a4:	00f52023          	sw	a5,0(a0)
    31a8:	00100713          	li	a4,1
    31ac:	00e52223          	sw	a4,4(a0)
    31b0:	000057b7          	lui	a5,0x5
    31b4:	0c478793          	addi	a5,a5,196 # 50c4 <__global_pointer+0x11ac>
    31b8:	00f52423          	sw	a5,8(a0)
    31bc:	00b00793          	li	a5,11
    31c0:	00f52623          	sw	a5,12(a0)
    31c4:	02e52223          	sw	a4,36(a0)
    31c8:	f21ff06f          	j	30e8 <ct+0x34>
    31cc:	00800793          	li	a5,8
    31d0:	00f52023          	sw	a5,0(a0)
    31d4:	000057b7          	lui	a5,0x5
    31d8:	10478793          	addi	a5,a5,260 # 5104 <__global_pointer+0x11ec>
    31dc:	00f52423          	sw	a5,8(a0)
    31e0:	00100793          	li	a5,1
    31e4:	02f52223          	sw	a5,36(a0)
    31e8:	f01ff06f          	j	30e8 <ct+0x34>
    31ec:	00900793          	li	a5,9
    31f0:	00f52023          	sw	a5,0(a0)
    31f4:	000057b7          	lui	a5,0x5
    31f8:	12878793          	addi	a5,a5,296 # 5128 <__global_pointer+0x1210>
    31fc:	00f52423          	sw	a5,8(a0)
    3200:	00100793          	li	a5,1
    3204:	02f52223          	sw	a5,36(a0)
    3208:	ee1ff06f          	j	30e8 <ct+0x34>
    320c:	00a00793          	li	a5,10
    3210:	00f52023          	sw	a5,0(a0)
    3214:	000057b7          	lui	a5,0x5
    3218:	16878793          	addi	a5,a5,360 # 5168 <__global_pointer+0x1250>
    321c:	00f52423          	sw	a5,8(a0)
    3220:	00100793          	li	a5,1
    3224:	00f52623          	sw	a5,12(a0)
    3228:	02f52023          	sw	a5,32(a0)
    322c:	02f52223          	sw	a5,36(a0)
    3230:	eb9ff06f          	j	30e8 <ct+0x34>
    3234:	00b00793          	li	a5,11
    3238:	00f52023          	sw	a5,0(a0)
    323c:	000057b7          	lui	a5,0x5
    3240:	18878793          	addi	a5,a5,392 # 5188 <__global_pointer+0x1270>
    3244:	00f52423          	sw	a5,8(a0)
    3248:	00100793          	li	a5,1
    324c:	02f52223          	sw	a5,36(a0)
    3250:	e99ff06f          	j	30e8 <ct+0x34>
    3254:	00c00793          	li	a5,12
    3258:	00f52023          	sw	a5,0(a0)
    325c:	000057b7          	lui	a5,0x5
    3260:	1e478793          	addi	a5,a5,484 # 51e4 <__global_pointer+0x12cc>
    3264:	00f52423          	sw	a5,8(a0)
    3268:	00400793          	li	a5,4
    326c:	00f52623          	sw	a5,12(a0)
    3270:	02f52023          	sw	a5,32(a0)
    3274:	00100793          	li	a5,1
    3278:	02f52223          	sw	a5,36(a0)
    327c:	e6dff06f          	j	30e8 <ct+0x34>
    3280:	00d00793          	li	a5,13
    3284:	00f52023          	sw	a5,0(a0)
    3288:	000057b7          	lui	a5,0x5
    328c:	21878793          	addi	a5,a5,536 # 5218 <__global_pointer+0x1300>
    3290:	00f52423          	sw	a5,8(a0)
    3294:	00200793          	li	a5,2
    3298:	00f52623          	sw	a5,12(a0)
    329c:	02f52023          	sw	a5,32(a0)
    32a0:	00100793          	li	a5,1
    32a4:	02f52223          	sw	a5,36(a0)
    32a8:	e41ff06f          	j	30e8 <ct+0x34>
    32ac:	00e00793          	li	a5,14
    32b0:	00f52023          	sw	a5,0(a0)
    32b4:	000057b7          	lui	a5,0x5
    32b8:	23c78793          	addi	a5,a5,572 # 523c <__global_pointer+0x1324>
    32bc:	00f52423          	sw	a5,8(a0)
    32c0:	00300793          	li	a5,3
    32c4:	00f52623          	sw	a5,12(a0)
    32c8:	02f52023          	sw	a5,32(a0)
    32cc:	00100793          	li	a5,1
    32d0:	02f52223          	sw	a5,36(a0)
    32d4:	e15ff06f          	j	30e8 <ct+0x34>
    32d8:	00f00793          	li	a5,15
    32dc:	00f52023          	sw	a5,0(a0)
    32e0:	000057b7          	lui	a5,0x5
    32e4:	26c78793          	addi	a5,a5,620 # 526c <__global_pointer+0x1354>
    32e8:	00f52423          	sw	a5,8(a0)
    32ec:	00100793          	li	a5,1
    32f0:	02f52223          	sw	a5,36(a0)
    32f4:	df5ff06f          	j	30e8 <ct+0x34>
    32f8:	01000793          	li	a5,16
    32fc:	00f52023          	sw	a5,0(a0)
    3300:	000057b7          	lui	a5,0x5
    3304:	2a078793          	addi	a5,a5,672 # 52a0 <__global_pointer+0x1388>
    3308:	00f52423          	sw	a5,8(a0)
    330c:	02052223          	sw	zero,36(a0)
    3310:	dd9ff06f          	j	30e8 <ct+0x34>
    3314:	00800793          	li	a5,8
    3318:	00f52023          	sw	a5,0(a0)
    331c:	000057b7          	lui	a5,0x5
    3320:	10478793          	addi	a5,a5,260 # 5104 <__global_pointer+0x11ec>
    3324:	00f52423          	sw	a5,8(a0)
    3328:	00100793          	li	a5,1
    332c:	02f52223          	sw	a5,36(a0)
    3330:	db9ff06f          	j	30e8 <ct+0x34>

00003334 <printc>:
    3334:	04000737          	lui	a4,0x4000
    3338:	04470713          	addi	a4,a4,68 # 4000044 <_stack_end+0x3efacf0>
    333c:	000106b7          	lui	a3,0x10
    3340:	00072783          	lw	a5,0(a4)
    3344:	fed7eee3          	bltu	a5,a3,3340 <printc+0xc>
    3348:	040007b7          	lui	a5,0x4000
    334c:	04a7a023          	sw	a0,64(a5) # 4000040 <_stack_end+0x3efacec>
    3350:	00008067          	ret

00003354 <print>:
    3354:	ff010113          	addi	sp,sp,-16
    3358:	00112623          	sw	ra,12(sp)
    335c:	00812423          	sw	s0,8(sp)
    3360:	00050413          	mv	s0,a0
    3364:	00054503          	lbu	a0,0(a0)
    3368:	00050a63          	beqz	a0,337c <print+0x28>
    336c:	fc9ff0ef          	jal	3334 <printc>
    3370:	00140413          	addi	s0,s0,1
    3374:	00044503          	lbu	a0,0(s0)
    3378:	fe051ae3          	bnez	a0,336c <print+0x18>
    337c:	00c12083          	lw	ra,12(sp)
    3380:	00812403          	lw	s0,8(sp)
    3384:	01010113          	addi	sp,sp,16
    3388:	00008067          	ret

0000338c <print_dec>:
    338c:	fe010113          	addi	sp,sp,-32
    3390:	00112e23          	sw	ra,28(sp)
    3394:	00812c23          	sw	s0,24(sp)
    3398:	00912a23          	sw	s1,20(sp)
    339c:	01212823          	sw	s2,16(sp)
    33a0:	01312623          	sw	s3,12(sp)
    33a4:	01412423          	sw	s4,8(sp)
    33a8:	00050493          	mv	s1,a0
    33ac:	00a00913          	li	s2,10
    33b0:	00000793          	li	a5,0
    33b4:	3b9ad437          	lui	s0,0x3b9ad
    33b8:	a0040413          	addi	s0,s0,-1536 # 3b9aca00 <_stack_end+0x3b8a76ac>
    33bc:	00100a13          	li	s4,1
    33c0:	00a00993          	li	s3,10
    33c4:	0280006f          	j	33ec <print_dec+0x60>
    33c8:	0284d533          	divu	a0,s1,s0
    33cc:	03050513          	addi	a0,a0,48
    33d0:	0ff57513          	zext.b	a0,a0
    33d4:	f61ff0ef          	jal	3334 <printc>
    33d8:	000a0793          	mv	a5,s4
    33dc:	0284f4b3          	remu	s1,s1,s0
    33e0:	03345433          	divu	s0,s0,s3
    33e4:	fff90913          	addi	s2,s2,-1
    33e8:	00090863          	beqz	s2,33f8 <print_dec+0x6c>
    33ec:	fc84fee3          	bgeu	s1,s0,33c8 <print_dec+0x3c>
    33f0:	fe0786e3          	beqz	a5,33dc <print_dec+0x50>
    33f4:	fd5ff06f          	j	33c8 <print_dec+0x3c>
    33f8:	02078263          	beqz	a5,341c <print_dec+0x90>
    33fc:	01c12083          	lw	ra,28(sp)
    3400:	01812403          	lw	s0,24(sp)
    3404:	01412483          	lw	s1,20(sp)
    3408:	01012903          	lw	s2,16(sp)
    340c:	00c12983          	lw	s3,12(sp)
    3410:	00812a03          	lw	s4,8(sp)
    3414:	02010113          	addi	sp,sp,32
    3418:	00008067          	ret
    341c:	03000513          	li	a0,48
    3420:	f15ff0ef          	jal	3334 <printc>
    3424:	fd9ff06f          	j	33fc <print_dec+0x70>

00003428 <print_hex32>:
    3428:	fe010113          	addi	sp,sp,-32
    342c:	00112e23          	sw	ra,28(sp)
    3430:	00812c23          	sw	s0,24(sp)
    3434:	00912a23          	sw	s1,20(sp)
    3438:	01212823          	sw	s2,16(sp)
    343c:	01312623          	sw	s3,12(sp)
    3440:	00050493          	mv	s1,a0
    3444:	03000513          	li	a0,48
    3448:	eedff0ef          	jal	3334 <printc>
    344c:	07800513          	li	a0,120
    3450:	ee5ff0ef          	jal	3334 <printc>
    3454:	01c00413          	li	s0,28
    3458:	00900993          	li	s3,9
    345c:	ffc00913          	li	s2,-4
    3460:	0100006f          	j	3470 <print_hex32+0x48>
    3464:	ed1ff0ef          	jal	3334 <printc>
    3468:	ffc40413          	addi	s0,s0,-4
    346c:	01240e63          	beq	s0,s2,3488 <print_hex32+0x60>
    3470:	0084d7b3          	srl	a5,s1,s0
    3474:	00f7f793          	andi	a5,a5,15
    3478:	03778513          	addi	a0,a5,55
    347c:	fef9e4e3          	bltu	s3,a5,3464 <print_hex32+0x3c>
    3480:	03078513          	addi	a0,a5,48
    3484:	fe1ff06f          	j	3464 <print_hex32+0x3c>
    3488:	01c12083          	lw	ra,28(sp)
    348c:	01812403          	lw	s0,24(sp)
    3490:	01412483          	lw	s1,20(sp)
    3494:	01012903          	lw	s2,16(sp)
    3498:	00c12983          	lw	s3,12(sp)
    349c:	02010113          	addi	sp,sp,32
    34a0:	00008067          	ret

000034a4 <handle_exception>:
    34a4:	ff010113          	addi	sp,sp,-16
    34a8:	00112623          	sw	ra,12(sp)
    34ac:	00812423          	sw	s0,8(sp)
    34b0:	00050413          	mv	s0,a0
    34b4:	00200793          	li	a5,2
    34b8:	02f80e63          	beq	a6,a5,34f4 <handle_exception+0x50>
    34bc:	00b00793          	li	a5,11
    34c0:	04f80263          	beq	a6,a5,3504 <handle_exception+0x60>
    34c4:	06081a63          	bnez	a6,3538 <handle_exception+0x94>
    34c8:	00005537          	lui	a0,0x5
    34cc:	2cc50513          	addi	a0,a0,716 # 52cc <__global_pointer+0x13b4>
    34d0:	e85ff0ef          	jal	3354 <print>
    34d4:	00005537          	lui	a0,0x5
    34d8:	34050513          	addi	a0,a0,832 # 5340 <__global_pointer+0x1428>
    34dc:	e79ff0ef          	jal	3354 <print>
    34e0:	00040513          	mv	a0,s0
    34e4:	f45ff0ef          	jal	3428 <print_hex32>
    34e8:	00a00513          	li	a0,10
    34ec:	e49ff0ef          	jal	3334 <printc>
    34f0:	0000006f          	j	34f0 <handle_exception+0x4c>
    34f4:	00005537          	lui	a0,0x5
    34f8:	2fc50513          	addi	a0,a0,764 # 52fc <__global_pointer+0x13e4>
    34fc:	e59ff0ef          	jal	3354 <print>
    3500:	fd5ff06f          	j	34d4 <handle_exception+0x30>
    3504:	00400793          	li	a5,4
    3508:	00f88e63          	beq	a7,a5,3524 <handle_exception+0x80>
    350c:	00b00793          	li	a5,11
    3510:	00f88e63          	beq	a7,a5,352c <handle_exception+0x88>
    3514:	00c12083          	lw	ra,12(sp)
    3518:	00812403          	lw	s0,8(sp)
    351c:	01010113          	addi	sp,sp,16
    3520:	00008067          	ret
    3524:	e31ff0ef          	jal	3354 <print>
    3528:	fedff06f          	j	3514 <handle_exception+0x70>
    352c:	0ff57513          	zext.b	a0,a0
    3530:	e05ff0ef          	jal	3334 <printc>
    3534:	fe1ff06f          	j	3514 <handle_exception+0x70>
    3538:	00005537          	lui	a0,0x5
    353c:	32050513          	addi	a0,a0,800 # 5320 <__global_pointer+0x1408>
    3540:	e15ff0ef          	jal	3354 <print>
    3544:	f91ff06f          	j	34d4 <handle_exception+0x30>

00003548 <nextprime>:
    3548:	00050793          	mv	a5,a0
    354c:	00200713          	li	a4,2
    3550:	00a74e63          	blt	a4,a0,356c <nextprime+0x24>
    3554:	00100513          	li	a0,1
    3558:	04f05e63          	blez	a5,35b4 <nextprime+0x6c>
    355c:	fff78793          	addi	a5,a5,-1
    3560:	00f037b3          	snez	a5,a5
    3564:	00278513          	addi	a0,a5,2
    3568:	00008067          	ret
    356c:	00150793          	addi	a5,a0,1
    3570:	0017e513          	ori	a0,a5,1
    3574:	00100613          	li	a2,1
    3578:	00300593          	li	a1,3
    357c:	00c0006f          	j	3588 <nextprime+0x40>
    3580:	00008067          	ret
    3584:	00250513          	addi	a0,a0,2
    3588:	40155693          	srai	a3,a0,0x1
    358c:	fed65ce3          	bge	a2,a3,3584 <nextprime+0x3c>
    3590:	02b567b3          	rem	a5,a0,a1
    3594:	fe0788e3          	beqz	a5,3584 <nextprime+0x3c>
    3598:	00300793          	li	a5,3
    359c:	00078713          	mv	a4,a5
    35a0:	00178793          	addi	a5,a5,1
    35a4:	fce6cee3          	blt	a3,a4,3580 <nextprime+0x38>
    35a8:	02f56733          	rem	a4,a0,a5
    35ac:	fe0718e3          	bnez	a4,359c <nextprime+0x54>
    35b0:	fd5ff06f          	j	3584 <nextprime+0x3c>
    35b4:	00008067          	ret

Disassembly of section .data:

000035b8 <welcome_msg>:
    35b8:	3d3d                	.insn	2, 0x3d3d
    35ba:	3d3d                	.insn	2, 0x3d3d
    35bc:	3d3d                	.insn	2, 0x3d3d
    35be:	3d3d                	.insn	2, 0x3d3d
    35c0:	3d3d                	.insn	2, 0x3d3d
    35c2:	3d3d                	.insn	2, 0x3d3d
    35c4:	3d3d                	.insn	2, 0x3d3d
    35c6:	3d3d                	.insn	2, 0x3d3d
    35c8:	3d3d                	.insn	2, 0x3d3d
    35ca:	3d3d                	.insn	2, 0x3d3d
    35cc:	3d3d                	.insn	2, 0x3d3d
    35ce:	3d3d                	.insn	2, 0x3d3d
    35d0:	3d3d                	.insn	2, 0x3d3d
    35d2:	3d3d                	.insn	2, 0x3d3d
    35d4:	3d3d                	.insn	2, 0x3d3d
    35d6:	3d3d                	.insn	2, 0x3d3d
    35d8:	3d3d                	.insn	2, 0x3d3d
    35da:	3d3d                	.insn	2, 0x3d3d
    35dc:	3d3d                	.insn	2, 0x3d3d
    35de:	3d3d                	.insn	2, 0x3d3d
    35e0:	3d3d                	.insn	2, 0x3d3d
    35e2:	3d3d                	.insn	2, 0x3d3d
    35e4:	3d3d                	.insn	2, 0x3d3d
    35e6:	3d3d                	.insn	2, 0x3d3d
    35e8:	3d0a                	.insn	2, 0x3d0a
    35ea:	3d3d                	.insn	2, 0x3d3d
    35ec:	3d3d                	.insn	2, 0x3d3d
    35ee:	5220                	.insn	2, 0x5220
    35f0:	5349                	.insn	2, 0x5349
    35f2:	20562d43          	.insn	4, 0x20562d43
    35f6:	6f42                	.insn	2, 0x6f42
    35f8:	552d746f          	jal	s0,dab4a <__global_pointer+0xd6c32>
    35fc:	2070                	.insn	2, 0x2070
    35fe:	7250                	.insn	2, 0x7250
    3600:	7365636f          	jal	t1,59d36 <__global_pointer+0x55e1e>
    3604:	6f4e2073          	csrs	0x6f4,t3
    3608:	6f432077          	.insn	4, 0x6f432077
    360c:	706d                	.insn	2, 0x706d
    360e:	656c                	.insn	2, 0x656c
    3610:	6574                	.insn	2, 0x6574
    3612:	3d20                	.insn	2, 0x3d20
    3614:	3d3d                	.insn	2, 0x3d3d
    3616:	3d3d                	.insn	2, 0x3d3d
    3618:	0a3d                	.insn	2, 0x0a3d
    361a:	3d3d                	.insn	2, 0x3d3d
    361c:	3d3d                	.insn	2, 0x3d3d
    361e:	3d3d                	.insn	2, 0x3d3d
    3620:	3d3d                	.insn	2, 0x3d3d
    3622:	3d3d                	.insn	2, 0x3d3d
    3624:	3d3d                	.insn	2, 0x3d3d
    3626:	3d3d                	.insn	2, 0x3d3d
    3628:	3d3d                	.insn	2, 0x3d3d
    362a:	3d3d                	.insn	2, 0x3d3d
    362c:	3d3d                	.insn	2, 0x3d3d
    362e:	3d3d                	.insn	2, 0x3d3d
    3630:	3d3d                	.insn	2, 0x3d3d
    3632:	3d3d                	.insn	2, 0x3d3d
    3634:	3d3d                	.insn	2, 0x3d3d
    3636:	3d3d                	.insn	2, 0x3d3d
    3638:	3d3d                	.insn	2, 0x3d3d
    363a:	3d3d                	.insn	2, 0x3d3d
    363c:	3d3d                	.insn	2, 0x3d3d
    363e:	3d3d                	.insn	2, 0x3d3d
    3640:	3d3d                	.insn	2, 0x3d3d
    3642:	3d3d                	.insn	2, 0x3d3d
    3644:	3d3d                	.insn	2, 0x3d3d
    3646:	3d3d                	.insn	2, 0x3d3d
    3648:	3d3d                	.insn	2, 0x3d3d
    364a:	000a                	.insn	2, 0x000a

0000364c <COLLECTIBLE_NAMES>:
    364c:	39e0                	.insn	2, 0x39e0
    364e:	0000                	.insn	2, 0x
    3650:	39ec                	.insn	2, 0x39ec
    3652:	0000                	.insn	2, 0x
    3654:	39f8                	.insn	2, 0x39f8
    3656:	0000                	.insn	2, 0x
    3658:	3a0c                	.insn	2, 0x3a0c
    365a:	0000                	.insn	2, 0x
    365c:	3a18                	.insn	2, 0x3a18
    365e:	0000                	.insn	2, 0x
    3660:	3a24                	.insn	2, 0x3a24
    3662:	0000                	.insn	2, 0x
    3664:	3a34                	.insn	2, 0x3a34
    3666:	0000                	.insn	2, 0x
    3668:	3a38                	.insn	2, 0x3a38
    366a:	0000                	.insn	2, 0x
    366c:	3a40                	.insn	2, 0x3a40
    366e:	0000                	.insn	2, 0x
    3670:	3a50                	.insn	2, 0x3a50
    3672:	0000                	.insn	2, 0x
    3674:	3a58                	.insn	2, 0x3a58
    3676:	0000                	.insn	2, 0x
    3678:	3a64                	.insn	2, 0x3a64
    367a:	0000                	.insn	2, 0x
    367c:	3a6c                	.insn	2, 0x3a6c
    367e:	0000                	.insn	2, 0x
    3680:	3a70                	.insn	2, 0x3a70
    3682:	0000                	.insn	2, 0x
    3684:	3a7c                	.insn	2, 0x3a7c
    3686:	0000                	.insn	2, 0x
    3688:	3a88                	.insn	2, 0x3a88
    368a:	0000                	.insn	2, 0x
    368c:	3a90                	.insn	2, 0x3a90
	...

00003690 <TILETYPE_MAP_NAMES>:
    3690:	3a9c                	.insn	2, 0x3a9c
    3692:	0000                	.insn	2, 0x
    3694:	3aa4                	.insn	2, 0x3aa4
    3696:	0000                	.insn	2, 0x
    3698:	3ab0                	.insn	2, 0x3ab0
    369a:	0000                	.insn	2, 0x
    369c:	3ab8                	.insn	2, 0x3ab8
    369e:	0000                	.insn	2, 0x
    36a0:	3ac0                	.insn	2, 0x3ac0
    36a2:	0000                	.insn	2, 0x
    36a4:	3ac8                	.insn	2, 0x3ac8
    36a6:	0000                	.insn	2, 0x
    36a8:	3ad0                	.insn	2, 0x3ad0
    36aa:	0000                	.insn	2, 0x
    36ac:	3ad8                	.insn	2, 0x3ad8
    36ae:	0000                	.insn	2, 0x
    36b0:	3ae0                	.insn	2, 0x3ae0
    36b2:	0000                	.insn	2, 0x
    36b4:	3aec                	.insn	2, 0x3aec
    36b6:	0000                	.insn	2, 0x
    36b8:	3af0                	.insn	2, 0x3af0
    36ba:	0000                	.insn	2, 0x
    36bc:	3af8                	.insn	2, 0x3af8
    36be:	0000                	.insn	2, 0x
    36c0:	3b00                	.insn	2, 0x3b00
    36c2:	0000                	.insn	2, 0x
    36c4:	3b08                	.insn	2, 0x3b08
    36c6:	0000                	.insn	2, 0x
    36c8:	3b14                	.insn	2, 0x3b14
    36ca:	0000                	.insn	2, 0x
    36cc:	3b1c                	.insn	2, 0x3b1c
    36ce:	0000                	.insn	2, 0x
    36d0:	3b24                	.insn	2, 0x3b24
	...

000036d4 <TILETYPE_NAMES>:
    36d4:	3b28                	.insn	2, 0x3b28
    36d6:	0000                	.insn	2, 0x
    36d8:	3b30                	.insn	2, 0x3b30
    36da:	0000                	.insn	2, 0x
    36dc:	3b3c                	.insn	2, 0x3b3c
    36de:	0000                	.insn	2, 0x
    36e0:	3b44                	.insn	2, 0x3b44
    36e2:	0000                	.insn	2, 0x
    36e4:	3b50                	.insn	2, 0x3b50
    36e6:	0000                	.insn	2, 0x
    36e8:	3b5c                	.insn	2, 0x3b5c
    36ea:	0000                	.insn	2, 0x
    36ec:	3b68                	.insn	2, 0x3b68
    36ee:	0000                	.insn	2, 0x
    36f0:	3b70                	.insn	2, 0x3b70
    36f2:	0000                	.insn	2, 0x
    36f4:	3b80                	.insn	2, 0x3b80
    36f6:	0000                	.insn	2, 0x
    36f8:	3b8c                	.insn	2, 0x3b8c
    36fa:	0000                	.insn	2, 0x
    36fc:	3b98                	.insn	2, 0x3b98
    36fe:	0000                	.insn	2, 0x
    3700:	3ba0                	.insn	2, 0x3ba0
    3702:	0000                	.insn	2, 0x
    3704:	3bac                	.insn	2, 0x3bac
    3706:	0000                	.insn	2, 0x
    3708:	3bb4                	.insn	2, 0x3bb4
    370a:	0000                	.insn	2, 0x
    370c:	3bbc                	.insn	2, 0x3bbc
    370e:	0000                	.insn	2, 0x
    3710:	3bc4                	.insn	2, 0x3bc4
    3712:	0000                	.insn	2, 0x
    3714:	4018                	.insn	2, 0x4018
	...

00003718 <game_running>:
    3718:	0001                	.insn	2, 0x0001
	...

0000371c <timer_periodh>:
    371c:	002c                	.insn	2, 0x002c
    371e:	0400                	.insn	2, 0x0400

00003720 <timer_periodl>:
    3720:	0028                	.insn	2, 0x0028
    3722:	0400                	.insn	2, 0x0400

00003724 <timer_control>:
    3724:	0024                	.insn	2, 0x0024
    3726:	0400                	.insn	2, 0x0400

00003728 <timer_status>:
    3728:	0020                	.insn	2, 0x0020
    372a:	0400                	.insn	2, 0x0400

0000372c <led_start>:
    372c:	0000                	.insn	2, 0x
    372e:	0400                	.insn	2, 0x0400

Disassembly of section .rodata:

00003748 <.rodata>:
    3748:	0be0                	.insn	2, 0x0be0
    374a:	0000                	.insn	2, 0x
    374c:	17dc                	.insn	2, 0x17dc
    374e:	0000                	.insn	2, 0x
    3750:	1004                	.insn	2, 0x1004
    3752:	0000                	.insn	2, 0x
    3754:	1228                	.insn	2, 0x1228
    3756:	0000                	.insn	2, 0x
    3758:	1274                	.insn	2, 0x1274
    375a:	0000                	.insn	2, 0x
    375c:	130c                	.insn	2, 0x130c
    375e:	0000                	.insn	2, 0x
    3760:	13a0                	.insn	2, 0x13a0
    3762:	0000                	.insn	2, 0x
    3764:	13c0                	.insn	2, 0x13c0
    3766:	0000                	.insn	2, 0x
    3768:	1410                	.insn	2, 0x1410
    376a:	0000                	.insn	2, 0x
    376c:	1620                	.insn	2, 0x1620
    376e:	0000                	.insn	2, 0x
    3770:	1654                	.insn	2, 0x1654
    3772:	0000                	.insn	2, 0x
    3774:	1698                	.insn	2, 0x1698
    3776:	0000                	.insn	2, 0x
    3778:	16cc                	.insn	2, 0x16cc
    377a:	0000                	.insn	2, 0x
    377c:	1710                	.insn	2, 0x1710
    377e:	0000                	.insn	2, 0x
    3780:	1754                	.insn	2, 0x1754
    3782:	0000                	.insn	2, 0x
    3784:	1798                	.insn	2, 0x1798
    3786:	0000                	.insn	2, 0x
    3788:	10b0                	.insn	2, 0x10b0
    378a:	0000                	.insn	2, 0x
    378c:	10cc                	.insn	2, 0x10cc
    378e:	0000                	.insn	2, 0x
    3790:	1174                	.insn	2, 0x1174
    3792:	0000                	.insn	2, 0x
    3794:	10e0                	.insn	2, 0x10e0
    3796:	0000                	.insn	2, 0x
    3798:	1174                	.insn	2, 0x1174
    379a:	0000                	.insn	2, 0x
    379c:	1174                	.insn	2, 0x1174
    379e:	0000                	.insn	2, 0x
    37a0:	1174                	.insn	2, 0x1174
    37a2:	0000                	.insn	2, 0x
    37a4:	10f4                	.insn	2, 0x10f4
    37a6:	0000                	.insn	2, 0x
    37a8:	1174                	.insn	2, 0x1174
    37aa:	0000                	.insn	2, 0x
    37ac:	1174                	.insn	2, 0x1174
    37ae:	0000                	.insn	2, 0x
    37b0:	1174                	.insn	2, 0x1174
    37b2:	0000                	.insn	2, 0x
    37b4:	1174                	.insn	2, 0x1174
    37b6:	0000                	.insn	2, 0x
    37b8:	1174                	.insn	2, 0x1174
    37ba:	0000                	.insn	2, 0x
    37bc:	1174                	.insn	2, 0x1174
    37be:	0000                	.insn	2, 0x
    37c0:	1174                	.insn	2, 0x1174
    37c2:	0000                	.insn	2, 0x
    37c4:	1108                	.insn	2, 0x1108
    37c6:	0000                	.insn	2, 0x
    37c8:	1174                	.insn	2, 0x1174
    37ca:	0000                	.insn	2, 0x
    37cc:	1174                	.insn	2, 0x1174
    37ce:	0000                	.insn	2, 0x
    37d0:	1174                	.insn	2, 0x1174
    37d2:	0000                	.insn	2, 0x
    37d4:	1174                	.insn	2, 0x1174
    37d6:	0000                	.insn	2, 0x
    37d8:	1174                	.insn	2, 0x1174
    37da:	0000                	.insn	2, 0x
    37dc:	1174                	.insn	2, 0x1174
    37de:	0000                	.insn	2, 0x
    37e0:	1174                	.insn	2, 0x1174
    37e2:	0000                	.insn	2, 0x
    37e4:	1174                	.insn	2, 0x1174
    37e6:	0000                	.insn	2, 0x
    37e8:	1174                	.insn	2, 0x1174
    37ea:	0000                	.insn	2, 0x
    37ec:	1174                	.insn	2, 0x1174
    37ee:	0000                	.insn	2, 0x
    37f0:	1174                	.insn	2, 0x1174
    37f2:	0000                	.insn	2, 0x
    37f4:	1174                	.insn	2, 0x1174
    37f6:	0000                	.insn	2, 0x
    37f8:	1174                	.insn	2, 0x1174
    37fa:	0000                	.insn	2, 0x
    37fc:	1174                	.insn	2, 0x1174
    37fe:	0000                	.insn	2, 0x
    3800:	1174                	.insn	2, 0x1174
    3802:	0000                	.insn	2, 0x
    3804:	111c                	.insn	2, 0x111c
    3806:	0000                	.insn	2, 0x
    3808:	26dc                	.insn	2, 0x26dc
    380a:	0000                	.insn	2, 0x
    380c:	2768                	.insn	2, 0x2768
    380e:	0000                	.insn	2, 0x
    3810:	2700                	.insn	2, 0x2700
    3812:	0000                	.insn	2, 0x
    3814:	2708                	.insn	2, 0x2708
    3816:	0000                	.insn	2, 0x
    3818:	2710                	.insn	2, 0x2710
    381a:	0000                	.insn	2, 0x
    381c:	2718                	.insn	2, 0x2718
    381e:	0000                	.insn	2, 0x
    3820:	2720                	.insn	2, 0x2720
    3822:	0000                	.insn	2, 0x
    3824:	2728                	.insn	2, 0x2728
    3826:	0000                	.insn	2, 0x
    3828:	2730                	.insn	2, 0x2730
    382a:	0000                	.insn	2, 0x
    382c:	2738                	.insn	2, 0x2738
    382e:	0000                	.insn	2, 0x
    3830:	2740                	.insn	2, 0x2740
    3832:	0000                	.insn	2, 0x
    3834:	2748                	.insn	2, 0x2748
    3836:	0000                	.insn	2, 0x
    3838:	2750                	.insn	2, 0x2750
    383a:	0000                	.insn	2, 0x
    383c:	2758                	.insn	2, 0x2758
    383e:	0000                	.insn	2, 0x
    3840:	26dc                	.insn	2, 0x26dc
    3842:	0000                	.insn	2, 0x
    3844:	26dc                	.insn	2, 0x26dc
    3846:	0000                	.insn	2, 0x
    3848:	26dc                	.insn	2, 0x26dc
    384a:	0000                	.insn	2, 0x
    384c:	26dc                	.insn	2, 0x26dc
    384e:	0000                	.insn	2, 0x
    3850:	26dc                	.insn	2, 0x26dc
    3852:	0000                	.insn	2, 0x
    3854:	26dc                	.insn	2, 0x26dc
    3856:	0000                	.insn	2, 0x
    3858:	26dc                	.insn	2, 0x26dc
    385a:	0000                	.insn	2, 0x
    385c:	26dc                	.insn	2, 0x26dc
    385e:	0000                	.insn	2, 0x
    3860:	26dc                	.insn	2, 0x26dc
    3862:	0000                	.insn	2, 0x
    3864:	26dc                	.insn	2, 0x26dc
    3866:	0000                	.insn	2, 0x
    3868:	26dc                	.insn	2, 0x26dc
    386a:	0000                	.insn	2, 0x
    386c:	26dc                	.insn	2, 0x26dc
    386e:	0000                	.insn	2, 0x
    3870:	26dc                	.insn	2, 0x26dc
    3872:	0000                	.insn	2, 0x
    3874:	26dc                	.insn	2, 0x26dc
    3876:	0000                	.insn	2, 0x
    3878:	26dc                	.insn	2, 0x26dc
    387a:	0000                	.insn	2, 0x
    387c:	26dc                	.insn	2, 0x26dc
    387e:	0000                	.insn	2, 0x
    3880:	26dc                	.insn	2, 0x26dc
    3882:	0000                	.insn	2, 0x
    3884:	26dc                	.insn	2, 0x26dc
    3886:	0000                	.insn	2, 0x
    3888:	26dc                	.insn	2, 0x26dc
    388a:	0000                	.insn	2, 0x
    388c:	26dc                	.insn	2, 0x26dc
    388e:	0000                	.insn	2, 0x
    3890:	26dc                	.insn	2, 0x26dc
    3892:	0000                	.insn	2, 0x
    3894:	26dc                	.insn	2, 0x26dc
    3896:	0000                	.insn	2, 0x
    3898:	26dc                	.insn	2, 0x26dc
    389a:	0000                	.insn	2, 0x
    389c:	26dc                	.insn	2, 0x26dc
    389e:	0000                	.insn	2, 0x
    38a0:	26dc                	.insn	2, 0x26dc
    38a2:	0000                	.insn	2, 0x
    38a4:	26dc                	.insn	2, 0x26dc
    38a6:	0000                	.insn	2, 0x
    38a8:	26dc                	.insn	2, 0x26dc
    38aa:	0000                	.insn	2, 0x
    38ac:	26dc                	.insn	2, 0x26dc
    38ae:	0000                	.insn	2, 0x
    38b0:	26dc                	.insn	2, 0x26dc
    38b2:	0000                	.insn	2, 0x
    38b4:	26dc                	.insn	2, 0x26dc
    38b6:	0000                	.insn	2, 0x
    38b8:	26dc                	.insn	2, 0x26dc
    38ba:	0000                	.insn	2, 0x
    38bc:	26dc                	.insn	2, 0x26dc
    38be:	0000                	.insn	2, 0x
    38c0:	26dc                	.insn	2, 0x26dc
    38c2:	0000                	.insn	2, 0x
    38c4:	26dc                	.insn	2, 0x26dc
    38c6:	0000                	.insn	2, 0x
    38c8:	26dc                	.insn	2, 0x26dc
    38ca:	0000                	.insn	2, 0x
    38cc:	26dc                	.insn	2, 0x26dc
    38ce:	0000                	.insn	2, 0x
    38d0:	26dc                	.insn	2, 0x26dc
    38d2:	0000                	.insn	2, 0x
    38d4:	26dc                	.insn	2, 0x26dc
    38d6:	0000                	.insn	2, 0x
    38d8:	26dc                	.insn	2, 0x26dc
    38da:	0000                	.insn	2, 0x
    38dc:	26dc                	.insn	2, 0x26dc
    38de:	0000                	.insn	2, 0x
    38e0:	26dc                	.insn	2, 0x26dc
    38e2:	0000                	.insn	2, 0x
    38e4:	26dc                	.insn	2, 0x26dc
    38e6:	0000                	.insn	2, 0x
    38e8:	26dc                	.insn	2, 0x26dc
    38ea:	0000                	.insn	2, 0x
    38ec:	26dc                	.insn	2, 0x26dc
    38ee:	0000                	.insn	2, 0x
    38f0:	26dc                	.insn	2, 0x26dc
    38f2:	0000                	.insn	2, 0x
    38f4:	26dc                	.insn	2, 0x26dc
    38f6:	0000                	.insn	2, 0x
    38f8:	26dc                	.insn	2, 0x26dc
    38fa:	0000                	.insn	2, 0x
    38fc:	26dc                	.insn	2, 0x26dc
    38fe:	0000                	.insn	2, 0x
    3900:	26dc                	.insn	2, 0x26dc
    3902:	0000                	.insn	2, 0x
    3904:	26dc                	.insn	2, 0x26dc
    3906:	0000                	.insn	2, 0x
    3908:	26dc                	.insn	2, 0x26dc
    390a:	0000                	.insn	2, 0x
    390c:	26dc                	.insn	2, 0x26dc
    390e:	0000                	.insn	2, 0x
    3910:	26dc                	.insn	2, 0x26dc
    3912:	0000                	.insn	2, 0x
    3914:	26dc                	.insn	2, 0x26dc
    3916:	0000                	.insn	2, 0x
    3918:	26dc                	.insn	2, 0x26dc
    391a:	0000                	.insn	2, 0x
    391c:	26dc                	.insn	2, 0x26dc
    391e:	0000                	.insn	2, 0x
    3920:	26dc                	.insn	2, 0x26dc
    3922:	0000                	.insn	2, 0x
    3924:	26dc                	.insn	2, 0x26dc
    3926:	0000                	.insn	2, 0x
    3928:	26dc                	.insn	2, 0x26dc
    392a:	0000                	.insn	2, 0x
    392c:	26dc                	.insn	2, 0x26dc
    392e:	0000                	.insn	2, 0x
    3930:	26dc                	.insn	2, 0x26dc
    3932:	0000                	.insn	2, 0x
    3934:	26dc                	.insn	2, 0x26dc
    3936:	0000                	.insn	2, 0x
    3938:	26dc                	.insn	2, 0x26dc
    393a:	0000                	.insn	2, 0x
    393c:	26dc                	.insn	2, 0x26dc
    393e:	0000                	.insn	2, 0x
    3940:	26dc                	.insn	2, 0x26dc
    3942:	0000                	.insn	2, 0x
    3944:	26dc                	.insn	2, 0x26dc
    3946:	0000                	.insn	2, 0x
    3948:	26dc                	.insn	2, 0x26dc
    394a:	0000                	.insn	2, 0x
    394c:	26dc                	.insn	2, 0x26dc
    394e:	0000                	.insn	2, 0x
    3950:	26dc                	.insn	2, 0x26dc
    3952:	0000                	.insn	2, 0x
    3954:	26dc                	.insn	2, 0x26dc
    3956:	0000                	.insn	2, 0x
    3958:	26dc                	.insn	2, 0x26dc
    395a:	0000                	.insn	2, 0x
    395c:	26dc                	.insn	2, 0x26dc
    395e:	0000                	.insn	2, 0x
    3960:	26dc                	.insn	2, 0x26dc
    3962:	0000                	.insn	2, 0x
    3964:	26dc                	.insn	2, 0x26dc
    3966:	0000                	.insn	2, 0x
    3968:	26dc                	.insn	2, 0x26dc
    396a:	0000                	.insn	2, 0x
    396c:	26dc                	.insn	2, 0x26dc
    396e:	0000                	.insn	2, 0x
    3970:	26dc                	.insn	2, 0x26dc
    3972:	0000                	.insn	2, 0x
    3974:	26dc                	.insn	2, 0x26dc
    3976:	0000                	.insn	2, 0x
    3978:	26dc                	.insn	2, 0x26dc
    397a:	0000                	.insn	2, 0x
    397c:	26dc                	.insn	2, 0x26dc
    397e:	0000                	.insn	2, 0x
    3980:	26dc                	.insn	2, 0x26dc
    3982:	0000                	.insn	2, 0x
    3984:	26dc                	.insn	2, 0x26dc
    3986:	0000                	.insn	2, 0x
    3988:	26dc                	.insn	2, 0x26dc
    398a:	0000                	.insn	2, 0x
    398c:	26dc                	.insn	2, 0x26dc
    398e:	0000                	.insn	2, 0x
    3990:	26dc                	.insn	2, 0x26dc
    3992:	0000                	.insn	2, 0x
    3994:	26dc                	.insn	2, 0x26dc
    3996:	0000                	.insn	2, 0x
    3998:	2760                	.insn	2, 0x2760
    399a:	0000                	.insn	2, 0x
    399c:	30e4                	.insn	2, 0x30e4
    399e:	0000                	.insn	2, 0x
    39a0:	30fc                	.insn	2, 0x30fc
    39a2:	0000                	.insn	2, 0x
    39a4:	3118                	.insn	2, 0x3118
    39a6:	0000                	.insn	2, 0x
    39a8:	313c                	.insn	2, 0x313c
    39aa:	0000                	.insn	2, 0x
    39ac:	3160                	.insn	2, 0x3160
    39ae:	0000                	.insn	2, 0x
    39b0:	3168                	.insn	2, 0x3168
    39b2:	0000                	.insn	2, 0x
    39b4:	3184                	.insn	2, 0x3184
    39b6:	0000                	.insn	2, 0x
    39b8:	31a0                	.insn	2, 0x31a0
    39ba:	0000                	.insn	2, 0x
    39bc:	31cc                	.insn	2, 0x31cc
    39be:	0000                	.insn	2, 0x
    39c0:	31ec                	.insn	2, 0x31ec
    39c2:	0000                	.insn	2, 0x
    39c4:	320c                	.insn	2, 0x320c
    39c6:	0000                	.insn	2, 0x
    39c8:	3234                	.insn	2, 0x3234
    39ca:	0000                	.insn	2, 0x
    39cc:	3254                	.insn	2, 0x3254
    39ce:	0000                	.insn	2, 0x
    39d0:	3280                	.insn	2, 0x3280
    39d2:	0000                	.insn	2, 0x
    39d4:	32ac                	.insn	2, 0x32ac
    39d6:	0000                	.insn	2, 0x
    39d8:	32d8                	.insn	2, 0x32d8
    39da:	0000                	.insn	2, 0x
    39dc:	32f8                	.insn	2, 0x32f8
	...

Disassembly of section .rodata.str1.4:

000039e0 <.rodata.str1.4>:
    39e0:	6d45                	.insn	2, 0x6d45
    39e2:	7470                	.insn	2, 0x7470
    39e4:	2079                	.insn	2, 0x2079
    39e6:	746f6c53          	.insn	4, 0x746f6c53
    39ea:	0000                	.insn	2, 0x
    39ec:	6154                	.insn	2, 0x6154
    39ee:	6472                	.insn	2, 0x6472
    39f0:	6769                	.insn	2, 0x6769
    39f2:	6172                	.insn	2, 0x6172
    39f4:	6564                	.insn	2, 0x6564
    39f6:	65530073          	.insn	4, 0x65530073
    39fa:	6964                	.insn	2, 0x6964
    39fc:	656d                	.insn	2, 0x656d
    39fe:	746e                	.insn	2, 0x746e
    3a00:	7261                	.insn	2, 0x7261
    3a02:	2079                	.insn	2, 0x2079
    3a04:	614c                	.insn	2, 0x614c
    3a06:	6579                	.insn	2, 0x6579
    3a08:	7372                	.insn	2, 0x7372
    3a0a:	0000                	.insn	2, 0x
    3a0c:	5352                	.insn	2, 0x5352
    3a0e:	204c                	.insn	2, 0x204c
    3a10:	6d49                	.insn	2, 0x6d49
    3a12:	6761                	.insn	2, 0x6761
    3a14:	7365                	.insn	2, 0x7365
    3a16:	0000                	.insn	2, 0x
    3a18:	6c41                	.insn	2, 0x6c41
    3a1a:	6569                	.insn	2, 0x6569
    3a1c:	206e                	.insn	2, 0x206e
    3a1e:	6f42                	.insn	2, 0x6f42
    3a20:	656e                	.insn	2, 0x656e
    3a22:	6c4f0073          	.insn	4, 0x6c4f0073
    3a26:	2064                	.insn	2, 0x2064
    3a28:	6f52                	.insn	2, 0x6f52
    3a2a:	6576                	.insn	2, 0x6576
    3a2c:	2072                	.insn	2, 0x2072
    3a2e:	6150                	.insn	2, 0x6150
    3a30:	7472                	.insn	2, 0x7472
    3a32:	63490073          	.insn	4, 0x63490073
    3a36:	0065                	.insn	2, 0x0065
    3a38:	6f46                	.insn	2, 0x6f46
    3a3a:	0000646f          	jal	s0,9a3a <__global_pointer+0x5b22>
    3a3e:	0000                	.insn	2, 0x
    3a40:	6f42                	.insn	2, 0x6f42
    3a42:	7474                	.insn	2, 0x7474
    3a44:	656c                	.insn	2, 0x656c
    3a46:	6f20                	.insn	2, 0x6f20
    3a48:	2066                	.insn	2, 0x2066
    3a4a:	65746157          	.insn	4, 0x65746157
    3a4e:	0072                	.insn	2, 0x0072
    3a50:	7546                	.insn	2, 0x7546
    3a52:	6c65                	.insn	2, 0x6c65
    3a54:	0000                	.insn	2, 0x
    3a56:	0000                	.insn	2, 0x
    3a58:	654d                	.insn	2, 0x654d
    3a5a:	6964                	.insn	2, 0x6964
    3a5c:	206c6163          	bltu	s8,t1,3c5e <timeoutcount+0x51a>
    3a60:	0074696b          	.insn	4, 0x0074696b
    3a64:	6f54                	.insn	2, 0x6f54
    3a66:	6f626c6f          	jal	s8,2a15c <__global_pointer+0x26244>
    3a6a:	0078                	.insn	2, 0x0078
    3a6c:	614d                	.insn	2, 0x614d
    3a6e:	0070                	.insn	2, 0x0070
    3a70:	72617053          	.insn	4, 0x72617053
    3a74:	2065                	.insn	2, 0x2065
    3a76:	6170                	.insn	2, 0x6170
    3a78:	7472                	.insn	2, 0x7472
    3a7a:	65540073          	.insn	4, 0x65540073
    3a7e:	6464                	.insn	2, 0x6464
    3a80:	2079                	.insn	2, 0x2079
    3a82:	6562                	.insn	2, 0x6562
    3a84:	7261                	.insn	2, 0x7261
    3a86:	0000                	.insn	2, 0x
    3a88:	6c42                	.insn	2, 0x6c42
    3a8a:	6e61                	.insn	2, 0x6e61
    3a8c:	0074656b          	.insn	4, 0x0074656b
    3a90:	746f6c43          	.insn	4, 0x746f6c43
    3a94:	6968                	.insn	2, 0x6968
    3a96:	676e                	.insn	2, 0x676e
    3a98:	0000                	.insn	2, 0x
    3a9a:	0000                	.insn	2, 0x
    3a9c:	9ff0                	.insn	2, 0x9ff0
    3a9e:	0000a693          	slti	a3,ra,0
    3aa2:	0000                	.insn	2, 0x
    3aa4:	9ff0                	.insn	2, 0x9ff0
    3aa6:	b8ef8f9b          	.insn	4, 0xb8ef8f9b
    3aaa:	0000208f          	.insn	4, 0x208f
    3aae:	0000                	.insn	2, 0x
    3ab0:	9ff0                	.insn	2, 0x9ff0
    3ab2:	809a                	.insn	2, 0x809a
    3ab4:	0000                	.insn	2, 0x
    3ab6:	0000                	.insn	2, 0x
    3ab8:	9ff0                	.insn	2, 0x9ff0
    3aba:	a1a5                	.insn	2, 0xa1a5
    3abc:	0000                	.insn	2, 0x
    3abe:	0000                	.insn	2, 0x
    3ac0:	9ff0                	.insn	2, 0x9ff0
    3ac2:	a892                	.insn	2, 0xa892
    3ac4:	0000                	.insn	2, 0x
    3ac6:	0000                	.insn	2, 0x
    3ac8:	9ff0                	.insn	2, 0x9ff0
    3aca:	0000aaa7          	.insn	4, 0xaaa7
    3ace:	0000                	.insn	2, 0x
    3ad0:	9ff0                	.insn	2, 0x9ff0
    3ad2:	aa9a                	.insn	2, 0xaa9a
    3ad4:	0000                	.insn	2, 0x
    3ad6:	0000                	.insn	2, 0x
    3ad8:	9ff0                	.insn	2, 0x9ff0
    3ada:	00008d93          	mv	s11,ra
    3ade:	0000                	.insn	2, 0x
    3ae0:	9ff0                	.insn	2, 0x9ff0
    3ae2:	b8ef9c8f          	.insn	4, 0xb8ef9c8f
    3ae6:	0000208f          	.insn	4, 0x208f
    3aea:	0000                	.insn	2, 0x
    3aec:	8fe2                	.insn	2, 0x8fe2
    3aee:	9ff000b3          	.insn	4, 0x9ff000b3
    3af2:	00008aa7          	.insn	4, 0x8aa7
    3af6:	0000                	.insn	2, 0x
    3af8:	9ff0                	.insn	2, 0x9ff0
    3afa:	a8aa                	.insn	2, 0xa8aa
    3afc:	0020                	.insn	2, 0x0020
    3afe:	0000                	.insn	2, 0x
    3b00:	9ff0                	.insn	2, 0x9ff0
    3b02:	87a6                	.insn	2, 0x87a6
    3b04:	0000                	.insn	2, 0x
    3b06:	0000                	.insn	2, 0x
    3b08:	9ff0                	.insn	2, 0x9ff0
    3b0a:	b395                	.insn	2, 0xb395
    3b0c:	208fb8ef          	jal	a7,fed14 <__global_pointer+0xfadfc>
    3b10:	0000                	.insn	2, 0x
    3b12:	0000                	.insn	2, 0x
    3b14:	9ff0                	.insn	2, 0x9ff0
    3b16:	000097a7          	.insn	4, 0x97a7
    3b1a:	0000                	.insn	2, 0x
    3b1c:	9be2                	.insn	2, 0x9be2
    3b1e:	efb0                	.insn	2, 0xefb0
    3b20:	8fb8                	.insn	2, 0x8fb8
    3b22:	0020                	.insn	2, 0x0020
    3b24:	2020                	.insn	2, 0x2020
    3b26:	0000                	.insn	2, 0x
    3b28:	524f5453          	.insn	4, 0x524f5453
    3b2c:	4741                	.insn	2, 0x4741
    3b2e:	0045                	.insn	2, 0x0045
    3b30:	4d414843          	.insn	4, 0x4d414843
    3b34:	4542                	.insn	2, 0x4542
    3b36:	5352                	.insn	2, 0x5352
    3b38:	0000                	.insn	2, 0x
    3b3a:	0000                	.insn	2, 0x
    3b3c:	4b434f43          	.insn	4, 0x4b434f43
    3b40:	4950                	.insn	2, 0x4950
    3b42:	0054                	.insn	2, 0x0054
    3b44:	45464143          	.insn	4, 0x45464143
    3b48:	4554                	.insn	2, 0x4554
    3b4a:	4952                	.insn	2, 0x4952
    3b4c:	0041                	.insn	2, 0x0041
    3b4e:	0000                	.insn	2, 0x
    3b50:	4e45                	.insn	2, 0x4e45
    3b52:	454e4947          	.insn	4, 0x454e4947
    3b56:	425f 5941 0000      	.insn	6, 0x5941425f
    3b5c:	414c                	.insn	2, 0x414c
    3b5e:	4f42                	.insn	2, 0x4f42
    3b60:	4152                	.insn	2, 0x4152
    3b62:	4f54                	.insn	2, 0x4f54
    3b64:	5952                	.insn	2, 0x5952
    3b66:	0000                	.insn	2, 0x
    3b68:	4941                	.insn	2, 0x4941
    3b6a:	4c52                	.insn	2, 0x4c52
    3b6c:	004b434f          	.insn	4, 0x004b434f
    3b70:	414c                	.insn	2, 0x414c
    3b72:	444e                	.insn	2, 0x444e
    3b74:	4e49                	.insn	2, 0x4e49
    3b76:	49532047          	.insn	4, 0x49532047
    3b7a:	4554                	.insn	2, 0x4554
    3b7c:	0000                	.insn	2, 0x
    3b7e:	0000                	.insn	2, 0x
    3b80:	54534157          	.insn	4, 0x54534157
    3b84:	4c45                	.insn	2, 0x4c45
    3b86:	4e41                	.insn	2, 0x4e41
    3b88:	0044                	.insn	2, 0x0044
    3b8a:	0000                	.insn	2, 0x
    3b8c:	4f4c                	.insn	2, 0x4f4c
    3b8e:	2045534f          	.insn	4, 0x2045534f
    3b92:	4c494f53          	.insn	4, 0x4c494f53
    3b96:	0000                	.insn	2, 0x
    3b98:	4f50                	.insn	2, 0x4f50
    3b9a:	444e                	.insn	2, 0x444e
    3b9c:	0000                	.insn	2, 0x
    3b9e:	0000                	.insn	2, 0x
    3ba0:	52414853          	.insn	4, 0x52414853
    3ba4:	2050                	.insn	2, 0x2050
    3ba6:	4f52                	.insn	2, 0x4f52
    3ba8:	00534b43          	.insn	4, 0x00534b43
    3bac:	45564143          	.insn	4, 0x45564143
    3bb0:	0000                	.insn	2, 0x
    3bb2:	0000                	.insn	2, 0x
    3bb4:	54415243          	.insn	4, 0x54415243
    3bb8:	5245                	.insn	2, 0x5245
    3bba:	0000                	.insn	2, 0x
    3bbc:	594e4143          	.insn	4, 0x594e4143
    3bc0:	00004e4f          	.insn	4, 0x4e4f
    3bc4:	4f4d                	.insn	2, 0x4f4d
    3bc6:	4e55                	.insn	2, 0x4e55
    3bc8:	4154                	.insn	2, 0x4154
    3bca:	4e49                	.insn	2, 0x4e49
    3bcc:	0000                	.insn	2, 0x
    3bce:	0000                	.insn	2, 0x
    3bd0:	61656c43          	.insn	4, 0x61656c43
    3bd4:	6972                	.insn	2, 0x6972
    3bd6:	676e                	.insn	2, 0x676e
    3bd8:	7020                	.insn	2, 0x7020
    3bda:	7265                	.insn	2, 0x7265
    3bdc:	6f66                	.insn	2, 0x6f66
    3bde:	6d72                	.insn	2, 0x6d72
    3be0:	6e61                	.insn	2, 0x6e61
    3be2:	63206563          	bltu	zero,s2,420c <__global_pointer+0x2f4>
    3be6:	746e756f          	jal	a0,eb32c <__global_pointer+0xe7414>
    3bea:	7265                	.insn	2, 0x7265
    3bec:	2e2e2e73          	csrrs	t3,0x2e2,t3
    3bf0:	0000                	.insn	2, 0x
    3bf2:	0000                	.insn	2, 0x
    3bf4:	6550                	.insn	2, 0x6550
    3bf6:	6672                	.insn	2, 0x6672
    3bf8:	616d726f          	jal	tp,db20e <__global_pointer+0xd72f6>
    3bfc:	636e                	.insn	2, 0x636e
    3bfe:	2065                	.insn	2, 0x2065
    3c00:	6e756f63          	bltu	a0,t2,42fe <__global_pointer+0x3e6>
    3c04:	6574                	.insn	2, 0x6574
    3c06:	7372                	.insn	2, 0x7372
    3c08:	6320                	.insn	2, 0x6320
    3c0a:	656c                	.insn	2, 0x656c
    3c0c:	7261                	.insn	2, 0x7261
    3c0e:	6465                	.insn	2, 0x6465
    3c10:	0a2e                	.insn	2, 0x0a2e
    3c12:	0000                	.insn	2, 0x
    3c14:	636d                	.insn	2, 0x636d
    3c16:	6379                	.insn	2, 0x6379
    3c18:	656c                	.insn	2, 0x656c
    3c1a:	2820                	.insn	2, 0x2820
    3c1c:	636f6c43          	.insn	4, 0x636f6c43
    3c20:	7963206b          	.insn	4, 0x7963206b
    3c24:	20656c63          	bltu	a0,t1,3e3c <timeoutcount+0x6f8>
    3c28:	6e756f63          	bltu	a0,t2,4326 <__global_pointer+0x40e>
    3c2c:	6574                	.insn	2, 0x6574
    3c2e:	2972                	.insn	2, 0x2972
    3c30:	203a                	.insn	2, 0x203a
    3c32:	0000                	.insn	2, 0x
    3c34:	6320                	.insn	2, 0x6320
    3c36:	6f6c                	.insn	2, 0x6f6c
    3c38:	63206b63          	bltu	zero,s2,426e <__global_pointer+0x356>
    3c3c:	6379                	.insn	2, 0x6379
    3c3e:	656c                	.insn	2, 0x656c
    3c40:	000a2e73          	csrrs	t3,ustatus,s4
    3c44:	696d                	.insn	2, 0x696d
    3c46:	736e                	.insn	2, 0x736e
    3c48:	7274                	.insn	2, 0x7274
    3c4a:	7465                	.insn	2, 0x7465
    3c4c:	2820                	.insn	2, 0x2820
    3c4e:	6552                	.insn	2, 0x6552
    3c50:	6974                	.insn	2, 0x6974
    3c52:	6572                	.insn	2, 0x6572
    3c54:	2064                	.insn	2, 0x2064
    3c56:	6e69                	.insn	2, 0x6e69
    3c58:	75727473          	csrrci	s0,0x757,4
    3c5c:	6f697463          	bgeu	s2,s6,4344 <__global_pointer+0x42c>
    3c60:	206e                	.insn	2, 0x206e
    3c62:	6e756f63          	bltu	a0,t2,4360 <__global_pointer+0x448>
    3c66:	6574                	.insn	2, 0x6574
    3c68:	2972                	.insn	2, 0x2972
    3c6a:	203a                	.insn	2, 0x203a
    3c6c:	0000                	.insn	2, 0x
    3c6e:	0000                	.insn	2, 0x
    3c70:	6920                	.insn	2, 0x6920
    3c72:	736e                	.insn	2, 0x736e
    3c74:	7274                	.insn	2, 0x7274
    3c76:	6375                	.insn	2, 0x6375
    3c78:	6974                	.insn	2, 0x6974
    3c7a:	2e736e6f          	jal	t3,3a760 <__global_pointer+0x36848>
    3c7e:	000a                	.insn	2, 0x000a
    3c80:	686d                	.insn	2, 0x686d
    3c82:	6d70                	.insn	2, 0x6d70
    3c84:	6e756f63          	bltu	a0,t2,4382 <__global_pointer+0x46a>
    3c88:	6574                	.insn	2, 0x6574
    3c8a:	3372                	.insn	2, 0x3372
    3c8c:	2820                	.insn	2, 0x2820
    3c8e:	654d                	.insn	2, 0x654d
    3c90:	6f6d                	.insn	2, 0x6f6d
    3c92:	7972                	.insn	2, 0x7972
    3c94:	6920                	.insn	2, 0x6920
    3c96:	736e                	.insn	2, 0x736e
    3c98:	7274                	.insn	2, 0x7274
    3c9a:	6375                	.insn	2, 0x6375
    3c9c:	6974                	.insn	2, 0x6974
    3c9e:	63206e6f          	jal	t3,a2d0 <__global_pointer+0x63b8>
    3ca2:	746e756f          	jal	a0,eb3e8 <__global_pointer+0xe74d0>
    3ca6:	7265                	.insn	2, 0x7265
    3ca8:	3a29                	.insn	2, 0x3a29
    3caa:	0020                	.insn	2, 0x0020
    3cac:	6d20                	.insn	2, 0x6d20
    3cae:	6d65                	.insn	2, 0x6d65
    3cb0:	2079726f          	jal	tp,9b6b6 <__global_pointer+0x9779e>
    3cb4:	6e69                	.insn	2, 0x6e69
    3cb6:	75727473          	csrrci	s0,0x757,4
    3cba:	6f697463          	bgeu	s2,s6,43a2 <__global_pointer+0x48a>
    3cbe:	736e                	.insn	2, 0x736e
    3cc0:	0a2e                	.insn	2, 0x0a2e
    3cc2:	0000                	.insn	2, 0x
    3cc4:	686d                	.insn	2, 0x686d
    3cc6:	6d70                	.insn	2, 0x6d70
    3cc8:	6e756f63          	bltu	a0,t2,43c6 <__global_pointer+0x4ae>
    3ccc:	6574                	.insn	2, 0x6574
    3cce:	3472                	.insn	2, 0x3472
    3cd0:	2820                	.insn	2, 0x2820
    3cd2:	2d49                	.insn	2, 0x2d49
    3cd4:	68636163          	bltu	t1,t1,4356 <__global_pointer+0x43e>
    3cd8:	2065                	.insn	2, 0x2065
    3cda:	696d                	.insn	2, 0x696d
    3cdc:	63207373          	csrrci	t1,0x632,0
    3ce0:	746e756f          	jal	a0,eb426 <__global_pointer+0xe750e>
    3ce4:	7265                	.insn	2, 0x7265
    3ce6:	3a29                	.insn	2, 0x3a29
    3ce8:	0020                	.insn	2, 0x0020
    3cea:	0000                	.insn	2, 0x
    3cec:	4920                	.insn	2, 0x4920
    3cee:	632d                	.insn	2, 0x632d
    3cf0:	6361                	.insn	2, 0x6361
    3cf2:	6568                	.insn	2, 0x6568
    3cf4:	6d20                	.insn	2, 0x6d20
    3cf6:	7369                	.insn	2, 0x7369
    3cf8:	2e736573          	csrrsi	a0,0x2e7,6
    3cfc:	000a                	.insn	2, 0x000a
    3cfe:	0000                	.insn	2, 0x
    3d00:	686d                	.insn	2, 0x686d
    3d02:	6d70                	.insn	2, 0x6d70
    3d04:	6e756f63          	bltu	a0,t2,4402 <__global_pointer+0x4ea>
    3d08:	6574                	.insn	2, 0x6574
    3d0a:	3572                	.insn	2, 0x3572
    3d0c:	2820                	.insn	2, 0x2820
    3d0e:	2d44                	.insn	2, 0x2d44
    3d10:	68636163          	bltu	t1,t1,4392 <__global_pointer+0x47a>
    3d14:	2065                	.insn	2, 0x2065
    3d16:	696d                	.insn	2, 0x696d
    3d18:	63207373          	csrrci	t1,0x632,0
    3d1c:	746e756f          	jal	a0,eb462 <__global_pointer+0xe754a>
    3d20:	7265                	.insn	2, 0x7265
    3d22:	3a29                	.insn	2, 0x3a29
    3d24:	0020                	.insn	2, 0x0020
    3d26:	0000                	.insn	2, 0x
    3d28:	4420                	.insn	2, 0x4420
    3d2a:	632d                	.insn	2, 0x632d
    3d2c:	6361                	.insn	2, 0x6361
    3d2e:	6568                	.insn	2, 0x6568
    3d30:	6d20                	.insn	2, 0x6d20
    3d32:	7369                	.insn	2, 0x7369
    3d34:	2e736573          	csrrsi	a0,0x2e7,6
    3d38:	000a                	.insn	2, 0x000a
    3d3a:	0000                	.insn	2, 0x
    3d3c:	686d                	.insn	2, 0x686d
    3d3e:	6d70                	.insn	2, 0x6d70
    3d40:	6e756f63          	bltu	a0,t2,443e <__global_pointer+0x526>
    3d44:	6574                	.insn	2, 0x6574
    3d46:	3672                	.insn	2, 0x3672
    3d48:	2820                	.insn	2, 0x2820
    3d4a:	2d49                	.insn	2, 0x2d49
    3d4c:	68636163          	bltu	t1,t1,43ce <__global_pointer+0x4b6>
    3d50:	2065                	.insn	2, 0x2065
    3d52:	6c617473          	csrrci	s0,0x6c6,2
    3d56:	206c                	.insn	2, 0x206c
    3d58:	6e756f63          	bltu	a0,t2,4456 <__global_pointer+0x53e>
    3d5c:	6574                	.insn	2, 0x6574
    3d5e:	2072                	.insn	2, 0x2072
    3d60:	7564                	.insn	2, 0x7564
    3d62:	2065                	.insn	2, 0x2065
    3d64:	6f74                	.insn	2, 0x6f74
    3d66:	4920                	.insn	2, 0x4920
    3d68:	632d                	.insn	2, 0x632d
    3d6a:	6361                	.insn	2, 0x6361
    3d6c:	6568                	.insn	2, 0x6568
    3d6e:	6d20                	.insn	2, 0x6d20
    3d70:	7369                	.insn	2, 0x7369
    3d72:	29736573          	csrrsi	a0,0x297,6
    3d76:	203a                	.insn	2, 0x203a
    3d78:	0000                	.insn	2, 0x
    3d7a:	0000                	.insn	2, 0x
    3d7c:	4920                	.insn	2, 0x4920
    3d7e:	632d                	.insn	2, 0x632d
    3d80:	6361                	.insn	2, 0x6361
    3d82:	6568                	.insn	2, 0x6568
    3d84:	7320                	.insn	2, 0x7320
    3d86:	6174                	.insn	2, 0x6174
    3d88:	6c6c                	.insn	2, 0x6c6c
    3d8a:	000a2e73          	csrrs	t3,ustatus,s4
    3d8e:	0000                	.insn	2, 0x
    3d90:	686d                	.insn	2, 0x686d
    3d92:	6d70                	.insn	2, 0x6d70
    3d94:	6e756f63          	bltu	a0,t2,4492 <__global_pointer+0x57a>
    3d98:	6574                	.insn	2, 0x6574
    3d9a:	3772                	.insn	2, 0x3772
    3d9c:	2820                	.insn	2, 0x2820
    3d9e:	2d44                	.insn	2, 0x2d44
    3da0:	68636163          	bltu	t1,t1,4422 <__global_pointer+0x50a>
    3da4:	2065                	.insn	2, 0x2065
    3da6:	6c617473          	csrrci	s0,0x6c6,2
    3daa:	206c                	.insn	2, 0x206c
    3dac:	6e756f63          	bltu	a0,t2,44aa <__global_pointer+0x592>
    3db0:	6574                	.insn	2, 0x6574
    3db2:	2072                	.insn	2, 0x2072
    3db4:	7564                	.insn	2, 0x7564
    3db6:	2065                	.insn	2, 0x2065
    3db8:	6f74                	.insn	2, 0x6f74
    3dba:	4420                	.insn	2, 0x4420
    3dbc:	632d                	.insn	2, 0x632d
    3dbe:	6361                	.insn	2, 0x6361
    3dc0:	6568                	.insn	2, 0x6568
    3dc2:	6d20                	.insn	2, 0x6d20
    3dc4:	7369                	.insn	2, 0x7369
    3dc6:	29736573          	csrrsi	a0,0x297,6
    3dca:	203a                	.insn	2, 0x203a
    3dcc:	0000                	.insn	2, 0x
    3dce:	0000                	.insn	2, 0x
    3dd0:	4420                	.insn	2, 0x4420
    3dd2:	632d                	.insn	2, 0x632d
    3dd4:	6361                	.insn	2, 0x6361
    3dd6:	6568                	.insn	2, 0x6568
    3dd8:	7320                	.insn	2, 0x7320
    3dda:	6174                	.insn	2, 0x6174
    3ddc:	6c6c                	.insn	2, 0x6c6c
    3dde:	000a2e73          	csrrs	t3,ustatus,s4
    3de2:	0000                	.insn	2, 0x
    3de4:	686d                	.insn	2, 0x686d
    3de6:	6d70                	.insn	2, 0x6d70
    3de8:	6e756f63          	bltu	a0,t2,44e6 <__global_pointer+0x5ce>
    3dec:	6574                	.insn	2, 0x6574
    3dee:	3872                	.insn	2, 0x3872
    3df0:	2820                	.insn	2, 0x2820
    3df2:	6c617453          	.insn	4, 0x6c617453
    3df6:	206c                	.insn	2, 0x206c
    3df8:	6e756f63          	bltu	a0,t2,44f6 <__global_pointer+0x5de>
    3dfc:	6574                	.insn	2, 0x6574
    3dfe:	2072                	.insn	2, 0x2072
    3e00:	7564                	.insn	2, 0x7564
    3e02:	2065                	.insn	2, 0x2065
    3e04:	6f74                	.insn	2, 0x6f74
    3e06:	6420                	.insn	2, 0x6420
    3e08:	7461                	.insn	2, 0x7461
    3e0a:	2061                	.insn	2, 0x2061
    3e0c:	6168                	.insn	2, 0x6168
    3e0e:	617a                	.insn	2, 0x617a
    3e10:	6472                	.insn	2, 0x6472
    3e12:	203a2973          	csrrs	s2,0x203,s4
    3e16:	0000                	.insn	2, 0x
    3e18:	6420                	.insn	2, 0x6420
    3e1a:	7461                	.insn	2, 0x7461
    3e1c:	2061                	.insn	2, 0x2061
    3e1e:	6168                	.insn	2, 0x6168
    3e20:	617a                	.insn	2, 0x617a
    3e22:	6472                	.insn	2, 0x6472
    3e24:	7320                	.insn	2, 0x7320
    3e26:	6174                	.insn	2, 0x6174
    3e28:	6c6c                	.insn	2, 0x6c6c
    3e2a:	000a2e73          	csrrs	t3,ustatus,s4
    3e2e:	0000                	.insn	2, 0x
    3e30:	686d                	.insn	2, 0x686d
    3e32:	6d70                	.insn	2, 0x6d70
    3e34:	6e756f63          	bltu	a0,t2,4532 <__global_pointer+0x61a>
    3e38:	6574                	.insn	2, 0x6574
    3e3a:	3972                	.insn	2, 0x3972
    3e3c:	2820                	.insn	2, 0x2820
    3e3e:	6c617453          	.insn	4, 0x6c617453
    3e42:	206c                	.insn	2, 0x206c
    3e44:	6e756f63          	bltu	a0,t2,4542 <__global_pointer+0x62a>
    3e48:	6574                	.insn	2, 0x6574
    3e4a:	2072                	.insn	2, 0x2072
    3e4c:	7564                	.insn	2, 0x7564
    3e4e:	2065                	.insn	2, 0x2065
    3e50:	6f74                	.insn	2, 0x6f74
    3e52:	6520                	.insn	2, 0x6520
    3e54:	7078                	.insn	2, 0x7078
    3e56:	6e65                	.insn	2, 0x6e65
    3e58:	65766973          	csrrsi	s2,hviprio2h,12
    3e5c:	4120                	.insn	2, 0x4120
    3e5e:	554c                	.insn	2, 0x554c
    3e60:	6f20                	.insn	2, 0x6f20
    3e62:	6570                	.insn	2, 0x6570
    3e64:	6172                	.insn	2, 0x6172
    3e66:	6974                	.insn	2, 0x6974
    3e68:	29736e6f          	jal	t3,3a8fe <__global_pointer+0x369e6>
    3e6c:	203a                	.insn	2, 0x203a
    3e6e:	0000                	.insn	2, 0x
    3e70:	4120                	.insn	2, 0x4120
    3e72:	554c                	.insn	2, 0x554c
    3e74:	7320                	.insn	2, 0x7320
    3e76:	6174                	.insn	2, 0x6174
    3e78:	6c6c                	.insn	2, 0x6c6c
    3e7a:	000a2e73          	csrrs	t3,ustatus,s4
    3e7e:	0000                	.insn	2, 0x
    3e80:	6f59                	.insn	2, 0x6f59
    3e82:	2075                	.insn	2, 0x2075
    3e84:	6168                	.insn	2, 0x6168
    3e86:	6576                	.insn	2, 0x6576
    3e88:	7220                	.insn	2, 0x7220
    3e8a:	6e75                	.insn	2, 0x6e75
    3e8c:	6f20                	.insn	2, 0x6f20
    3e8e:	7475                	.insn	2, 0x7475
    3e90:	6f20                	.insn	2, 0x6f20
    3e92:	2066                	.insn	2, 0x2066
    3e94:	6779786f          	jal	a6,9bd0a <__global_pointer+0x97df2>
    3e98:	6e65                	.insn	2, 0x6e65
    3e9a:	2021                	.insn	2, 0x2021
    3e9c:	656d6147          	.insn	4, 0x656d6147
    3ea0:	6f20                	.insn	2, 0x6f20
    3ea2:	6576                	.insn	2, 0x6576
    3ea4:	2e72                	.insn	2, 0x2e72
    3ea6:	000a                	.insn	2, 0x000a
    3ea8:	6f59                	.insn	2, 0x6f59
    3eaa:	2075                	.insn	2, 0x2075
    3eac:	6168                	.insn	2, 0x6168
    3eae:	6576                	.insn	2, 0x6576
    3eb0:	7220                	.insn	2, 0x7220
    3eb2:	6e75                	.insn	2, 0x6e75
    3eb4:	6f20                	.insn	2, 0x6f20
    3eb6:	7475                	.insn	2, 0x7475
    3eb8:	6f20                	.insn	2, 0x6f20
    3eba:	2066                	.insn	2, 0x2066
    3ebc:	65746177          	.insn	4, 0x65746177
    3ec0:	2172                	.insn	2, 0x2172
    3ec2:	4720                	.insn	2, 0x4720
    3ec4:	6d61                	.insn	2, 0x6d61
    3ec6:	2065                	.insn	2, 0x2065
    3ec8:	7265766f          	jal	a2,5b5ee <__global_pointer+0x576d6>
    3ecc:	0a2e                	.insn	2, 0x0a2e
    3ece:	0000                	.insn	2, 0x
    3ed0:	6f59                	.insn	2, 0x6f59
    3ed2:	2075                	.insn	2, 0x2075
    3ed4:	6168                	.insn	2, 0x6168
    3ed6:	6576                	.insn	2, 0x6576
    3ed8:	7220                	.insn	2, 0x7220
    3eda:	6e75                	.insn	2, 0x6e75
    3edc:	6f20                	.insn	2, 0x6f20
    3ede:	7475                	.insn	2, 0x7475
    3ee0:	6f20                	.insn	2, 0x6f20
    3ee2:	2066                	.insn	2, 0x2066
    3ee4:	6f66                	.insn	2, 0x6f66
    3ee6:	2021646f          	jal	s0,1a0e8 <__global_pointer+0x161d0>
    3eea:	656d6147          	.insn	4, 0x656d6147
    3eee:	6f20                	.insn	2, 0x6f20
    3ef0:	6576                	.insn	2, 0x6576
    3ef2:	2e72                	.insn	2, 0x2e72
    3ef4:	000a                	.insn	2, 0x000a
    3ef6:	0000                	.insn	2, 0x
    3ef8:	4a325b1b          	.insn	4, 0x4a325b1b
    3efc:	0000                	.insn	2, 0x
    3efe:	0000                	.insn	2, 0x
    3f00:	00485b1b          	.insn	4, 0x00485b1b
    3f04:	2d2d2d2b          	.insn	4, 0x2d2d2d2b
    3f08:	2d2d                	.insn	2, 0x2d2d
    3f0a:	2d2d                	.insn	2, 0x2d2d
    3f0c:	2d2d                	.insn	2, 0x2d2d
    3f0e:	2d2d                	.insn	2, 0x2d2d
    3f10:	2d2d                	.insn	2, 0x2d2d
    3f12:	2d2d                	.insn	2, 0x2d2d
    3f14:	2d2d                	.insn	2, 0x2d2d
    3f16:	2d2d                	.insn	2, 0x2d2d
    3f18:	2d2d                	.insn	2, 0x2d2d
    3f1a:	2d2d                	.insn	2, 0x2d2d
    3f1c:	2d2d                	.insn	2, 0x2d2d
    3f1e:	2d2d                	.insn	2, 0x2d2d
    3f20:	2d2d                	.insn	2, 0x2d2d
    3f22:	2d2d                	.insn	2, 0x2d2d
    3f24:	2d2d                	.insn	2, 0x2d2d
    3f26:	2d2d                	.insn	2, 0x2d2d
    3f28:	2d2d                	.insn	2, 0x2d2d
    3f2a:	2d2d                	.insn	2, 0x2d2d
    3f2c:	2d2d                	.insn	2, 0x2d2d
    3f2e:	2d2d                	.insn	2, 0x2d2d
    3f30:	2d2d                	.insn	2, 0x2d2d
    3f32:	2d2d                	.insn	2, 0x2d2d
    3f34:	2b2d                	.insn	2, 0x2b2d
    3f36:	0a20                	.insn	2, 0x0a20
    3f38:	0000                	.insn	2, 0x
    3f3a:	0000                	.insn	2, 0x
    3f3c:	207c                	.insn	2, 0x207c
    3f3e:	2020                	.insn	2, 0x2020
    3f40:	2020                	.insn	2, 0x2020
    3f42:	2020                	.insn	2, 0x2020
    3f44:	2020                	.insn	2, 0x2020
    3f46:	2020                	.insn	2, 0x2020
    3f48:	4d20                	.insn	2, 0x4d20
    3f4a:	5241                	.insn	2, 0x5241
    3f4c:	55532053          	.insn	4, 0x55532053
    3f50:	5652                	.insn	2, 0x5652
    3f52:	5649                	.insn	2, 0x5649
    3f54:	4c41                	.insn	2, 0x4c41
    3f56:	4720                	.insn	2, 0x4720
    3f58:	4d41                	.insn	2, 0x4d41
    3f5a:	2045                	.insn	2, 0x2045
    3f5c:	2020                	.insn	2, 0x2020
    3f5e:	2020                	.insn	2, 0x2020
    3f60:	2020                	.insn	2, 0x2020
    3f62:	2020                	.insn	2, 0x2020
    3f64:	2020                	.insn	2, 0x2020
    3f66:	2020                	.insn	2, 0x2020
    3f68:	2020                	.insn	2, 0x2020
    3f6a:	2020                	.insn	2, 0x2020
    3f6c:	7c20                	.insn	2, 0x7c20
    3f6e:	0a20                	.insn	2, 0x0a20
    3f70:	0000                	.insn	2, 0x
    3f72:	0000                	.insn	2, 0x
    3f74:	207c                	.insn	2, 0x207c
    3f76:	6f50                	.insn	2, 0x6f50
    3f78:	69746973          	csrrsi	s2,0x697,8
    3f7c:	203a6e6f          	jal	t3,aa97e <__global_pointer+0xa6a66>
    3f80:	0028                	.insn	2, 0x0028
    3f82:	0000                	.insn	2, 0x
    3f84:	202c                	.insn	2, 0x202c
    3f86:	0000                	.insn	2, 0x
    3f88:	2029                	.insn	2, 0x2029
    3f8a:	2020                	.insn	2, 0x2020
    3f8c:	2020                	.insn	2, 0x2020
    3f8e:	2020                	.insn	2, 0x2020
    3f90:	2020                	.insn	2, 0x2020
    3f92:	2020                	.insn	2, 0x2020
    3f94:	2020                	.insn	2, 0x2020
    3f96:	2020                	.insn	2, 0x2020
    3f98:	2020                	.insn	2, 0x2020
    3f9a:	2020                	.insn	2, 0x2020
    3f9c:	2020                	.insn	2, 0x2020
    3f9e:	2020                	.insn	2, 0x2020
    3fa0:	2020                	.insn	2, 0x2020
    3fa2:	2020                	.insn	2, 0x2020
    3fa4:	2020                	.insn	2, 0x2020
    3fa6:	2020                	.insn	2, 0x2020
    3fa8:	000a                	.insn	2, 0x000a
    3faa:	0000                	.insn	2, 0x
    3fac:	207c                	.insn	2, 0x207c
    3fae:	6f4c                	.insn	2, 0x6f4c
    3fb0:	69746163          	bltu	s0,s7,4632 <__global_pointer+0x71a>
    3fb4:	203a6e6f          	jal	t3,aa9b6 <__global_pointer+0xa6a9e>
    3fb8:	0000                	.insn	2, 0x
    3fba:	0000                	.insn	2, 0x
    3fbc:	2020                	.insn	2, 0x2020
    3fbe:	2020                	.insn	2, 0x2020
    3fc0:	2020                	.insn	2, 0x2020
    3fc2:	2020                	.insn	2, 0x2020
    3fc4:	2020                	.insn	2, 0x2020
    3fc6:	2020                	.insn	2, 0x2020
    3fc8:	2020                	.insn	2, 0x2020
    3fca:	2020                	.insn	2, 0x2020
    3fcc:	2020                	.insn	2, 0x2020
    3fce:	2020                	.insn	2, 0x2020
    3fd0:	2020                	.insn	2, 0x2020
    3fd2:	2020                	.insn	2, 0x2020
    3fd4:	2020                	.insn	2, 0x2020
    3fd6:	2020                	.insn	2, 0x2020
    3fd8:	2020                	.insn	2, 0x2020
    3fda:	2020                	.insn	2, 0x2020
    3fdc:	2020                	.insn	2, 0x2020
    3fde:	2020                	.insn	2, 0x2020
    3fe0:	0a20                	.insn	2, 0x0a20
    3fe2:	0000                	.insn	2, 0x
    3fe4:	207c                	.insn	2, 0x207c
    3fe6:	614d                	.insn	2, 0x614d
    3fe8:	3a70                	.insn	2, 0x3a70
    3fea:	2020                	.insn	2, 0x2020
    3fec:	2020                	.insn	2, 0x2020
    3fee:	2020                	.insn	2, 0x2020
    3ff0:	2020                	.insn	2, 0x2020
    3ff2:	2020                	.insn	2, 0x2020
    3ff4:	2020                	.insn	2, 0x2020
    3ff6:	2020                	.insn	2, 0x2020
    3ff8:	2020                	.insn	2, 0x2020
    3ffa:	2020                	.insn	2, 0x2020
    3ffc:	2020                	.insn	2, 0x2020
    3ffe:	2020                	.insn	2, 0x2020
    4000:	2020                	.insn	2, 0x2020
    4002:	2020                	.insn	2, 0x2020
    4004:	2020                	.insn	2, 0x2020
    4006:	2020                	.insn	2, 0x2020
    4008:	2020                	.insn	2, 0x2020
    400a:	2020                	.insn	2, 0x2020
    400c:	2020                	.insn	2, 0x2020
    400e:	2020                	.insn	2, 0x2020
    4010:	2020                	.insn	2, 0x2020
    4012:	2020                	.insn	2, 0x2020
    4014:	2020                	.insn	2, 0x2020
    4016:	0a20                	.insn	2, 0x0a20
    4018:	0000                	.insn	2, 0x
    401a:	0000                	.insn	2, 0x
    401c:	207c                	.insn	2, 0x207c
    401e:	0000                	.insn	2, 0x
    4020:	8e9ff05b          	.insn	4, 0x8e9ff05b
    4024:	5d85                	.insn	2, 0x5d85
    4026:	0020                	.insn	2, 0x0020
    4028:	0000005b          	.insn	4, 0x005b
    402c:	205d                	.insn	2, 0x205d
    402e:	0000                	.insn	2, 0x
    4030:	207c                	.insn	2, 0x207c
    4032:	6e49                	.insn	2, 0x6e49
    4034:	6576                	.insn	2, 0x6576
    4036:	746e                	.insn	2, 0x746e
    4038:	3a79726f          	jal	tp,9bbde <__global_pointer+0x97cc6>
    403c:	2020                	.insn	2, 0x2020
    403e:	2020                	.insn	2, 0x2020
    4040:	2020                	.insn	2, 0x2020
    4042:	2020                	.insn	2, 0x2020
    4044:	2020                	.insn	2, 0x2020
    4046:	2020                	.insn	2, 0x2020
    4048:	2020                	.insn	2, 0x2020
    404a:	2020                	.insn	2, 0x2020
    404c:	2020                	.insn	2, 0x2020
    404e:	2020                	.insn	2, 0x2020
    4050:	2020                	.insn	2, 0x2020
    4052:	2020                	.insn	2, 0x2020
    4054:	2020                	.insn	2, 0x2020
    4056:	2020                	.insn	2, 0x2020
    4058:	2020                	.insn	2, 0x2020
    405a:	2020                	.insn	2, 0x2020
    405c:	2020                	.insn	2, 0x2020
    405e:	2020                	.insn	2, 0x2020
    4060:	7c20                	.insn	2, 0x7c20
    4062:	0a20                	.insn	2, 0x0a20
    4064:	0000                	.insn	2, 0x
    4066:	0000                	.insn	2, 0x
    4068:	207c                	.insn	2, 0x207c
    406a:	2020                	.insn	2, 0x2020
    406c:	746f6c53          	.insn	4, 0x746f6c53
    4070:	0020                	.insn	2, 0x0020
    4072:	0000                	.insn	2, 0x
    4074:	6d45                	.insn	2, 0x6d45
    4076:	7470                	.insn	2, 0x7470
    4078:	0079                	.insn	2, 0x0079
    407a:	0000                	.insn	2, 0x
    407c:	2020                	.insn	2, 0x2020
    407e:	2020                	.insn	2, 0x2020
    4080:	2020                	.insn	2, 0x2020
    4082:	2020                	.insn	2, 0x2020
    4084:	2020                	.insn	2, 0x2020
    4086:	2020                	.insn	2, 0x2020
    4088:	2020                	.insn	2, 0x2020
    408a:	2020                	.insn	2, 0x2020
    408c:	2020                	.insn	2, 0x2020
    408e:	2020                	.insn	2, 0x2020
    4090:	2020                	.insn	2, 0x2020
    4092:	2020                	.insn	2, 0x2020
    4094:	2020                	.insn	2, 0x2020
    4096:	2020                	.insn	2, 0x2020
    4098:	2020                	.insn	2, 0x2020
    409a:	2020                	.insn	2, 0x2020
    409c:	2020                	.insn	2, 0x2020
    409e:	2020                	.insn	2, 0x2020
    40a0:	000a                	.insn	2, 0x000a
    40a2:	0000                	.insn	2, 0x
    40a4:	2d2d2d2b          	.insn	4, 0x2d2d2d2b
    40a8:	2d2d                	.insn	2, 0x2d2d
    40aa:	2d2d                	.insn	2, 0x2d2d
    40ac:	2d2d                	.insn	2, 0x2d2d
    40ae:	2d2d                	.insn	2, 0x2d2d
    40b0:	2d2d                	.insn	2, 0x2d2d
    40b2:	2d2d                	.insn	2, 0x2d2d
    40b4:	2d2d                	.insn	2, 0x2d2d
    40b6:	2d2d                	.insn	2, 0x2d2d
    40b8:	2d2d                	.insn	2, 0x2d2d
    40ba:	2d2d                	.insn	2, 0x2d2d
    40bc:	2d2d                	.insn	2, 0x2d2d
    40be:	2d2d                	.insn	2, 0x2d2d
    40c0:	2d2d                	.insn	2, 0x2d2d
    40c2:	2d2d                	.insn	2, 0x2d2d
    40c4:	2d2d                	.insn	2, 0x2d2d
    40c6:	2d2d                	.insn	2, 0x2d2d
    40c8:	2d2d                	.insn	2, 0x2d2d
    40ca:	2d2d                	.insn	2, 0x2d2d
    40cc:	2d2d                	.insn	2, 0x2d2d
    40ce:	2d2d                	.insn	2, 0x2d2d
    40d0:	2d2d                	.insn	2, 0x2d2d
    40d2:	2d2d                	.insn	2, 0x2d2d
    40d4:	2b2d                	.insn	2, 0x2b2d
    40d6:	000a                	.insn	2, 0x000a
    40d8:	7250                	.insn	2, 0x7250
    40da:	7365                	.insn	2, 0x7365
    40dc:	41452073          	csrs	0x414,a0
    40e0:	66205453          	.insn	4, 0x66205453
    40e4:	5920726f          	jal	tp,b676 <__global_pointer+0x775e>
    40e8:	7365                	.insn	2, 0x7365
    40ea:	202c                	.insn	2, 0x202c
    40ec:	54534557          	.insn	4, 0x54534557
    40f0:	6620                	.insn	2, 0x6620
    40f2:	4e20726f          	jal	tp,b5d4 <__global_pointer+0x76bc>
    40f6:	000a2e6f          	jal	t3,a60f6 <__global_pointer+0xa21de>
    40fa:	0000                	.insn	2, 0x
    40fc:	7250                	.insn	2, 0x7250
    40fe:	7365                	.insn	2, 0x7365
    4100:	41422073          	csrs	0x414,tp
    4104:	74204b43          	.insn	4, 0x74204b43
    4108:	7865206f          	j	5688e <__global_pointer+0x52976>
    410c:	7469                	.insn	2, 0x7469
    410e:	0a2e                	.insn	2, 0x0a2e
    4110:	0000                	.insn	2, 0x
    4112:	0000                	.insn	2, 0x
    4114:	7845                	.insn	2, 0x7845
    4116:	7469                	.insn	2, 0x7469
    4118:	6e69                	.insn	2, 0x6e69
    411a:	2e2e2e67          	.insn	4, 0x2e2e2e67
    411e:	000a                	.insn	2, 0x000a
    4120:	726f7453          	.insn	4, 0x726f7453
    4124:	6761                	.insn	2, 0x6761
    4126:	2065                	.insn	2, 0x2065
    4128:	654d                	.insn	2, 0x654d
    412a:	756e                	.insn	2, 0x756e
    412c:	0a3a                	.insn	2, 0x0a3a
    412e:	0000                	.insn	2, 0x
    4130:	4145                	.insn	2, 0x4145
    4132:	203a5453          	.insn	4, 0x203a5453
    4136:	6956                	.insn	2, 0x6956
    4138:	7765                	.insn	2, 0x7765
    413a:	7320                	.insn	2, 0x7320
    413c:	6f74                	.insn	2, 0x6f74
    413e:	6172                	.insn	2, 0x6172
    4140:	69206567          	.insn	4, 0x69206567
    4144:	6574                	.insn	2, 0x6574
    4146:	736d                	.insn	2, 0x736d
    4148:	000a                	.insn	2, 0x000a
    414a:	0000                	.insn	2, 0x
    414c:	54534557          	.insn	4, 0x54534557
    4150:	203a                	.insn	2, 0x203a
    4152:	7254                	.insn	2, 0x7254
    4154:	6e61                	.insn	2, 0x6e61
    4156:	72656673          	csrrsi	a2,mhpmevent6h,10
    415a:	6920                	.insn	2, 0x6920
    415c:	6574                	.insn	2, 0x6574
    415e:	206d                	.insn	2, 0x206d
    4160:	7266                	.insn	2, 0x7266
    4162:	69206d6f          	jal	s10,a7f4 <__global_pointer+0x68dc>
    4166:	766e                	.insn	2, 0x766e
    4168:	6e65                	.insn	2, 0x6e65
    416a:	6f74                	.insn	2, 0x6f74
    416c:	7972                	.insn	2, 0x7972
    416e:	7420                	.insn	2, 0x7420
    4170:	7473206f          	j	370b6 <__global_pointer+0x3319e>
    4174:	6761726f          	jal	tp,1b7ea <__global_pointer+0x178d2>
    4178:	0a65                	.insn	2, 0x0a65
    417a:	0000                	.insn	2, 0x
    417c:	54554f53          	.insn	4, 0x54554f53
    4180:	3a48                	.insn	2, 0x3a48
    4182:	5420                	.insn	2, 0x5420
    4184:	6172                	.insn	2, 0x6172
    4186:	736e                	.insn	2, 0x736e
    4188:	6566                	.insn	2, 0x6566
    418a:	2072                	.insn	2, 0x2072
    418c:	7469                	.insn	2, 0x7469
    418e:	6d65                	.insn	2, 0x6d65
    4190:	6620                	.insn	2, 0x6620
    4192:	6f72                	.insn	2, 0x6f72
    4194:	206d                	.insn	2, 0x206d
    4196:	726f7473          	csrrci	s0,mhpmevent6h,30
    419a:	6761                	.insn	2, 0x6761
    419c:	2065                	.insn	2, 0x2065
    419e:	6f74                	.insn	2, 0x6f74
    41a0:	6920                	.insn	2, 0x6920
    41a2:	766e                	.insn	2, 0x766e
    41a4:	6e65                	.insn	2, 0x6e65
    41a6:	6f74                	.insn	2, 0x6f74
    41a8:	7972                	.insn	2, 0x7972
    41aa:	000a                	.insn	2, 0x000a
    41ac:	4f4e                	.insn	2, 0x4f4e
    41ae:	5452                	.insn	2, 0x5452
    41b0:	3a48                	.insn	2, 0x3a48
    41b2:	4520                	.insn	2, 0x4520
    41b4:	6978                	.insn	2, 0x6978
    41b6:	2074                	.insn	2, 0x2074
    41b8:	726f7473          	csrrci	s0,mhpmevent6h,30
    41bc:	6761                	.insn	2, 0x6761
    41be:	0a65                	.insn	2, 0x0a65
    41c0:	0000                	.insn	2, 0x
    41c2:	0000                	.insn	2, 0x
    41c4:	7250                	.insn	2, 0x7250
    41c6:	7365                	.insn	2, 0x7365
    41c8:	20612073          	csrs	0x206,sp
    41cc:	74697773          	csrrci	a4,0x746,18
    41d0:	74206863          	bltu	zero,sp,4920 <__global_pointer+0xa08>
    41d4:	6863206f          	j	3685a <__global_pointer+0x32942>
    41d8:	65736f6f          	jal	t5,3b02e <__global_pointer+0x37116>
    41dc:	6120                	.insn	2, 0x6120
    41de:	206e                	.insn	2, 0x206e
    41e0:	6361                	.insn	2, 0x6361
    41e2:	6974                	.insn	2, 0x6974
    41e4:	0a2e6e6f          	jal	t3,ea286 <__global_pointer+0xe636e>
    41e8:	0000                	.insn	2, 0x
    41ea:	0000                	.insn	2, 0x
    41ec:	7845                	.insn	2, 0x7845
    41ee:	7469                	.insn	2, 0x7469
    41f0:	6e69                	.insn	2, 0x6e69
    41f2:	74732067          	.insn	4, 0x74732067
    41f6:	6761726f          	jal	tp,1b86c <__global_pointer+0x17954>
    41fa:	2e65                	.insn	2, 0x2e65
    41fc:	000a                	.insn	2, 0x000a
    41fe:	0000                	.insn	2, 0x
    4200:	726f7453          	.insn	4, 0x726f7453
    4204:	6761                	.insn	2, 0x6761
    4206:	2065                	.insn	2, 0x2065
    4208:	7469                	.insn	2, 0x7469
    420a:	6d65                	.insn	2, 0x6d65
    420c:	000a3a73          	csrrc	s4,ustatus,s4
    4210:	6f59                	.insn	2, 0x6f59
    4212:	7275                	.insn	2, 0x7275
    4214:	6920                	.insn	2, 0x6920
    4216:	766e                	.insn	2, 0x766e
    4218:	6e65                	.insn	2, 0x6e65
    421a:	6f74                	.insn	2, 0x6f74
    421c:	7972                	.insn	2, 0x7972
    421e:	0a3a                	.insn	2, 0x0a3a
    4220:	0000                	.insn	2, 0x
    4222:	0000                	.insn	2, 0x
    4224:	6c46                	.insn	2, 0x6c46
    4226:	7069                	.insn	2, 0x7069
    4228:	6f20                	.insn	2, 0x6f20
    422a:	656e                	.insn	2, 0x656e
    422c:	7320                	.insn	2, 0x7320
    422e:	6f6c                	.insn	2, 0x6f6c
    4230:	2074                	.insn	2, 0x2074
    4232:	74697773          	csrrci	a4,0x746,18
    4236:	28206863          	bltu	zero,sp,44c6 <__global_pointer+0x5ae>
    423a:	2d31                	.insn	2, 0x2d31
    423c:	2935                	.insn	2, 0x2935
    423e:	7420                	.insn	2, 0x7420
    4240:	6863206f          	j	368c6 <__global_pointer+0x329ae>
    4244:	65736f6f          	jal	t5,3b09a <__global_pointer+0x37182>
    4248:	7420                	.insn	2, 0x7420
    424a:	6568                	.insn	2, 0x6568
    424c:	7320                	.insn	2, 0x7320
    424e:	6f6c                	.insn	2, 0x6f6c
    4250:	2074                	.insn	2, 0x2074
    4252:	6f74                	.insn	2, 0x6f74
    4254:	7420                	.insn	2, 0x7420
    4256:	6172                	.insn	2, 0x6172
    4258:	736e                	.insn	2, 0x736e
    425a:	6566                	.insn	2, 0x6566
    425c:	2072                	.insn	2, 0x2072
    425e:	4228                	.insn	2, 0x4228
    4260:	4341                	.insn	2, 0x4341
    4262:	6f74204b          	.insn	4, 0x6f74204b
    4266:	6320                	.insn	2, 0x6320
    4268:	6e61                	.insn	2, 0x6e61
    426a:	296c6563          	bltu	s8,s6,44f4 <__global_pointer+0x5dc>
    426e:	0a3a                	.insn	2, 0x0a3a
    4270:	0000                	.insn	2, 0x
    4272:	0000                	.insn	2, 0x
    4274:	636e6143          	.insn	4, 0x636e6143
    4278:	6c65                	.insn	2, 0x6c65
    427a:	656c                	.insn	2, 0x656c
    427c:	2e64                	.insn	2, 0x2e64
    427e:	000a                	.insn	2, 0x000a
    4280:	6e49                	.insn	2, 0x6e49
    4282:	6576                	.insn	2, 0x6576
    4284:	746e                	.insn	2, 0x746e
    4286:	2079726f          	jal	tp,9bc8c <__global_pointer+0x97d74>
    428a:	746f6c73          	csrrsi	s8,0x746,30
    428e:	6920                	.insn	2, 0x6920
    4290:	6d652073          	csrs	0x6d6,a0
    4294:	7470                	.insn	2, 0x7470
    4296:	2e79                	.insn	2, 0x2e79
    4298:	000a                	.insn	2, 0x000a
    429a:	0000                	.insn	2, 0x
    429c:	6c46                	.insn	2, 0x6c46
    429e:	7069                	.insn	2, 0x7069
    42a0:	6f20                	.insn	2, 0x6f20
    42a2:	656e                	.insn	2, 0x656e
    42a4:	7320                	.insn	2, 0x7320
    42a6:	6f6c                	.insn	2, 0x6f6c
    42a8:	2074                	.insn	2, 0x2074
    42aa:	74697773          	csrrci	a4,0x746,18
    42ae:	28206863          	bltu	zero,sp,453e <__global_pointer+0x626>
    42b2:	2d31                	.insn	2, 0x2d31
    42b4:	2935                	.insn	2, 0x2935
    42b6:	7420                	.insn	2, 0x7420
    42b8:	6863206f          	j	3693e <__global_pointer+0x32a26>
    42bc:	65736f6f          	jal	t5,3b112 <__global_pointer+0x371fa>
    42c0:	7420                	.insn	2, 0x7420
    42c2:	6568                	.insn	2, 0x6568
    42c4:	7320                	.insn	2, 0x7320
    42c6:	6f74                	.insn	2, 0x6f74
    42c8:	6172                	.insn	2, 0x6172
    42ca:	73206567          	.insn	4, 0x73206567
    42ce:	6f6c                	.insn	2, 0x6f6c
    42d0:	2074                	.insn	2, 0x2074
    42d2:	6f74                	.insn	2, 0x6f74
    42d4:	7420                	.insn	2, 0x7420
    42d6:	6172                	.insn	2, 0x6172
    42d8:	736e                	.insn	2, 0x736e
    42da:	6566                	.insn	2, 0x6566
    42dc:	2072                	.insn	2, 0x2072
    42de:	6f74                	.insn	2, 0x6f74
    42e0:	6920                	.insn	2, 0x6920
    42e2:	766e                	.insn	2, 0x766e
    42e4:	6e65                	.insn	2, 0x6e65
    42e6:	6f74                	.insn	2, 0x6f74
    42e8:	7972                	.insn	2, 0x7972
    42ea:	2820                	.insn	2, 0x2820
    42ec:	4142                	.insn	2, 0x4142
    42ee:	74204b43          	.insn	4, 0x74204b43
    42f2:	6163206f          	j	36908 <__global_pointer+0x329f0>
    42f6:	636e                	.insn	2, 0x636e
    42f8:	6c65                	.insn	2, 0x6c65
    42fa:	3a29                	.insn	2, 0x3a29
    42fc:	000a                	.insn	2, 0x000a
    42fe:	0000                	.insn	2, 0x
    4300:	726f7453          	.insn	4, 0x726f7453
    4304:	6761                	.insn	2, 0x6761
    4306:	2065                	.insn	2, 0x2065
    4308:	746f6c73          	csrrsi	s8,0x746,30
    430c:	6920                	.insn	2, 0x6920
    430e:	6d652073          	csrs	0x6d6,a0
    4312:	7470                	.insn	2, 0x7470
    4314:	2e79                	.insn	2, 0x2e79
    4316:	000a                	.insn	2, 0x000a
    4318:	7250                	.insn	2, 0x7250
    431a:	7365                	.insn	2, 0x7365
    431c:	4f4e2073          	csrs	0x4f4,t3
    4320:	5452                	.insn	2, 0x5452
    4322:	2048                	.insn	2, 0x2048
    4324:	6f28                	.insn	2, 0x6f28
    4326:	2072                	.insn	2, 0x2072
    4328:	4142                	.insn	2, 0x4142
    432a:	20294b43          	.insn	4, 0x20294b43
    432e:	6f74                	.insn	2, 0x6f74
    4330:	6520                	.insn	2, 0x6520
    4332:	6978                	.insn	2, 0x6978
    4334:	2074                	.insn	2, 0x2074
    4336:	726f7473          	csrrci	s0,mhpmevent6h,30
    433a:	6761                	.insn	2, 0x6761
    433c:	2e65                	.insn	2, 0x2e65
    433e:	000a                	.insn	2, 0x000a
    4340:	6f44                	.insn	2, 0x6f44
    4342:	7920                	.insn	2, 0x7920
    4344:	7720756f          	jal	a0,bab6 <__global_pointer+0x7b9e>
    4348:	6e61                	.insn	2, 0x6e61
    434a:	2074                	.insn	2, 0x2074
    434c:	6f74                	.insn	2, 0x6f74
    434e:	6520                	.insn	2, 0x6520
    4350:	646e                	.insn	2, 0x646e
    4352:	7420                	.insn	2, 0x7420
    4354:	6568                	.insn	2, 0x6568
    4356:	6720                	.insn	2, 0x6720
    4358:	6d61                	.insn	2, 0x6d61
    435a:	2065                	.insn	2, 0x2065
    435c:	6e61                	.insn	2, 0x6e61
    435e:	2064                	.insn	2, 0x2064
    4360:	6572                	.insn	2, 0x6572
    4362:	7574                	.insn	2, 0x7574
    4364:	6e72                	.insn	2, 0x6e72
    4366:	7420                	.insn	2, 0x7420
    4368:	6145206f          	j	5697c <__global_pointer+0x52a64>
    436c:	7472                	.insn	2, 0x7472
    436e:	3f68                	.insn	2, 0x3f68
    4370:	000a                	.insn	2, 0x000a
    4372:	0000                	.insn	2, 0x
    4374:	6f59                	.insn	2, 0x6f59
    4376:	2075                	.insn	2, 0x2075
    4378:	6168                	.insn	2, 0x6168
    437a:	6576                	.insn	2, 0x6576
    437c:	6320                	.insn	2, 0x6320
    437e:	6f68                	.insn	2, 0x6f68
    4380:	206e6573          	csrrsi	a0,0x206,28
    4384:	6f74                	.insn	2, 0x6f74
    4386:	6520                	.insn	2, 0x6520
    4388:	646e                	.insn	2, 0x646e
    438a:	7420                	.insn	2, 0x7420
    438c:	6568                	.insn	2, 0x6568
    438e:	6720                	.insn	2, 0x6720
    4390:	6d61                	.insn	2, 0x6d61
    4392:	2e65                	.insn	2, 0x2e65
    4394:	0a21                	.insn	2, 0x0a21
    4396:	0000                	.insn	2, 0x
    4398:	6f59                	.insn	2, 0x6f59
    439a:	2075                	.insn	2, 0x2075
    439c:	7274                	.insn	2, 0x7274
    439e:	6569                	.insn	2, 0x6569
    43a0:	2064                	.insn	2, 0x2064
    43a2:	6f74                	.insn	2, 0x6f74
    43a4:	6c20                	.insn	2, 0x6c20
    43a6:	6165                	.insn	2, 0x6165
    43a8:	6576                	.insn	2, 0x6576
    43aa:	202c                	.insn	2, 0x202c
    43ac:	7562                	.insn	2, 0x7562
    43ae:	2074                	.insn	2, 0x2074
    43b0:	6874                	.insn	2, 0x6874
    43b2:	2065                	.insn	2, 0x2065
    43b4:	70696873          	csrrsi	a6,0x706,18
    43b8:	6420                	.insn	2, 0x6420
    43ba:	6e73656f          	jal	a0,3b2a0 <__global_pointer+0x37388>
    43be:	77207427          	.insn	4, 0x77207427
    43c2:	6e61                	.insn	2, 0x6e61
    43c4:	2074                	.insn	2, 0x2074
    43c6:	6f74                	.insn	2, 0x6f74
    43c8:	7320                	.insn	2, 0x7320
    43ca:	6174                	.insn	2, 0x6174
    43cc:	7472                	.insn	2, 0x7472
    43ce:	2e2e                	.insn	2, 0x2e2e
    43d0:	002e                	.insn	2, 0x002e
    43d2:	0000                	.insn	2, 0x
    43d4:	0031                	.insn	2, 0x0031
    43d6:	0000                	.insn	2, 0x
    43d8:	0032                	.insn	2, 0x0032
    43da:	0000                	.insn	2, 0x
    43dc:	00000033          	add	zero,zero,zero
    43e0:	0034                	.insn	2, 0x0034
    43e2:	0000                	.insn	2, 0x
    43e4:	0035                	.insn	2, 0x0035
    43e6:	0000                	.insn	2, 0x
    43e8:	0036                	.insn	2, 0x0036
    43ea:	0000                	.insn	2, 0x
    43ec:	00000037          	lui	zero,0x0
    43f0:	0038                	.insn	2, 0x0038
    43f2:	0000                	.insn	2, 0x
    43f4:	0039                	.insn	2, 0x0039
    43f6:	0000                	.insn	2, 0x
    43f8:	3031                	.insn	2, 0x3031
    43fa:	0000                	.insn	2, 0x
    43fc:	6f59                	.insn	2, 0x6f59
    43fe:	7275                	.insn	2, 0x7275
    4400:	6320                	.insn	2, 0x6320
    4402:	6168                	.insn	2, 0x6168
    4404:	636e                	.insn	2, 0x636e
    4406:	2065                	.insn	2, 0x2065
    4408:	6f74                	.insn	2, 0x6f74
    440a:	7320                	.insn	2, 0x7320
    440c:	7275                	.insn	2, 0x7275
    440e:	6976                	.insn	2, 0x6976
    4410:	6576                	.insn	2, 0x6576
    4412:	7720                	.insn	2, 0x7720
    4414:	7361                	.insn	2, 0x7361
    4416:	203a                	.insn	2, 0x203a
    4418:	0000                	.insn	2, 0x
    441a:	0000                	.insn	2, 0x
    441c:	0a25                	.insn	2, 0x0a25
    441e:	0000                	.insn	2, 0x
    4420:	6854                	.insn	2, 0x6854
    4422:	2065                	.insn	2, 0x2065
    4424:	6172                	.insn	2, 0x6172
    4426:	646e                	.insn	2, 0x646e
    4428:	76206d6f          	jal	s10,ab8a <__global_pointer+0x6c72>
    442c:	6c61                	.insn	2, 0x6c61
    442e:	6575                	.insn	2, 0x6575
    4430:	7720                	.insn	2, 0x7720
    4432:	7361                	.insn	2, 0x7361
    4434:	203a                	.insn	2, 0x203a
    4436:	0000                	.insn	2, 0x
    4438:	6f59                	.insn	2, 0x6f59
    443a:	2075                	.insn	2, 0x2075
    443c:	76727573          	csrrci	a0,0x767,4
    4440:	7669                	.insn	2, 0x7669
    4442:	6465                	.insn	2, 0x6465
    4444:	7420                	.insn	2, 0x7420
    4446:	6568                	.insn	2, 0x6568
    4448:	6a20                	.insn	2, 0x6a20
    444a:	6e72756f          	jal	a0,2c330 <__global_pointer+0x28418>
    444e:	7965                	.insn	2, 0x7965
    4450:	6220                	.insn	2, 0x6220
    4452:	6361                	.insn	2, 0x6361
    4454:	6f74206b          	.insn	4, 0x6f74206b
    4458:	4520                	.insn	2, 0x4520
    445a:	7261                	.insn	2, 0x7261
    445c:	6874                	.insn	2, 0x6874
    445e:	2021                	.insn	2, 0x2021
    4460:	676e6f43          	.insn	4, 0x676e6f43
    4464:	6172                	.insn	2, 0x6172
    4466:	7574                	.insn	2, 0x7574
    4468:	616c                	.insn	2, 0x616c
    446a:	6974                	.insn	2, 0x6974
    446c:	21736e6f          	jal	t3,3ae82 <__global_pointer+0x36f6a>
    4470:	000a                	.insn	2, 0x000a
    4472:	0000                	.insn	2, 0x
    4474:	6e55                	.insn	2, 0x6e55
    4476:	6f66                	.insn	2, 0x6f66
    4478:	7472                	.insn	2, 0x7472
    447a:	6e75                	.insn	2, 0x6e75
    447c:	7461                	.insn	2, 0x7461
    447e:	6c65                	.insn	2, 0x6c65
    4480:	2c79                	.insn	2, 0x2c79
    4482:	7920                	.insn	2, 0x7920
    4484:	6420756f          	jal	a0,bac6 <__global_pointer+0x7bae>
    4488:	6469                	.insn	2, 0x6469
    448a:	6e20                	.insn	2, 0x6e20
    448c:	7320746f          	jal	s0,bbbe <__global_pointer+0x7ca6>
    4490:	7275                	.insn	2, 0x7275
    4492:	6976                	.insn	2, 0x6976
    4494:	6576                	.insn	2, 0x6576
    4496:	7420                	.insn	2, 0x7420
    4498:	6568                	.insn	2, 0x6568
    449a:	6a20                	.insn	2, 0x6a20
    449c:	6e72756f          	jal	a0,2c382 <__global_pointer+0x2846a>
    44a0:	7965                	.insn	2, 0x7965
    44a2:	6220                	.insn	2, 0x6220
    44a4:	6361                	.insn	2, 0x6361
    44a6:	6f74206b          	.insn	4, 0x6f74206b
    44aa:	4520                	.insn	2, 0x4520
    44ac:	7261                	.insn	2, 0x7261
    44ae:	6874                	.insn	2, 0x6874
    44b0:	0a2e                	.insn	2, 0x0a2e
    44b2:	0000                	.insn	2, 0x
    44b4:	746e6f43          	.insn	4, 0x746e6f43
    44b8:	6e69                	.insn	2, 0x6e69
    44ba:	6975                	.insn	2, 0x6975
    44bc:	676e                	.insn	2, 0x676e
    44be:	7420                	.insn	2, 0x7420
    44c0:	6568                	.insn	2, 0x6568
    44c2:	6720                	.insn	2, 0x6720
    44c4:	6d61                	.insn	2, 0x6d61
    44c6:	2e65                	.insn	2, 0x2e65
    44c8:	2e2e                	.insn	2, 0x2e2e
    44ca:	000a                	.insn	2, 0x000a
    44cc:	62617247          	.insn	4, 0x62617247
    44d0:	7320                	.insn	2, 0x7320
    44d2:	20656d6f          	jal	s10,5a6d8 <__global_pointer+0x567c0>
    44d6:	6f66                	.insn	2, 0x6f66
    44d8:	0a3f646f          	jal	s0,fad7a <__global_pointer+0xf6e62>
    44dc:	0000                	.insn	2, 0x
    44de:	0000                	.insn	2, 0x
    44e0:	6f59                	.insn	2, 0x6f59
    44e2:	2075                	.insn	2, 0x2075
    44e4:	6964                	.insn	2, 0x6964
    44e6:	2064                	.insn	2, 0x2064
    44e8:	6f6e                	.insn	2, 0x6f6e
    44ea:	2074                	.insn	2, 0x2074
    44ec:	62617267          	.insn	4, 0x62617267
    44f0:	6120                	.insn	2, 0x6120
    44f2:	796e                	.insn	2, 0x796e
    44f4:	6620                	.insn	2, 0x6620
    44f6:	2e646f6f          	jal	t5,4a7dc <__global_pointer+0x468c4>
    44fa:	000a                	.insn	2, 0x000a
    44fc:	6441                	.insn	2, 0x6441
    44fe:	2064                	.insn	2, 0x2064
    4500:	7566                	.insn	2, 0x7566
    4502:	6c65                	.insn	2, 0x6c65
    4504:	7420                	.insn	2, 0x7420
    4506:	6874206f          	j	4738c <__global_pointer+0x43474>
    450a:	2065                	.insn	2, 0x2065
    450c:	6e65                	.insn	2, 0x6e65
    450e:	656e6967          	.insn	4, 0x656e6967
    4512:	6220                	.insn	2, 0x6220
    4514:	7961                	.insn	2, 0x7961
    4516:	00000a3f 6f590000 	.insn	8, 0x6f59000000000a3f
    451e:	2075                	.insn	2, 0x2075
    4520:	6168                	.insn	2, 0x6168
    4522:	6576                	.insn	2, 0x6576
    4524:	6e20                	.insn	2, 0x6e20
    4526:	6120776f          	jal	a4,bb38 <__global_pointer+0x7c20>
    452a:	6464                	.insn	2, 0x6464
    452c:	6465                	.insn	2, 0x6465
    452e:	6620                	.insn	2, 0x6620
    4530:	6575                	.insn	2, 0x6575
    4532:	206c                	.insn	2, 0x206c
    4534:	6f74                	.insn	2, 0x6f74
    4536:	7420                	.insn	2, 0x7420
    4538:	6568                	.insn	2, 0x6568
    453a:	6520                	.insn	2, 0x6520
    453c:	676e                	.insn	2, 0x676e
    453e:	6e69                	.insn	2, 0x6e69
    4540:	2065                	.insn	2, 0x2065
    4542:	6162                	.insn	2, 0x6162
    4544:	2e79                	.insn	2, 0x2e79
    4546:	000a                	.insn	2, 0x000a
    4548:	6f59                	.insn	2, 0x6f59
    454a:	2075                	.insn	2, 0x2075
    454c:	6f64                	.insn	2, 0x6f64
    454e:	276e                	.insn	2, 0x276e
    4550:	2074                	.insn	2, 0x2074
    4552:	6168                	.insn	2, 0x6168
    4554:	6576                	.insn	2, 0x6576
    4556:	6120                	.insn	2, 0x6120
    4558:	796e                	.insn	2, 0x796e
    455a:	6620                	.insn	2, 0x6620
    455c:	6575                	.insn	2, 0x6575
    455e:	206c                	.insn	2, 0x206c
    4560:	6e69                	.insn	2, 0x6e69
    4562:	7920                	.insn	2, 0x7920
    4564:	2072756f          	jal	a0,2bf6a <__global_pointer+0x28052>
    4568:	6e69                	.insn	2, 0x6e69
    456a:	6576                	.insn	2, 0x6576
    456c:	746e                	.insn	2, 0x746e
    456e:	2e79726f          	jal	tp,9c054 <__global_pointer+0x9813c>
    4572:	000a                	.insn	2, 0x000a
    4574:	6f59                	.insn	2, 0x6f59
    4576:	2075                	.insn	2, 0x2075
    4578:	206e6163          	bltu	t3,t1,477a <__global_pointer+0x862>
    457c:	6e69                	.insn	2, 0x6e69
    457e:	6574                	.insn	2, 0x6574
    4580:	6172                	.insn	2, 0x6172
    4582:	77207463          	bgeu	zero,s2,4cea <__global_pointer+0xdd2>
    4586:	7469                	.insn	2, 0x7469
    4588:	2068                	.insn	2, 0x2068
    458a:	6874                	.insn	2, 0x6874
    458c:	2065                	.insn	2, 0x2065
    458e:	616c                	.insn	2, 0x616c
    4590:	6f62                	.insn	2, 0x6f62
    4592:	6172                	.insn	2, 0x6172
    4594:	6f74                	.insn	2, 0x6f74
    4596:	7972                	.insn	2, 0x7972
    4598:	0a2e                	.insn	2, 0x0a2e
    459a:	0000                	.insn	2, 0x
    459c:	4145                	.insn	2, 0x4145
    459e:	203a5453          	.insn	4, 0x203a5453
    45a2:	7441                	.insn	2, 0x7441
    45a4:	6574                	.insn	2, 0x6574
    45a6:	706d                	.insn	2, 0x706d
    45a8:	2074                	.insn	2, 0x2074
    45aa:	6f74                	.insn	2, 0x6f74
    45ac:	6320                	.insn	2, 0x6320
    45ae:	6572                	.insn	2, 0x6572
    45b0:	7461                	.insn	2, 0x7461
    45b2:	2065                	.insn	2, 0x2065
    45b4:	45544157          	.insn	4, 0x45544157
    45b8:	0a52                	.insn	2, 0x0a52
    45ba:	0000                	.insn	2, 0x
    45bc:	54534557          	.insn	4, 0x54534557
    45c0:	203a                	.insn	2, 0x203a
    45c2:	7441                	.insn	2, 0x7441
    45c4:	6574                	.insn	2, 0x6574
    45c6:	706d                	.insn	2, 0x706d
    45c8:	2074                	.insn	2, 0x2074
    45ca:	6f74                	.insn	2, 0x6f74
    45cc:	6320                	.insn	2, 0x6320
    45ce:	6572                	.insn	2, 0x6572
    45d0:	7461                	.insn	2, 0x7461
    45d2:	2065                	.insn	2, 0x2065
    45d4:	5546                	.insn	2, 0x5546
    45d6:	4c45                	.insn	2, 0x4c45
    45d8:	000a                	.insn	2, 0x000a
    45da:	0000                	.insn	2, 0x
    45dc:	4f4e                	.insn	2, 0x4f4e
    45de:	5452                	.insn	2, 0x5452
    45e0:	3a48                	.insn	2, 0x3a48
    45e2:	4520                	.insn	2, 0x4520
    45e4:	6978                	.insn	2, 0x6978
    45e6:	0a74                	.insn	2, 0x0a74
    45e8:	0000                	.insn	2, 0x
    45ea:	0000                	.insn	2, 0x
    45ec:	6f59                	.insn	2, 0x6f59
    45ee:	2075                	.insn	2, 0x2075
    45f0:	61657263          	bgeu	a0,s6,4bf4 <__global_pointer+0xcdc>
    45f4:	6574                	.insn	2, 0x6574
    45f6:	2064                	.insn	2, 0x2064
    45f8:	656d6f73          	csrrsi	t5,hviprio1h,26
    45fc:	5720                	.insn	2, 0x5720
    45fe:	5441                	.insn	2, 0x5441
    4600:	5245                	.insn	2, 0x5245
    4602:	0a2e                	.insn	2, 0x0a2e
    4604:	0000                	.insn	2, 0x
    4606:	0000                	.insn	2, 0x
    4608:	6f59                	.insn	2, 0x6f59
    460a:	2075                	.insn	2, 0x2075
    460c:	61657263          	bgeu	a0,s6,4c10 <__global_pointer+0xcf8>
    4610:	6574                	.insn	2, 0x6574
    4612:	2064                	.insn	2, 0x2064
    4614:	656d6f73          	csrrsi	t5,hviprio1h,26
    4618:	4620                	.insn	2, 0x4620
    461a:	4555                	.insn	2, 0x4555
    461c:	2e4c                	.insn	2, 0x2e4c
    461e:	000a                	.insn	2, 0x000a
    4620:	6f59                	.insn	2, 0x6f59
    4622:	2075                	.insn	2, 0x2075
    4624:	7261                	.insn	2, 0x7261
    4626:	2065                	.insn	2, 0x2065
    4628:	6261                	.insn	2, 0x6261
    462a:	2074756f          	jal	a0,4c030 <__global_pointer+0x48118>
    462e:	6f74                	.insn	2, 0x6f74
    4630:	6c20                	.insn	2, 0x6c20
    4632:	6165                	.insn	2, 0x6165
    4634:	6576                	.insn	2, 0x6576
    4636:	7420                	.insn	2, 0x7420
    4638:	6568                	.insn	2, 0x6568
    463a:	7320                	.insn	2, 0x7320
    463c:	6968                	.insn	2, 0x6968
    463e:	2c70                	.insn	2, 0x2c70
    4640:	7220                	.insn	2, 0x7220
    4642:	6d65                	.insn	2, 0x6d65
    4644:	6d65                	.insn	2, 0x6d65
    4646:	6562                	.insn	2, 0x6562
    4648:	2072                	.insn	2, 0x2072
    464a:	6f74                	.insn	2, 0x6f74
    464c:	6b20                	.insn	2, 0x6b20
    464e:	6565                	.insn	2, 0x6565
    4650:	2070                	.insn	2, 0x2070
    4652:	6e61                	.insn	2, 0x6e61
    4654:	6520                	.insn	2, 0x6520
    4656:	6579                	.insn	2, 0x6579
    4658:	6f20                	.insn	2, 0x6f20
    465a:	206e                	.insn	2, 0x206e
    465c:	6874                	.insn	2, 0x6874
    465e:	2065                	.insn	2, 0x2065
    4660:	6779786f          	jal	a6,9c4d6 <__global_pointer+0x985be>
    4664:	6e65                	.insn	2, 0x6e65
    4666:	0a2e                	.insn	2, 0x0a2e
    4668:	0000                	.insn	2, 0x
    466a:	0000                	.insn	2, 0x
    466c:	6f59                	.insn	2, 0x6f59
    466e:	2075                	.insn	2, 0x2075
    4670:	7261                	.insn	2, 0x7261
    4672:	2065                	.insn	2, 0x2065
    4674:	6972                	.insn	2, 0x6972
    4676:	20746867          	.insn	4, 0x20746867
    467a:	7374756f          	jal	a0,4c5b0 <__global_pointer+0x48698>
    467e:	6469                	.insn	2, 0x6469
    4680:	2065                	.insn	2, 0x2065
    4682:	6874                	.insn	2, 0x6874
    4684:	2065                	.insn	2, 0x2065
    4686:	70696873          	csrrsi	a6,0x706,18
    468a:	6e20                	.insn	2, 0x6e20
    468c:	0a2e776f          	jal	a4,eb72e <__global_pointer+0xe7816>
    4690:	0000                	.insn	2, 0x
    4692:	0000                	.insn	2, 0x
    4694:	6f44                	.insn	2, 0x6f44
    4696:	7920                	.insn	2, 0x7920
    4698:	7720756f          	jal	a0,be0a <__global_pointer+0x7ef2>
    469c:	6e61                	.insn	2, 0x6e61
    469e:	2074                	.insn	2, 0x2074
    46a0:	6f74                	.insn	2, 0x6f74
    46a2:	6c20                	.insn	2, 0x6c20
    46a4:	206b6f6f          	jal	t5,ba8aa <__global_pointer+0xb6992>
    46a8:	7261                	.insn	2, 0x7261
    46aa:	646e756f          	jal	a0,ebcf0 <__global_pointer+0xe7dd8>
    46ae:	7420                	.insn	2, 0x7420
    46b0:	6568                	.insn	2, 0x6568
    46b2:	6c20                	.insn	2, 0x6c20
    46b4:	6e61                	.insn	2, 0x6e61
    46b6:	6964                	.insn	2, 0x6964
    46b8:	676e                	.insn	2, 0x676e
    46ba:	7320                	.insn	2, 0x7320
    46bc:	7469                	.insn	2, 0x7469
    46be:	3f65                	.insn	2, 0x3f65
    46c0:	000a                	.insn	2, 0x000a
    46c2:	0000                	.insn	2, 0x
    46c4:	6641                	.insn	2, 0x6641
    46c6:	6574                	.insn	2, 0x6574
    46c8:	2072                	.insn	2, 0x2072
    46ca:	7865                	.insn	2, 0x7865
    46cc:	6c70                	.insn	2, 0x6c70
    46ce:	6e69726f          	jal	tp,9bdb4 <__global_pointer+0x97e9c>
    46d2:	68742067          	.insn	4, 0x68742067
    46d6:	2065                	.insn	2, 0x2065
    46d8:	616c                	.insn	2, 0x616c
    46da:	646e                	.insn	2, 0x646e
    46dc:	6e69                	.insn	2, 0x6e69
    46de:	69732067          	.insn	4, 0x69732067
    46e2:	6574                	.insn	2, 0x6574
    46e4:	202c                	.insn	2, 0x202c
    46e6:	6f79                	.insn	2, 0x6f79
    46e8:	2075                	.insn	2, 0x2075
    46ea:	6966                	.insn	2, 0x6966
    46ec:	646e                	.insn	2, 0x646e
    46ee:	6120                	.insn	2, 0x6120
    46f0:	7420                	.insn	2, 0x7420
    46f2:	626c6f6f          	jal	t5,cad18 <__global_pointer+0xc6e00>
    46f6:	7720786f          	jal	a6,be68 <__global_pointer+0x7f50>
    46fa:	7469                	.insn	2, 0x7469
    46fc:	2068                	.insn	2, 0x2068
    46fe:	6976                	.insn	2, 0x6976
    4700:	6174                	.insn	2, 0x6174
    4702:	206c                	.insn	2, 0x206c
    4704:	6f74                	.insn	2, 0x6f74
    4706:	20736c6f          	jal	s8,3b10c <__global_pointer+0x371f4>
    470a:	6f66                	.insn	2, 0x6f66
    470c:	2072                	.insn	2, 0x2072
    470e:	6966                	.insn	2, 0x6966
    4710:	6978                	.insn	2, 0x6978
    4712:	676e                	.insn	2, 0x676e
    4714:	7420                	.insn	2, 0x7420
    4716:	6568                	.insn	2, 0x6568
    4718:	7320                	.insn	2, 0x7320
    471a:	6968                	.insn	2, 0x6968
    471c:	2170                	.insn	2, 0x2170
    471e:	000a                	.insn	2, 0x000a
    4720:	6f59                	.insn	2, 0x6f59
    4722:	2075                	.insn	2, 0x2075
    4724:	7261                	.insn	2, 0x7261
    4726:	2065                	.insn	2, 0x2065
    4728:	6e69                	.insn	2, 0x6e69
    472a:	7420                	.insn	2, 0x7420
    472c:	6568                	.insn	2, 0x6568
    472e:	6820                	.insn	2, 0x6820
    4730:	7261                	.insn	2, 0x7261
    4732:	4d206873          	csrrsi	a6,0x4d2,0
    4736:	7261                	.insn	2, 0x7261
    4738:	6974                	.insn	2, 0x6974
    473a:	6e61                	.insn	2, 0x6e61
    473c:	7720                	.insn	2, 0x7720
    473e:	7361                	.insn	2, 0x7361
    4740:	6574                	.insn	2, 0x6574
    4742:	616c                	.insn	2, 0x616c
    4744:	646e                	.insn	2, 0x646e
    4746:	0a2e                	.insn	2, 0x0a2e
    4748:	0000                	.insn	2, 0x
    474a:	0000                	.insn	2, 0x
    474c:	6f44                	.insn	2, 0x6f44
    474e:	7920                	.insn	2, 0x7920
    4750:	7720756f          	jal	a0,bec2 <__global_pointer+0x7faa>
    4754:	6e61                	.insn	2, 0x6e61
    4756:	2074                	.insn	2, 0x2074
    4758:	6f74                	.insn	2, 0x6f74
    475a:	6c20                	.insn	2, 0x6c20
    475c:	206b6f6f          	jal	t5,ba962 <__global_pointer+0xb6a4a>
    4760:	7261                	.insn	2, 0x7261
    4762:	646e756f          	jal	a0,ebda8 <__global_pointer+0xe7e90>
    4766:	7420                	.insn	2, 0x7420
    4768:	6568                	.insn	2, 0x6568
    476a:	7720                	.insn	2, 0x7720
    476c:	7361                	.insn	2, 0x7361
    476e:	6574                	.insn	2, 0x6574
    4770:	616c                	.insn	2, 0x616c
    4772:	646e                	.insn	2, 0x646e
    4774:	00000a3f 65746641 	.insn	8, 0x6574664100000a3f
    477c:	2072                	.insn	2, 0x2072
    477e:	6f6c                	.insn	2, 0x6f6c
    4780:	6e696b6f          	jal	s6,9ae66 <__global_pointer+0x96f4e>
    4784:	72612067          	.insn	4, 0x72612067
    4788:	646e756f          	jal	a0,ebdce <__global_pointer+0xe7eb6>
    478c:	202c                	.insn	2, 0x202c
    478e:	6f79                	.insn	2, 0x6f79
    4790:	2075                	.insn	2, 0x2075
    4792:	6f66                	.insn	2, 0x6f66
    4794:	6e75                	.insn	2, 0x6e75
    4796:	2064                	.insn	2, 0x2064
    4798:	2061                	.insn	2, 0x2061
    479a:	656d                	.insn	2, 0x656d
    479c:	6964                	.insn	2, 0x6964
    479e:	206c6163          	bltu	s8,t1,49a0 <__global_pointer+0xa88>
    47a2:	2174696b          	.insn	4, 0x2174696b
    47a6:	000a                	.insn	2, 0x000a
    47a8:	6641                	.insn	2, 0x6641
    47aa:	6574                	.insn	2, 0x6574
    47ac:	2072                	.insn	2, 0x2072
    47ae:	6f6c                	.insn	2, 0x6f6c
    47b0:	6e696b6f          	jal	s6,9ae96 <__global_pointer+0x96f7e>
    47b4:	72612067          	.insn	4, 0x72612067
    47b8:	646e756f          	jal	a0,ebdfe <__global_pointer+0xe7ee6>
    47bc:	202c                	.insn	2, 0x202c
    47be:	6f79                	.insn	2, 0x6f79
    47c0:	2075                	.insn	2, 0x2075
    47c2:	6f66                	.insn	2, 0x6f66
    47c4:	6e75                	.insn	2, 0x6e75
    47c6:	2064                	.insn	2, 0x2064
    47c8:	2061                	.insn	2, 0x2061
    47ca:	414d                	.insn	2, 0x414d
    47cc:	2150                	.insn	2, 0x2150
    47ce:	000a                	.insn	2, 0x000a
    47d0:	6641                	.insn	2, 0x6641
    47d2:	6574                	.insn	2, 0x6574
    47d4:	2072                	.insn	2, 0x2072
    47d6:	6f6c                	.insn	2, 0x6f6c
    47d8:	6e696b6f          	jal	s6,9aebe <__global_pointer+0x96fa6>
    47dc:	72612067          	.insn	4, 0x72612067
    47e0:	646e756f          	jal	a0,ebe26 <__global_pointer+0xe7f0e>
    47e4:	202c                	.insn	2, 0x202c
    47e6:	6f79                	.insn	2, 0x6f79
    47e8:	2075                	.insn	2, 0x2075
    47ea:	6f66                	.insn	2, 0x6f66
    47ec:	6e75                	.insn	2, 0x6e75
    47ee:	2064                	.insn	2, 0x2064
    47f0:	72617073          	csrci	mhpmevent6h,2
    47f4:	2065                	.insn	2, 0x2065
    47f6:	6170                	.insn	2, 0x6170
    47f8:	7472                	.insn	2, 0x7472
    47fa:	000a2173          	csrrs	sp,ustatus,s4
    47fe:	0000                	.insn	2, 0x
    4800:	6641                	.insn	2, 0x6641
    4802:	6574                	.insn	2, 0x6574
    4804:	2072                	.insn	2, 0x2072
    4806:	6f6c                	.insn	2, 0x6f6c
    4808:	6e696b6f          	jal	s6,9aeee <__global_pointer+0x96fd6>
    480c:	72612067          	.insn	4, 0x72612067
    4810:	646e756f          	jal	a0,ebe56 <__global_pointer+0xe7f3e>
    4814:	202c                	.insn	2, 0x202c
    4816:	6f79                	.insn	2, 0x6f79
    4818:	2075                	.insn	2, 0x2075
    481a:	6f66                	.insn	2, 0x6f66
    481c:	6e75                	.insn	2, 0x6e75
    481e:	2064                	.insn	2, 0x2064
    4820:	2061                	.insn	2, 0x2061
    4822:	6574                	.insn	2, 0x6574
    4824:	6464                	.insn	2, 0x6464
    4826:	2079                	.insn	2, 0x2079
    4828:	6562                	.insn	2, 0x6562
    482a:	7261                	.insn	2, 0x7261
    482c:	0a21                	.insn	2, 0x0a21
    482e:	0000                	.insn	2, 0x
    4830:	6641                	.insn	2, 0x6641
    4832:	6574                	.insn	2, 0x6574
    4834:	2072                	.insn	2, 0x2072
    4836:	6f6c                	.insn	2, 0x6f6c
    4838:	6e696b6f          	jal	s6,9af1e <__global_pointer+0x97006>
    483c:	72612067          	.insn	4, 0x72612067
    4840:	646e756f          	jal	a0,ebe86 <__global_pointer+0xe7f6e>
    4844:	202c                	.insn	2, 0x202c
    4846:	6f79                	.insn	2, 0x6f79
    4848:	2075                	.insn	2, 0x2075
    484a:	6f66                	.insn	2, 0x6f66
    484c:	6e75                	.insn	2, 0x6e75
    484e:	2064                	.insn	2, 0x2064
    4850:	2061                	.insn	2, 0x2061
    4852:	6c62                	.insn	2, 0x6c62
    4854:	6e61                	.insn	2, 0x6e61
    4856:	2174656b          	.insn	4, 0x2174656b
    485a:	000a                	.insn	2, 0x000a
    485c:	6641                	.insn	2, 0x6641
    485e:	6574                	.insn	2, 0x6574
    4860:	2072                	.insn	2, 0x2072
    4862:	6f6c                	.insn	2, 0x6f6c
    4864:	6e696b6f          	jal	s6,9af4a <__global_pointer+0x97032>
    4868:	72612067          	.insn	4, 0x72612067
    486c:	646e756f          	jal	a0,ebeb2 <__global_pointer+0xe7f9a>
    4870:	202c                	.insn	2, 0x202c
    4872:	6f79                	.insn	2, 0x6f79
    4874:	2075                	.insn	2, 0x2075
    4876:	6f66                	.insn	2, 0x6f66
    4878:	6e75                	.insn	2, 0x6e75
    487a:	2064                	.insn	2, 0x2064
    487c:	797a6f63          	bltu	s4,s7,501a <__global_pointer+0x1102>
    4880:	6320                	.insn	2, 0x6320
    4882:	6f6c                	.insn	2, 0x6f6c
    4884:	6874                	.insn	2, 0x6874
    4886:	6e69                	.insn	2, 0x6e69
    4888:	000a2167          	.insn	4, 0x000a2167
    488c:	6641                	.insn	2, 0x6641
    488e:	6574                	.insn	2, 0x6574
    4890:	2072                	.insn	2, 0x2072
    4892:	6f6c                	.insn	2, 0x6f6c
    4894:	6e696b6f          	jal	s6,9af7a <__global_pointer+0x97062>
    4898:	72612067          	.insn	4, 0x72612067
    489c:	646e756f          	jal	a0,ebee2 <__global_pointer+0xe7fca>
    48a0:	202c                	.insn	2, 0x202c
    48a2:	6f79                	.insn	2, 0x6f79
    48a4:	2075                	.insn	2, 0x2075
    48a6:	6f66                	.insn	2, 0x6f66
    48a8:	6e75                	.insn	2, 0x6e75
    48aa:	2064                	.insn	2, 0x2064
    48ac:	2061                	.insn	2, 0x2061
    48ae:	6c6f6f63          	bltu	t5,t1,4f8c <__global_pointer+0x1074>
    48b2:	7220                	.insn	2, 0x7220
    48b4:	7265766f          	jal	a2,5bfda <__global_pointer+0x580c2>
    48b8:	6120                	.insn	2, 0x6120
    48ba:	6d72                	.insn	2, 0x6d72
    48bc:	0a21                	.insn	2, 0x0a21
    48be:	0000                	.insn	2, 0x
    48c0:	6855                	.insn	2, 0x6855
    48c2:	6f20                	.insn	2, 0x6f20
    48c4:	2c68                	.insn	2, 0x2c68
    48c6:	6920                	.insn	2, 0x6920
    48c8:	2074                	.insn	2, 0x2074
    48ca:	6f74                	.insn	2, 0x6f74
    48cc:	61206b6f          	jal	s6,aede <__global_pointer+0x6fc6>
    48d0:	6c20                	.insn	2, 0x6c20
    48d2:	6f20746f          	jal	s0,bfc4 <__global_pointer+0x80ac>
    48d6:	2066                	.insn	2, 0x2066
    48d8:	6e65                	.insn	2, 0x6e65
    48da:	7265                	.insn	2, 0x7265
    48dc:	74207967          	.insn	4, 0x74207967
    48e0:	6567206f          	j	76f36 <__global_pointer+0x7301e>
    48e4:	2074                	.insn	2, 0x2074
    48e6:	2074756f          	jal	a0,4c2ec <__global_pointer+0x483d4>
    48ea:	7420666f          	jal	a2,b02c <__global_pointer+0x7114>
    48ee:	6568                	.insn	2, 0x6568
    48f0:	6c20                	.insn	2, 0x6c20
    48f2:	65736f6f          	jal	t5,3b748 <__global_pointer+0x37830>
    48f6:	7320                	.insn	2, 0x7320
    48f8:	2e6c696f          	jal	s2,cabde <__global_pointer+0xc6cc6>
    48fc:	000a                	.insn	2, 0x000a
    48fe:	0000                	.insn	2, 0x
    4900:	6f59                	.insn	2, 0x6f59
    4902:	2075                	.insn	2, 0x2075
    4904:	20656573          	csrrsi	a0,0x206,10
    4908:	2061                	.insn	2, 0x2061
    490a:	616c                	.insn	2, 0x616c
    490c:	6772                	.insn	2, 0x6772
    490e:	2065                	.insn	2, 0x2065
    4910:	6369                	.insn	2, 0x6369
    4912:	2065                	.insn	2, 0x2065
    4914:	6f70                	.insn	2, 0x6f70
    4916:	646e                	.insn	2, 0x646e
    4918:	202c                	.insn	2, 0x202c
    491a:	616d                	.insn	2, 0x616d
    491c:	6279                	.insn	2, 0x6279
    491e:	2065                	.insn	2, 0x2065
    4920:	6874                	.insn	2, 0x6874
    4922:	7265                	.insn	2, 0x7265
    4924:	2065                	.insn	2, 0x2065
    4926:	7369                	.insn	2, 0x7369
    4928:	6c20                	.insn	2, 0x6c20
    492a:	6669                	.insn	2, 0x6669
    492c:	3f65                	.insn	2, 0x3f65
    492e:	4420                	.insn	2, 0x4420
    4930:	7369                	.insn	2, 0x7369
    4932:	65766f63          	bltu	a2,s7,4f90 <__global_pointer+0x1078>
    4936:	3f72                	.insn	2, 0x3f72
    4938:	000a                	.insn	2, 0x000a
    493a:	0000                	.insn	2, 0x
    493c:	6f59                	.insn	2, 0x6f59
    493e:	2075                	.insn	2, 0x2075
    4940:	6f6c                	.insn	2, 0x6f6c
    4942:	61206b6f          	jal	s6,af54 <__global_pointer+0x703c>
    4946:	6f72                	.insn	2, 0x6f72
    4948:	6e75                	.insn	2, 0x6e75
    494a:	2064                	.insn	2, 0x2064
    494c:	6e61                	.insn	2, 0x6e61
    494e:	2064                	.insn	2, 0x2064
    4950:	6966                	.insn	2, 0x6966
    4952:	646e                	.insn	2, 0x646e
    4954:	7320                	.insn	2, 0x7320
    4956:	20656d6f          	jal	s10,5ab5c <__global_pointer+0x56c44>
    495a:	6174                	.insn	2, 0x6174
    495c:	6472                	.insn	2, 0x6472
    495e:	6769                	.insn	2, 0x6769
    4960:	6172                	.insn	2, 0x6172
    4962:	6564                	.insn	2, 0x6564
    4964:	59202173          	csrr	sp,0x592
    4968:	6320756f          	jal	a0,bf9a <__global_pointer+0x8082>
    496c:	656c6c6f          	jal	s8,cafc2 <__global_pointer+0xc70aa>
    4970:	74207463          	bgeu	zero,sp,50b8 <__global_pointer+0x11a0>
    4974:	6568                	.insn	2, 0x6568
    4976:	2e6d                	.insn	2, 0x2e6d
    4978:	000a                	.insn	2, 0x000a
    497a:	0000                	.insn	2, 0x
    497c:	6e20684f          	.insn	4, 0x6e20684f
    4980:	74202c6f          	jal	s8,70c2 <__global_pointer+0x31aa>
    4984:	6568                	.insn	2, 0x6568
    4986:	7320                	.insn	2, 0x7320
    4988:	6168                	.insn	2, 0x6168
    498a:	7072                	.insn	2, 0x7072
    498c:	7220                	.insn	2, 0x7220
    498e:	736b636f          	jal	t1,bb0c4 <__global_pointer+0xb71ac>
    4992:	6320                	.insn	2, 0x6320
    4994:	6172                	.insn	2, 0x6172
    4996:	64656b63          	bltu	a0,t1,4fec <__global_pointer+0x10d4>
    499a:	6f20                	.insn	2, 0x6f20
    499c:	656e                	.insn	2, 0x656e
    499e:	6f20                	.insn	2, 0x6f20
    49a0:	2066                	.insn	2, 0x2066
    49a2:	6f79                	.insn	2, 0x6f79
    49a4:	7275                	.insn	2, 0x7275
    49a6:	6f20                	.insn	2, 0x6f20
    49a8:	7978                	.insn	2, 0x7978
    49aa:	206e6567          	.insn	4, 0x206e6567
    49ae:	6174                	.insn	2, 0x6174
    49b0:	6b6e                	.insn	2, 0x6b6e
    49b2:	79202c73          	csrr	s8,0x792
    49b6:	6f20756f          	jal	a0,c0a8 <__global_pointer+0x8190>
    49ba:	6c6e                	.insn	2, 0x6c6e
    49bc:	2079                	.insn	2, 0x2079
    49be:	6168                	.insn	2, 0x6168
    49c0:	6576                	.insn	2, 0x6576
    49c2:	6820                	.insn	2, 0x6820
    49c4:	6c61                	.insn	2, 0x6c61
    49c6:	2066                	.insn	2, 0x2066
    49c8:	7420666f          	jal	a2,b10a <__global_pointer+0x71f2>
    49cc:	6568                	.insn	2, 0x6568
    49ce:	6f20                	.insn	2, 0x6f20
    49d0:	7978                	.insn	2, 0x7978
    49d2:	206e6567          	.insn	4, 0x206e6567
    49d6:	656c                	.insn	2, 0x656c
    49d8:	7466                	.insn	2, 0x7466
    49da:	0a21                	.insn	2, 0x0a21
    49dc:	0000                	.insn	2, 0x
    49de:	0000                	.insn	2, 0x
    49e0:	6f59                	.insn	2, 0x6f59
    49e2:	2075                	.insn	2, 0x2075
    49e4:	6e65                	.insn	2, 0x6e65
    49e6:	6574                	.insn	2, 0x6574
    49e8:	2072                	.insn	2, 0x2072
    49ea:	2061                	.insn	2, 0x2061
    49ec:	6164                	.insn	2, 0x6164
    49ee:	6b72                	.insn	2, 0x6b72
    49f0:	6320                	.insn	2, 0x6320
    49f2:	7661                	.insn	2, 0x7661
    49f4:	2c65                	.insn	2, 0x2c65
    49f6:	6420                	.insn	2, 0x6420
    49f8:	7369                	.insn	2, 0x7369
    49fa:	65766f63          	bltu	a2,s7,5058 <__global_pointer+0x1140>
    49fe:	2072                	.insn	2, 0x2072
    4a00:	6f6d                	.insn	2, 0x6f6d
    4a02:	6572                	.insn	2, 0x6572
    4a04:	00000a3f 20756f59 	.insn	8, 0x20756f5900000a3f
    4a0c:	6f66                	.insn	2, 0x6f66
    4a0e:	6e75                	.insn	2, 0x6e75
    4a10:	2064                	.insn	2, 0x2064
    4a12:	656d6f73          	csrrsi	t5,hviprio1h,26
    4a16:	6120                	.insn	2, 0x6120
    4a18:	696c                	.insn	2, 0x696c
    4a1a:	6e65                	.insn	2, 0x6e65
    4a1c:	6220                	.insn	2, 0x6220
    4a1e:	73656e6f          	jal	t3,5b154 <__global_pointer+0x5723c>
    4a22:	6120                	.insn	2, 0x6120
    4a24:	646e                	.insn	2, 0x646e
    4a26:	6320                	.insn	2, 0x6320
    4a28:	656c6c6f          	jal	s8,cb07e <__global_pointer+0xc7166>
    4a2c:	64657463          	bgeu	a0,t1,5074 <__global_pointer+0x115c>
    4a30:	7420                	.insn	2, 0x7420
    4a32:	6568                	.insn	2, 0x6568
    4a34:	2e6d                	.insn	2, 0x2e6d
    4a36:	000a                	.insn	2, 0x000a
    4a38:	6f59                	.insn	2, 0x6f59
    4a3a:	2075                	.insn	2, 0x2075
    4a3c:	7261                	.insn	2, 0x7261
    4a3e:	2065                	.insn	2, 0x2065
    4a40:	6e69                	.insn	2, 0x6e69
    4a42:	6120                	.insn	2, 0x6120
    4a44:	6320                	.insn	2, 0x6320
    4a46:	6172                	.insn	2, 0x6172
    4a48:	6574                	.insn	2, 0x6574
    4a4a:	2c72                	.insn	2, 0x2c72
    4a4c:	7720                	.insn	2, 0x7720
    4a4e:	6e61                	.insn	2, 0x6e61
    4a50:	2074                	.insn	2, 0x2074
    4a52:	6f74                	.insn	2, 0x6f74
    4a54:	6420                	.insn	2, 0x6420
    4a56:	7369                	.insn	2, 0x7369
    4a58:	65766f63          	bltu	a2,s7,50b6 <__global_pointer+0x119e>
    4a5c:	2072                	.insn	2, 0x2072
    4a5e:	656d6f73          	csrrsi	t5,hviprio1h,26
    4a62:	6d20                	.insn	2, 0x6d20
    4a64:	3f65726f          	jal	tp,5be5a <__global_pointer+0x57f42>
    4a68:	000a                	.insn	2, 0x000a
    4a6a:	0000                	.insn	2, 0x
    4a6c:	6f59                	.insn	2, 0x6f59
    4a6e:	2075                	.insn	2, 0x2075
    4a70:	6f66                	.insn	2, 0x6f66
    4a72:	6e75                	.insn	2, 0x6e75
    4a74:	2064                	.insn	2, 0x2064
    4a76:	6e69                	.insn	2, 0x6e69
    4a78:	6574                	.insn	2, 0x6574
    4a7a:	6572                	.insn	2, 0x6572
    4a7c:	6e697473          	csrrci	s0,0x6e6,18
    4a80:	65732067          	.insn	4, 0x65732067
    4a84:	6964                	.insn	2, 0x6964
    4a86:	656d                	.insn	2, 0x656d
    4a88:	746e                	.insn	2, 0x746e
    4a8a:	6e612073          	csrs	0x6e6,sp
    4a8e:	2064                	.insn	2, 0x2064
    4a90:	6c6c6f63          	bltu	s8,t1,516e <__global_pointer+0x1256>
    4a94:	6365                	.insn	2, 0x6365
    4a96:	6574                	.insn	2, 0x6574
    4a98:	2064                	.insn	2, 0x2064
    4a9a:	656d6f73          	csrrsi	t5,hviprio1h,26
    4a9e:	7320                	.insn	2, 0x7320
    4aa0:	6d61                	.insn	2, 0x6d61
    4aa2:	6c70                	.insn	2, 0x6c70
    4aa4:	7365                	.insn	2, 0x7365
    4aa6:	0a2e                	.insn	2, 0x0a2e
    4aa8:	0000                	.insn	2, 0x
    4aaa:	0000                	.insn	2, 0x
    4aac:	6f59                	.insn	2, 0x6f59
    4aae:	2075                	.insn	2, 0x2075
    4ab0:	7261                	.insn	2, 0x7261
    4ab2:	2065                	.insn	2, 0x2065
    4ab4:	6e69                	.insn	2, 0x6e69
    4ab6:	6120                	.insn	2, 0x6120
    4ab8:	6c20                	.insn	2, 0x6c20
    4aba:	7261                	.insn	2, 0x7261
    4abc:	63206567          	.insn	4, 0x63206567
    4ac0:	6e61                	.insn	2, 0x6e61
    4ac2:	6f79                	.insn	2, 0x6f79
    4ac4:	2c6e                	.insn	2, 0x2c6e
    4ac6:	7720                	.insn	2, 0x7720
    4ac8:	6e61                	.insn	2, 0x6e61
    4aca:	2074                	.insn	2, 0x2074
    4acc:	6f74                	.insn	2, 0x6f74
    4ace:	7320                	.insn	2, 0x7320
    4ad0:	6565                	.insn	2, 0x6565
    4ad2:	7720                	.insn	2, 0x7720
    4ad4:	6168                	.insn	2, 0x6168
    4ad6:	2074                	.insn	2, 0x2074
    4ad8:	696c                	.insn	2, 0x696c
    4ada:	7365                	.insn	2, 0x7365
    4adc:	6820                	.insn	2, 0x6820
    4ade:	7265                	.insn	2, 0x7265
    4ae0:	3f65                	.insn	2, 0x3f65
    4ae2:	000a                	.insn	2, 0x000a
    4ae4:	6f59                	.insn	2, 0x6f59
    4ae6:	2075                	.insn	2, 0x2075
    4ae8:	6966                	.insn	2, 0x6966
    4aea:	646e                	.insn	2, 0x646e
    4aec:	6920                	.insn	2, 0x6920
    4aee:	746e                	.insn	2, 0x746e
    4af0:	7265                	.insn	2, 0x7265
    4af2:	7365                	.insn	2, 0x7365
    4af4:	6974                	.insn	2, 0x6974
    4af6:	676e                	.insn	2, 0x676e
    4af8:	5220                	.insn	2, 0x5220
    4afa:	74204c53          	.insn	4, 0x74204c53
    4afe:	6172                	.insn	2, 0x6172
    4b00:	6c69                	.insn	2, 0x6c69
    4b02:	79202c73          	csrr	s8,0x792
    4b06:	6320756f          	jal	a0,c138 <__global_pointer+0x8220>
    4b0a:	656c6c6f          	jal	s8,cb160 <__global_pointer+0xc7248>
    4b0e:	73207463          	bgeu	zero,s2,5236 <__global_pointer+0x131e>
    4b12:	20656d6f          	jal	s10,5ad18 <__global_pointer+0x56e00>
    4b16:	6d69                	.insn	2, 0x6d69
    4b18:	6761                	.insn	2, 0x6761
    4b1a:	7365                	.insn	2, 0x7365
    4b1c:	0a2e                	.insn	2, 0x0a2e
    4b1e:	0000                	.insn	2, 0x
    4b20:	6f59                	.insn	2, 0x6f59
    4b22:	2075                	.insn	2, 0x2075
    4b24:	7261                	.insn	2, 0x7261
    4b26:	2065                	.insn	2, 0x2065
    4b28:	74206e6f          	jal	t3,b26a <__global_pointer+0x7352>
    4b2c:	6f20706f          	j	c21e <__global_pointer+0x8306>
    4b30:	2066                	.insn	2, 0x2066
    4b32:	2061                	.insn	2, 0x2061
    4b34:	6962                	.insn	2, 0x6962
    4b36:	6f6d2067          	.insn	4, 0x6f6d2067
    4b3a:	6e75                	.insn	2, 0x6e75
    4b3c:	6174                	.insn	2, 0x6174
    4b3e:	6e69                	.insn	2, 0x6e69
    4b40:	202c                	.insn	2, 0x202c
    4b42:	746e6177          	.insn	4, 0x746e6177
    4b46:	7420                	.insn	2, 0x7420
    4b48:	6964206f          	j	471de <__global_pointer+0x432c6>
    4b4c:	766f6373          	csrrsi	t1,0x766,30
    4b50:	7265                	.insn	2, 0x7265
    4b52:	00000a3f 6f590000 	.insn	8, 0x6f59000000000a3f
    4b5a:	2075                	.insn	2, 0x2075
    4b5c:	6966                	.insn	2, 0x6966
    4b5e:	646e                	.insn	2, 0x646e
    4b60:	7320                	.insn	2, 0x7320
    4b62:	20656d6f          	jal	s10,5ad68 <__global_pointer+0x56e50>
    4b66:	6369                	.insn	2, 0x6369
    4b68:	2065                	.insn	2, 0x2065
    4b6a:	706d6173          	csrrsi	sp,0x706,26
    4b6e:	656c                	.insn	2, 0x656c
    4b70:	6e612073          	csrs	0x6e6,sp
    4b74:	2064                	.insn	2, 0x2064
    4b76:	6c6c6f63          	bltu	s8,t1,5254 <__global_pointer+0x133c>
    4b7a:	6365                	.insn	2, 0x6365
    4b7c:	2074                	.insn	2, 0x2074
    4b7e:	6874                	.insn	2, 0x6874
    4b80:	6d65                	.insn	2, 0x6d65
    4b82:	0a2e                	.insn	2, 0x0a2e
    4b84:	0000                	.insn	2, 0x
    4b86:	0000                	.insn	2, 0x
    4b88:	6854                	.insn	2, 0x6854
    4b8a:	7265                	.insn	2, 0x7265
    4b8c:	2065                	.insn	2, 0x2065
    4b8e:	7369                	.insn	2, 0x7369
    4b90:	6e20                	.insn	2, 0x6e20
    4b92:	6968746f          	jal	s0,8c228 <__global_pointer+0x88310>
    4b96:	676e                	.insn	2, 0x676e
    4b98:	7420                	.insn	2, 0x7420
    4b9a:	6e69206f          	j	97280 <__global_pointer+0x93368>
    4b9e:	6574                	.insn	2, 0x6574
    4ba0:	6172                	.insn	2, 0x6172
    4ba2:	77207463          	bgeu	zero,s2,530a <__global_pointer+0x13f2>
    4ba6:	7469                	.insn	2, 0x7469
    4ba8:	2068                	.insn	2, 0x2068
    4baa:	6568                	.insn	2, 0x6568
    4bac:	6572                	.insn	2, 0x6572
    4bae:	0a2e                	.insn	2, 0x0a2e
    4bb0:	0000                	.insn	2, 0x
    4bb2:	0000                	.insn	2, 0x
    4bb4:	6f59                	.insn	2, 0x6f59
    4bb6:	2075                	.insn	2, 0x2075
    4bb8:	746e6163          	bltu	t3,t1,52fa <__global_pointer+0x13e2>
    4bbc:	6d20                	.insn	2, 0x6d20
    4bbe:	2065766f          	jal	a2,5bdc4 <__global_pointer+0x57eac>
    4bc2:	6568                	.insn	2, 0x6568
    4bc4:	6572                	.insn	2, 0x6572
    4bc6:	202c                	.insn	2, 0x202c
    4bc8:	6874                	.insn	2, 0x6874
    4bca:	7265                	.insn	2, 0x7265
    4bcc:	2065                	.insn	2, 0x2065
    4bce:	7369                	.insn	2, 0x7369
    4bd0:	6120                	.insn	2, 0x6120
    4bd2:	6d20                	.insn	2, 0x6d20
    4bd4:	746e756f          	jal	a0,ec31a <__global_pointer+0xe8402>
    4bd8:	6961                	.insn	2, 0x6961
    4bda:	206e                	.insn	2, 0x206e
    4bdc:	6e69                	.insn	2, 0x6e69
    4bde:	7920                	.insn	2, 0x7920
    4be0:	7720756f          	jal	a0,c352 <__global_pointer+0x843a>
    4be4:	7961                	.insn	2, 0x7961
    4be6:	0a21                	.insn	2, 0x0a21
    4be8:	0000                	.insn	2, 0x
    4bea:	0000                	.insn	2, 0x
    4bec:	6f59                	.insn	2, 0x6f59
    4bee:	2075                	.insn	2, 0x2075
    4bf0:	746e6163          	bltu	t3,t1,5332 <__global_pointer+0x141a>
    4bf4:	6d20                	.insn	2, 0x6d20
    4bf6:	2065766f          	jal	a2,5bdfc <__global_pointer+0x57ee4>
    4bfa:	6568                	.insn	2, 0x6568
    4bfc:	6572                	.insn	2, 0x6572
    4bfe:	202c                	.insn	2, 0x202c
    4c00:	6874                	.insn	2, 0x6874
    4c02:	7265                	.insn	2, 0x7265
    4c04:	2065                	.insn	2, 0x2065
    4c06:	7369                	.insn	2, 0x7369
    4c08:	6120                	.insn	2, 0x6120
    4c0a:	7220                	.insn	2, 0x7220
    4c0c:	656b636f          	jal	t1,bb262 <__global_pointer+0xb734a>
    4c10:	2074                	.insn	2, 0x2074
    4c12:	6e69                	.insn	2, 0x6e69
    4c14:	7920                	.insn	2, 0x7920
    4c16:	7720756f          	jal	a0,c388 <__global_pointer+0x8470>
    4c1a:	7961                	.insn	2, 0x7961
    4c1c:	2021                	.insn	2, 0x2021
    4c1e:	6550                	.insn	2, 0x6550
    4c20:	6872                	.insn	2, 0x6872
    4c22:	7061                	.insn	2, 0x7061
    4c24:	6f792073          	csrs	0x6f7,s2
    4c28:	2075                	.insn	2, 0x2075
    4c2a:	206e6163          	bltu	t3,t1,4e2c <__global_pointer+0xf14>
    4c2e:	6966                	.insn	2, 0x6966
    4c30:	646e                	.insn	2, 0x646e
    4c32:	6120                	.insn	2, 0x6120
    4c34:	6420                	.insn	2, 0x6420
    4c36:	3f726f6f          	jal	t5,2b82c <__global_pointer+0x27914>
    4c3a:	000a                	.insn	2, 0x000a
    4c3c:	6f44                	.insn	2, 0x6f44
    4c3e:	276e                	.insn	2, 0x276e
    4c40:	2074                	.insn	2, 0x2074
    4c42:	74206f67          	.insn	4, 0x74206f67
    4c46:	6168                	.insn	2, 0x6168
    4c48:	2074                	.insn	2, 0x2074
    4c4a:	2c796177          	.insn	4, 0x2c796177
    4c4e:	6220                	.insn	2, 0x6220
    4c50:	7965                	.insn	2, 0x7965
    4c52:	20646e6f          	jal	t3,4ae58 <__global_pointer+0x46f40>
    4c56:	6874                	.insn	2, 0x6874
    4c58:	2065                	.insn	2, 0x2065
    4c5a:	616d                	.insn	2, 0x616d
    4c5c:	2070                	.insn	2, 0x2070
    4c5e:	6f79                	.insn	2, 0x6f79
    4c60:	2075                	.insn	2, 0x2075
    4c62:	6c6c6977          	.insn	4, 0x6c6c6977
    4c66:	6720                	.insn	2, 0x6720
    4c68:	7465                	.insn	2, 0x7465
    4c6a:	6c20                	.insn	2, 0x6c20
    4c6c:	2174736f          	jal	t1,4c682 <__global_pointer+0x4876a>
    4c70:	000a                	.insn	2, 0x000a
    4c72:	0000                	.insn	2, 0x
    4c74:	6f59                	.insn	2, 0x6f59
    4c76:	2075                	.insn	2, 0x2075
    4c78:	7264                	.insn	2, 0x7264
    4c7a:	6e61                	.insn	2, 0x6e61
    4c7c:	6177206b          	.insn	4, 0x6177206b
    4c80:	6574                	.insn	2, 0x6574
    4c82:	2072                	.insn	2, 0x2072
    4c84:	6e61                	.insn	2, 0x6e61
    4c86:	2064                	.insn	2, 0x2064
    4c88:	7571                	.insn	2, 0x7571
    4c8a:	6e65                	.insn	2, 0x6e65
    4c8c:	64656863          	bltu	a0,t1,52dc <__global_pointer+0x13c4>
    4c90:	7920                	.insn	2, 0x7920
    4c92:	2072756f          	jal	a0,2c698 <__global_pointer+0x28780>
    4c96:	6874                	.insn	2, 0x6874
    4c98:	7269                	.insn	2, 0x7269
    4c9a:	0a217473          	csrrci	s0,0xa2,2
    4c9e:	0000                	.insn	2, 0x
    4ca0:	6f59                	.insn	2, 0x6f59
    4ca2:	2075                	.insn	2, 0x2075
    4ca4:	6168                	.insn	2, 0x6168
    4ca6:	6576                	.insn	2, 0x6576
    4ca8:	6e20                	.insn	2, 0x6e20
    4caa:	6177206f          	j	77ac0 <__global_pointer+0x73ba8>
    4cae:	6574                	.insn	2, 0x6574
    4cb0:	2072                	.insn	2, 0x2072
    4cb2:	6f74                	.insn	2, 0x6f74
    4cb4:	6420                	.insn	2, 0x6420
    4cb6:	6972                	.insn	2, 0x6972
    4cb8:	6b6e                	.insn	2, 0x6b6e
    4cba:	0a2e                	.insn	2, 0x0a2e
    4cbc:	0000                	.insn	2, 0x
    4cbe:	0000                	.insn	2, 0x
    4cc0:	6f59                	.insn	2, 0x6f59
    4cc2:	2075                	.insn	2, 0x2075
    4cc4:	7461                	.insn	2, 0x7461
    4cc6:	2065                	.insn	2, 0x2065
    4cc8:	656d6f73          	csrrsi	t5,hviprio1h,26
    4ccc:	6620                	.insn	2, 0x6620
    4cce:	20646f6f          	jal	t5,4aed4 <__global_pointer+0x46fbc>
    4cd2:	6e61                	.insn	2, 0x6e61
    4cd4:	2064                	.insn	2, 0x2064
    4cd6:	6566                	.insn	2, 0x6566
    4cd8:	6c65                	.insn	2, 0x6c65
    4cda:	6d20                	.insn	2, 0x6d20
    4cdc:	2065726f          	jal	tp,5bee2 <__global_pointer+0x57fca>
    4ce0:	6e65                	.insn	2, 0x6e65
    4ce2:	7265                	.insn	2, 0x7265
    4ce4:	69746567          	.insn	4, 0x69746567
    4ce8:	000a2163          	.insn	4, 0x000a2163
    4cec:	6f59                	.insn	2, 0x6f59
    4cee:	2075                	.insn	2, 0x2075
    4cf0:	6168                	.insn	2, 0x6168
    4cf2:	6576                	.insn	2, 0x6576
    4cf4:	6e20                	.insn	2, 0x6e20
    4cf6:	6f66206f          	j	673ec <__global_pointer+0x634d4>
    4cfa:	7420646f          	jal	s0,b43c <__global_pointer+0x7524>
    4cfe:	6165206f          	j	57314 <__global_pointer+0x533fc>
    4d02:	2e74                	.insn	2, 0x2e74
    4d04:	000a                	.insn	2, 0x000a
    4d06:	0000                	.insn	2, 0x
    4d08:	6e49                	.insn	2, 0x6e49
    4d0a:	6176                	.insn	2, 0x6176
    4d0c:	696c                	.insn	2, 0x696c
    4d0e:	2064                	.insn	2, 0x2064
    4d10:	6964                	.insn	2, 0x6964
    4d12:	616c7073          	csrci	0x616,24
    4d16:	2079                	.insn	2, 0x2079
    4d18:	756e                	.insn	2, 0x756e
    4d1a:	626d                	.insn	2, 0x626d
    4d1c:	7265                	.insn	2, 0x7265
    4d1e:	000a                	.insn	2, 0x000a
    4d20:	6f59                	.insn	2, 0x6f59
    4d22:	2075                	.insn	2, 0x2075
    4d24:	6168                	.insn	2, 0x6168
    4d26:	6576                	.insn	2, 0x6576
    4d28:	6120                	.insn	2, 0x6120
    4d2a:	6464                	.insn	2, 0x6464
    4d2c:	6465                	.insn	2, 0x6465
    4d2e:	203a                	.insn	2, 0x203a
    4d30:	0000                	.insn	2, 0x
    4d32:	0000                	.insn	2, 0x
    4d34:	7420                	.insn	2, 0x7420
    4d36:	6f79206f          	j	97c2c <__global_pointer+0x93d14>
    4d3a:	7275                	.insn	2, 0x7275
    4d3c:	6920                	.insn	2, 0x6920
    4d3e:	766e                	.insn	2, 0x766e
    4d40:	6e65                	.insn	2, 0x6e65
    4d42:	6f74                	.insn	2, 0x6f74
    4d44:	7972                	.insn	2, 0x7972
    4d46:	0a2e                	.insn	2, 0x0a2e
    4d48:	0000                	.insn	2, 0x
    4d4a:	0000                	.insn	2, 0x
    4d4c:	6f59                	.insn	2, 0x6f59
    4d4e:	7275                	.insn	2, 0x7275
    4d50:	6920                	.insn	2, 0x6920
    4d52:	766e                	.insn	2, 0x766e
    4d54:	6e65                	.insn	2, 0x6e65
    4d56:	6f74                	.insn	2, 0x6f74
    4d58:	7972                	.insn	2, 0x7972
    4d5a:	6920                	.insn	2, 0x6920
    4d5c:	75662073          	csrs	0x756,a2
    4d60:	6c6c                	.insn	2, 0x6c6c
    4d62:	2021                	.insn	2, 0x2021
    4d64:	6e6e6143          	.insn	4, 0x6e6e6143
    4d68:	6120746f          	jal	s0,c37a <__global_pointer+0x8462>
    4d6c:	6464                	.insn	2, 0x6464
    4d6e:	6d20                	.insn	2, 0x6d20
    4d70:	2065726f          	jal	tp,5bf76 <__global_pointer+0x5805e>
    4d74:	7469                	.insn	2, 0x7469
    4d76:	6d65                	.insn	2, 0x6d65
    4d78:	000a2e73          	csrrs	t3,ustatus,s4
    4d7c:	6552                	.insn	2, 0x6552
    4d7e:	6f6d                	.insn	2, 0x6f6d
    4d80:	6576                	.insn	2, 0x6576
    4d82:	2064                	.insn	2, 0x2064
    4d84:	0000                	.insn	2, 0x
    4d86:	0000                	.insn	2, 0x
    4d88:	6620                	.insn	2, 0x6620
    4d8a:	6f72                	.insn	2, 0x6f72
    4d8c:	206d                	.insn	2, 0x206d
    4d8e:	6e69                	.insn	2, 0x6e69
    4d90:	6576                	.insn	2, 0x6576
    4d92:	746e                	.insn	2, 0x746e
    4d94:	2079726f          	jal	tp,9c79a <__global_pointer+0x98882>
    4d98:	746f6c73          	csrrsi	s8,0x746,30
    4d9c:	0020                	.insn	2, 0x0020
    4d9e:	0000                	.insn	2, 0x
    4da0:	6e49                	.insn	2, 0x6e49
    4da2:	6576                	.insn	2, 0x6576
    4da4:	746e                	.insn	2, 0x746e
    4da6:	2079726f          	jal	tp,9c7ac <__global_pointer+0x98894>
    4daa:	746f6c73          	csrrsi	s8,0x746,30
    4dae:	0020                	.insn	2, 0x0020
    4db0:	6920                	.insn	2, 0x6920
    4db2:	6c612073          	csrs	0x6c6,sp
    4db6:	6572                	.insn	2, 0x6572
    4db8:	6461                	.insn	2, 0x6461
    4dba:	2079                	.insn	2, 0x2079
    4dbc:	6d65                	.insn	2, 0x6d65
    4dbe:	7470                	.insn	2, 0x7470
    4dc0:	2e79                	.insn	2, 0x2e79
    4dc2:	000a                	.insn	2, 0x000a
    4dc4:	6e49                	.insn	2, 0x6e49
    4dc6:	6176                	.insn	2, 0x6176
    4dc8:	696c                	.insn	2, 0x696c
    4dca:	2064                	.insn	2, 0x2064
    4dcc:	6e69                	.insn	2, 0x6e69
    4dce:	6576                	.insn	2, 0x6576
    4dd0:	746e                	.insn	2, 0x746e
    4dd2:	2079726f          	jal	tp,9c7d8 <__global_pointer+0x988c0>
    4dd6:	746f6c73          	csrrsi	s8,0x746,30
    4dda:	0a2e                	.insn	2, 0x0a2e
    4ddc:	0000                	.insn	2, 0x
    4dde:	0000                	.insn	2, 0x
    4de0:	6441                	.insn	2, 0x6441
    4de2:	6564                	.insn	2, 0x6564
    4de4:	2064                	.insn	2, 0x2064
    4de6:	0000                	.insn	2, 0x
    4de8:	7420                	.insn	2, 0x7420
    4dea:	7473206f          	j	37d30 <__global_pointer+0x33e18>
    4dee:	6761726f          	jal	tp,1c464 <__global_pointer+0x1854c>
    4df2:	2e65                	.insn	2, 0x2e65
    4df4:	000a                	.insn	2, 0x000a
    4df6:	0000                	.insn	2, 0x
    4df8:	726f7453          	.insn	4, 0x726f7453
    4dfc:	6761                	.insn	2, 0x6761
    4dfe:	2065                	.insn	2, 0x2065
    4e00:	7369                	.insn	2, 0x7369
    4e02:	6620                	.insn	2, 0x6620
    4e04:	6c75                	.insn	2, 0x6c75
    4e06:	216c                	.insn	2, 0x216c
    4e08:	4320                	.insn	2, 0x4320
    4e0a:	6e61                	.insn	2, 0x6e61
    4e0c:	6f6e                	.insn	2, 0x6f6e
    4e0e:	2074                	.insn	2, 0x2074
    4e10:	6461                	.insn	2, 0x6461
    4e12:	2064                	.insn	2, 0x2064
    4e14:	6f6d                	.insn	2, 0x6f6d
    4e16:	6572                	.insn	2, 0x6572
    4e18:	6920                	.insn	2, 0x6920
    4e1a:	6574                	.insn	2, 0x6574
    4e1c:	736d                	.insn	2, 0x736d
    4e1e:	0a2e                	.insn	2, 0x0a2e
    4e20:	0000                	.insn	2, 0x
    4e22:	0000                	.insn	2, 0x
    4e24:	7420                	.insn	2, 0x7420
    4e26:	6e65206f          	j	5750c <__global_pointer+0x535f4>
    4e2a:	656e6967          	.insn	4, 0x656e6967
    4e2e:	6220                	.insn	2, 0x6220
    4e30:	7961                	.insn	2, 0x7961
    4e32:	0a2e                	.insn	2, 0x0a2e
    4e34:	0000                	.insn	2, 0x
    4e36:	0000                	.insn	2, 0x
    4e38:	6e45                	.insn	2, 0x6e45
    4e3a:	656e6967          	.insn	4, 0x656e6967
    4e3e:	6120                	.insn	2, 0x6120
    4e40:	726c                	.insn	2, 0x726c
    4e42:	6165                	.insn	2, 0x6165
    4e44:	7964                	.insn	2, 0x7964
    4e46:	6820                	.insn	2, 0x6820
    4e48:	7361                	.insn	2, 0x7361
    4e4a:	6620                	.insn	2, 0x6620
    4e4c:	6575                	.insn	2, 0x6575
    4e4e:	2c6c                	.insn	2, 0x2c6c
    4e50:	6e20                	.insn	2, 0x6e20
    4e52:	656e206f          	j	e74a8 <__global_pointer+0xe3590>
    4e56:	6465                	.insn	2, 0x6465
    4e58:	7420                	.insn	2, 0x7420
    4e5a:	6461206f          	j	174a0 <__global_pointer+0x13588>
    4e5e:	2064                	.insn	2, 0x2064
    4e60:	6f6d                	.insn	2, 0x6f6d
    4e62:	6572                	.insn	2, 0x6572
    4e64:	002e                	.insn	2, 0x002e
    4e66:	0000                	.insn	2, 0x
    4e68:	6620                	.insn	2, 0x6620
    4e6a:	6f72                	.insn	2, 0x6f72
    4e6c:	206d                	.insn	2, 0x206d
    4e6e:	726f7473          	csrrci	s0,mhpmevent6h,30
    4e72:	6761                	.insn	2, 0x6761
    4e74:	2065                	.insn	2, 0x2065
    4e76:	746f6c73          	csrrsi	s8,0x746,30
    4e7a:	0020                	.insn	2, 0x0020
    4e7c:	726f7453          	.insn	4, 0x726f7453
    4e80:	6761                	.insn	2, 0x6761
    4e82:	2065                	.insn	2, 0x2065
    4e84:	746f6c73          	csrrsi	s8,0x746,30
    4e88:	0020                	.insn	2, 0x0020
    4e8a:	0000                	.insn	2, 0x
    4e8c:	6e49                	.insn	2, 0x6e49
    4e8e:	6176                	.insn	2, 0x6176
    4e90:	696c                	.insn	2, 0x696c
    4e92:	2064                	.insn	2, 0x2064
    4e94:	726f7473          	csrrci	s0,mhpmevent6h,30
    4e98:	6761                	.insn	2, 0x6761
    4e9a:	2065                	.insn	2, 0x2065
    4e9c:	746f6c73          	csrrsi	s8,0x746,30
    4ea0:	0a2e                	.insn	2, 0x0a2e
    4ea2:	0000                	.insn	2, 0x
    4ea4:	6f59                	.insn	2, 0x6f59
    4ea6:	2075                	.insn	2, 0x2075
    4ea8:	6168                	.insn	2, 0x6168
    4eaa:	6576                	.insn	2, 0x6576
    4eac:	7320                	.insn	2, 0x7320
    4eae:	6f74                	.insn	2, 0x6f74
    4eb0:	6572                	.insn	2, 0x6572
    4eb2:	2064                	.insn	2, 0x2064
    4eb4:	6874                	.insn	2, 0x6874
    4eb6:	2065                	.insn	2, 0x2065
    4eb8:	6f66                	.insn	2, 0x6f66
    4eba:	6c6c                	.insn	2, 0x6c6c
    4ebc:	6e69776f          	jal	a4,9c5a2 <__global_pointer+0x9868a>
    4ec0:	74692067          	.insn	4, 0x74692067
    4ec4:	6d65                	.insn	2, 0x6d65
    4ec6:	0a203a73          	csrrc	s4,0xa2,zero
    4eca:	0000                	.insn	2, 0x
    4ecc:	6f59                	.insn	2, 0x6f59
    4ece:	2075                	.insn	2, 0x2075
    4ed0:	7261                	.insn	2, 0x7261
    4ed2:	2065                	.insn	2, 0x2065
    4ed4:	6e69                	.insn	2, 0x6e69
    4ed6:	7420                	.insn	2, 0x7420
    4ed8:	6568                	.insn	2, 0x6568
    4eda:	7320                	.insn	2, 0x7320
    4edc:	6f74                	.insn	2, 0x6f74
    4ede:	6172                	.insn	2, 0x6172
    4ee0:	72206567          	.insn	4, 0x72206567
    4ee4:	206d6f6f          	jal	t5,db0ea <__global_pointer+0xd71d2>
    4ee8:	63696877          	.insn	4, 0x63696877
    4eec:	2068                	.insn	2, 0x2068
    4eee:	6f68                	.insn	2, 0x6f68
    4ef0:	646c                	.insn	2, 0x646c
    4ef2:	6f792073          	csrs	0x6f7,s2
    4ef6:	7275                	.insn	2, 0x7275
    4ef8:	6620                	.insn	2, 0x6620
    4efa:	20646f6f          	jal	t5,4b100 <__global_pointer+0x471e8>
    4efe:	6e61                	.insn	2, 0x6e61
    4f00:	2064                	.insn	2, 0x2064
    4f02:	65696373          	csrrsi	t1,hviprio1h,18
    4f06:	746e                	.insn	2, 0x746e
    4f08:	6669                	.insn	2, 0x6669
    4f0a:	6369                	.insn	2, 0x6369
    4f0c:	7320                	.insn	2, 0x7320
    4f0e:	6d61                	.insn	2, 0x6d61
    4f10:	6c70                	.insn	2, 0x6c70
    4f12:	7365                	.insn	2, 0x7365
    4f14:	2d20                	.insn	2, 0x2d20
    4f16:	7920                	.insn	2, 0x7920
    4f18:	6320756f          	jal	a0,c54a <__global_pointer+0x8632>
    4f1c:	6e61                	.insn	2, 0x6e61
    4f1e:	7320                	.insn	2, 0x7320
    4f20:	6f74                	.insn	2, 0x6f74
    4f22:	6572                	.insn	2, 0x6572
    4f24:	7920                	.insn	2, 0x7920
    4f26:	2072756f          	jal	a0,2c92c <__global_pointer+0x28a14>
    4f2a:	6e69                	.insn	2, 0x6e69
    4f2c:	6576                	.insn	2, 0x6576
    4f2e:	746e                	.insn	2, 0x746e
    4f30:	2079726f          	jal	tp,9c936 <__global_pointer+0x98a1e>
    4f34:	6568                	.insn	2, 0x6568
    4f36:	6572                	.insn	2, 0x6572
    4f38:	002e                	.insn	2, 0x002e
    4f3a:	0000                	.insn	2, 0x
    4f3c:	6f59                	.insn	2, 0x6f59
    4f3e:	2075                	.insn	2, 0x2075
    4f40:	7261                	.insn	2, 0x7261
    4f42:	2065                	.insn	2, 0x2065
    4f44:	6e69                	.insn	2, 0x6e69
    4f46:	7420                	.insn	2, 0x7420
    4f48:	6568                	.insn	2, 0x6568
    4f4a:	7020                	.insn	2, 0x7020
    4f4c:	7265                	.insn	2, 0x7265
    4f4e:	616e6f73          	csrrsi	t5,0x616,28
    4f52:	206c                	.insn	2, 0x206c
    4f54:	6d616863          	bltu	sp,s6,5624 <__global_pointer+0x170c>
    4f58:	6562                	.insn	2, 0x6562
    4f5a:	7372                	.insn	2, 0x7372
    4f5c:	202c                	.insn	2, 0x202c
    4f5e:	6874                	.insn	2, 0x6874
    4f60:	7369                	.insn	2, 0x7369
    4f62:	6920                	.insn	2, 0x6920
    4f64:	68742073          	csrs	0x687,s0
    4f68:	2065                	.insn	2, 0x2065
    4f6a:	72617473          	csrrci	s0,mhpmevent6h,2
    4f6e:	6974                	.insn	2, 0x6974
    4f70:	676e                	.insn	2, 0x676e
    4f72:	7020                	.insn	2, 0x7020
    4f74:	746e696f          	jal	s2,eb6ba <__global_pointer+0xe77a2>
    4f78:	002e                	.insn	2, 0x002e
    4f7a:	0000                	.insn	2, 0x
    4f7c:	6f59                	.insn	2, 0x6f59
    4f7e:	2075                	.insn	2, 0x2075
    4f80:	6168                	.insn	2, 0x6168
    4f82:	6576                	.insn	2, 0x6576
    4f84:	6520                	.insn	2, 0x6520
    4f86:	746e                	.insn	2, 0x746e
    4f88:	7265                	.insn	2, 0x7265
    4f8a:	6465                	.insn	2, 0x6465
    4f8c:	7420                	.insn	2, 0x7420
    4f8e:	6568                	.insn	2, 0x6568
    4f90:	6320                	.insn	2, 0x6320
    4f92:	706b636f          	jal	t1,bb698 <__global_pointer+0xb7780>
    4f96:	7469                	.insn	2, 0x7469
    4f98:	202c                	.insn	2, 0x202c
    4f9a:	6f79                	.insn	2, 0x6f79
    4f9c:	2075                	.insn	2, 0x2075
    4f9e:	206e6163          	bltu	t3,t1,51a0 <__global_pointer+0x1288>
    4fa2:	6f6e                	.insn	2, 0x6f6e
    4fa4:	68632077          	.insn	4, 0x68632077
    4fa8:	65736f6f          	jal	t5,3bdfe <__global_pointer+0x37ee6>
    4fac:	7420                	.insn	2, 0x7420
    4fae:	6e65206f          	j	57694 <__global_pointer+0x5377c>
    4fb2:	2064                	.insn	2, 0x2064
    4fb4:	6874                	.insn	2, 0x6874
    4fb6:	2065                	.insn	2, 0x2065
    4fb8:	656d6167          	.insn	4, 0x656d6167
    4fbc:	6920                	.insn	2, 0x6920
    4fbe:	2066                	.insn	2, 0x2066
    4fc0:	6f79                	.insn	2, 0x6f79
    4fc2:	2075                	.insn	2, 0x2075
    4fc4:	746e6177          	.insn	4, 0x746e6177
    4fc8:	002e                	.insn	2, 0x002e
    4fca:	0000                	.insn	2, 0x
    4fcc:	6f59                	.insn	2, 0x6f59
    4fce:	2075                	.insn	2, 0x2075
    4fd0:	6168                	.insn	2, 0x6168
    4fd2:	6576                	.insn	2, 0x6576
    4fd4:	6520                	.insn	2, 0x6520
    4fd6:	746e                	.insn	2, 0x746e
    4fd8:	7265                	.insn	2, 0x7265
    4fda:	6465                	.insn	2, 0x6465
    4fdc:	7420                	.insn	2, 0x7420
    4fde:	6568                	.insn	2, 0x6568
    4fe0:	6320                	.insn	2, 0x6320
    4fe2:	6661                	.insn	2, 0x6661
    4fe4:	7465                	.insn	2, 0x7465
    4fe6:	7265                	.insn	2, 0x7265
    4fe8:	6169                	.insn	2, 0x6169
    4fea:	202c                	.insn	2, 0x202c
    4fec:	6c6c6f63          	bltu	s8,t1,56ca <__global_pointer+0x17b2>
    4ff0:	6365                	.insn	2, 0x6365
    4ff2:	2074                	.insn	2, 0x2074
    4ff4:	6f66                	.insn	2, 0x6f66
    4ff6:	6820646f          	jal	s0,b678 <__global_pointer+0x7760>
    4ffa:	7265                	.insn	2, 0x7265
    4ffc:	2e65                	.insn	2, 0x2e65
    4ffe:	0000                	.insn	2, 0x
    5000:	6f59                	.insn	2, 0x6f59
    5002:	2075                	.insn	2, 0x2075
    5004:	7261                	.insn	2, 0x7261
    5006:	2065                	.insn	2, 0x2065
    5008:	6e69                	.insn	2, 0x6e69
    500a:	7420                	.insn	2, 0x7420
    500c:	6568                	.insn	2, 0x6568
    500e:	6520                	.insn	2, 0x6520
    5010:	676e                	.insn	2, 0x676e
    5012:	6e69                	.insn	2, 0x6e69
    5014:	2065                	.insn	2, 0x2065
    5016:	6162                	.insn	2, 0x6162
    5018:	2c79                	.insn	2, 0x2c79
    501a:	7920                	.insn	2, 0x7920
    501c:	6d20756f          	jal	a0,c6ee <__global_pointer+0x87d6>
    5020:	7375                	.insn	2, 0x7375
    5022:	2074                	.insn	2, 0x2074
    5024:	6966                	.insn	2, 0x6966
    5026:	6c6c                	.insn	2, 0x6c6c
    5028:	7420                	.insn	2, 0x7420
    502a:	6568                	.insn	2, 0x6568
    502c:	6520                	.insn	2, 0x6520
    502e:	676e                	.insn	2, 0x676e
    5030:	6e69                	.insn	2, 0x6e69
    5032:	2065                	.insn	2, 0x2065
    5034:	68746977          	.insn	4, 0x68746977
    5038:	6620                	.insn	2, 0x6620
    503a:	6575                	.insn	2, 0x6575
    503c:	2e6c                	.insn	2, 0x2e6c
    503e:	0000                	.insn	2, 0x
    5040:	6f59                	.insn	2, 0x6f59
    5042:	2075                	.insn	2, 0x2075
    5044:	7261                	.insn	2, 0x7261
    5046:	2065                	.insn	2, 0x2065
    5048:	7461                	.insn	2, 0x7461
    504a:	7420                	.insn	2, 0x7420
    504c:	6568                	.insn	2, 0x6568
    504e:	6c20                	.insn	2, 0x6c20
    5050:	6261                	.insn	2, 0x6261
    5052:	7461726f          	jal	tp,1c798 <__global_pointer+0x18880>
    5056:	2c79726f          	jal	tp,9cb1c <__global_pointer+0x98c04>
    505a:	7920                	.insn	2, 0x7920
    505c:	6320756f          	jal	a0,c68e <__global_pointer+0x8776>
    5060:	6e61                	.insn	2, 0x6e61
    5062:	6520                	.insn	2, 0x6520
    5064:	7078                	.insn	2, 0x7078
    5066:	7265                	.insn	2, 0x7265
    5068:	6d69                	.insn	2, 0x6d69
    506a:	6e65                	.insn	2, 0x6e65
    506c:	2074                	.insn	2, 0x2074
    506e:	6568                	.insn	2, 0x6568
    5070:	6572                	.insn	2, 0x6572
    5072:	002e                	.insn	2, 0x002e
    5074:	6f59                	.insn	2, 0x6f59
    5076:	2075                	.insn	2, 0x2075
    5078:	6e65                	.insn	2, 0x6e65
    507a:	6574                	.insn	2, 0x6574
    507c:	6572                	.insn	2, 0x6572
    507e:	2064                	.insn	2, 0x2064
    5080:	6874                	.insn	2, 0x6874
    5082:	2065                	.insn	2, 0x2065
    5084:	6961                	.insn	2, 0x6961
    5086:	6c72                	.insn	2, 0x6c72
    5088:	2c6b636f          	jal	t1,bb34e <__global_pointer+0xb7436>
    508c:	6d20                	.insn	2, 0x6d20
    508e:	6b61                	.insn	2, 0x6b61
    5090:	2065                	.insn	2, 0x2065
    5092:	65727573          	csrrci	a0,hviprio2h,4
    5096:	7420                	.insn	2, 0x7420
    5098:	656b206f          	j	b76ee <__global_pointer+0xb37d6>
    509c:	7065                	.insn	2, 0x7065
    509e:	6120                	.insn	2, 0x6120
    50a0:	206e                	.insn	2, 0x206e
    50a2:	7965                	.insn	2, 0x7965
    50a4:	2065                	.insn	2, 0x2065
    50a6:	74206e6f          	jal	t3,b7e8 <__global_pointer+0x78d0>
    50aa:	6568                	.insn	2, 0x6568
    50ac:	6f20                	.insn	2, 0x6f20
    50ae:	7978                	.insn	2, 0x7978
    50b0:	206e6567          	.insn	4, 0x206e6567
    50b4:	6e656877          	.insn	4, 0x6e656877
    50b8:	6520                	.insn	2, 0x6520
    50ba:	6978                	.insn	2, 0x6978
    50bc:	6974                	.insn	2, 0x6974
    50be:	676e                	.insn	2, 0x676e
    50c0:	002e                	.insn	2, 0x002e
    50c2:	0000                	.insn	2, 0x
    50c4:	6f59                	.insn	2, 0x6f59
    50c6:	2075                	.insn	2, 0x2075
    50c8:	7261                	.insn	2, 0x7261
    50ca:	2065                	.insn	2, 0x2065
    50cc:	7461                	.insn	2, 0x7461
    50ce:	7420                	.insn	2, 0x7420
    50d0:	6568                	.insn	2, 0x6568
    50d2:	6c20                	.insn	2, 0x6c20
    50d4:	6e61                	.insn	2, 0x6e61
    50d6:	6964                	.insn	2, 0x6964
    50d8:	676e                	.insn	2, 0x676e
    50da:	7320                	.insn	2, 0x7320
    50dc:	7469                	.insn	2, 0x7469
    50de:	2c65                	.insn	2, 0x2c65
    50e0:	7920                	.insn	2, 0x7920
    50e2:	6320756f          	jal	a0,c714 <__global_pointer+0x87fc>
    50e6:	6e61                	.insn	2, 0x6e61
    50e8:	6e20                	.insn	2, 0x6e20
    50ea:	6520776f          	jal	a4,c73c <__global_pointer+0x8824>
    50ee:	7078                	.insn	2, 0x7078
    50f0:	6f6c                	.insn	2, 0x6f6c
    50f2:	6572                	.insn	2, 0x6572
    50f4:	7420                	.insn	2, 0x7420
    50f6:	6568                	.insn	2, 0x6568
    50f8:	7020                	.insn	2, 0x7020
    50fa:	616c                	.insn	2, 0x616c
    50fc:	656e                	.insn	2, 0x656e
    50fe:	2e74                	.insn	2, 0x2e74
    5100:	0000                	.insn	2, 0x
    5102:	0000                	.insn	2, 0x
    5104:	6f59                	.insn	2, 0x6f59
    5106:	2075                	.insn	2, 0x2075
    5108:	7261                	.insn	2, 0x7261
    510a:	2065                	.insn	2, 0x2065
    510c:	6e69                	.insn	2, 0x6e69
    510e:	7420                	.insn	2, 0x7420
    5110:	6568                	.insn	2, 0x6568
    5112:	4d20                	.insn	2, 0x4d20
    5114:	7261                	.insn	2, 0x7261
    5116:	6974                	.insn	2, 0x6974
    5118:	6e61                	.insn	2, 0x6e61
    511a:	7720                	.insn	2, 0x7720
    511c:	7361                	.insn	2, 0x7361
    511e:	6574                	.insn	2, 0x6574
    5120:	616c                	.insn	2, 0x616c
    5122:	646e                	.insn	2, 0x646e
    5124:	002e                	.insn	2, 0x002e
    5126:	0000                	.insn	2, 0x
    5128:	6855                	.insn	2, 0x6855
    512a:	6f20                	.insn	2, 0x6f20
    512c:	2c68                	.insn	2, 0x2c68
    512e:	6920                	.insn	2, 0x6920
    5130:	2074                	.insn	2, 0x2074
    5132:	6f74                	.insn	2, 0x6f74
    5134:	61206b6f          	jal	s6,b746 <__global_pointer+0x782e>
    5138:	6c20                	.insn	2, 0x6c20
    513a:	6f20746f          	jal	s0,c82c <__global_pointer+0x8914>
    513e:	2066                	.insn	2, 0x2066
    5140:	6e65                	.insn	2, 0x6e65
    5142:	7265                	.insn	2, 0x7265
    5144:	74207967          	.insn	4, 0x74207967
    5148:	6567206f          	j	7779e <__global_pointer+0x73886>
    514c:	2074                	.insn	2, 0x2074
    514e:	2074756f          	jal	a0,4cb54 <__global_pointer+0x48c3c>
    5152:	7420666f          	jal	a2,b894 <__global_pointer+0x797c>
    5156:	6568                	.insn	2, 0x6568
    5158:	6c20                	.insn	2, 0x6c20
    515a:	65736f6f          	jal	t5,3bfb0 <__global_pointer+0x38098>
    515e:	7320                	.insn	2, 0x7320
    5160:	2e6c696f          	jal	s2,cb446 <__global_pointer+0xc752e>
    5164:	2e2e                	.insn	2, 0x2e2e
    5166:	0000                	.insn	2, 0x
    5168:	7441                	.insn	2, 0x7441
    516a:	7420                	.insn	2, 0x7420
    516c:	6568                	.insn	2, 0x6568
    516e:	7020                	.insn	2, 0x7020
    5170:	2c646e6f          	jal	t3,4b436 <__global_pointer+0x4751e>
    5174:	7920                	.insn	2, 0x7920
    5176:	6d20756f          	jal	a0,c848 <__global_pointer+0x8930>
    517a:	7961                	.insn	2, 0x7961
    517c:	6620                	.insn	2, 0x6620
    517e:	6e69                	.insn	2, 0x6e69
    5180:	2064                	.insn	2, 0x2064
    5182:	696c                	.insn	2, 0x696c
    5184:	6566                	.insn	2, 0x6566
    5186:	002e                	.insn	2, 0x002e
    5188:	6542                	.insn	2, 0x6542
    518a:	6320                	.insn	2, 0x6320
    518c:	7261                	.insn	2, 0x7261
    518e:	6665                	.insn	2, 0x6665
    5190:	6c75                	.insn	2, 0x6c75
    5192:	2021                	.insn	2, 0x2021
    5194:	6854                	.insn	2, 0x6854
    5196:	2065                	.insn	2, 0x2065
    5198:	72616873          	csrrsi	a6,mhpmevent6h,2
    519c:	2070                	.insn	2, 0x2070
    519e:	6f72                	.insn	2, 0x6f72
    51a0:	20736b63          	bltu	t1,t2,53b6 <__global_pointer+0x149e>
    51a4:	6564                	.insn	2, 0x6564
    51a6:	6f727473          	csrrci	s0,0x6f7,4
    51aa:	6579                	.insn	2, 0x6579
    51ac:	2064                	.insn	2, 0x2064
    51ae:	20656e6f          	jal	t3,5b3b4 <__global_pointer+0x5749c>
    51b2:	6779786f          	jal	a6,9d028 <__global_pointer+0x99110>
    51b6:	6e65                	.insn	2, 0x6e65
    51b8:	7420                	.insn	2, 0x7420
    51ba:	6e61                	.insn	2, 0x6e61
    51bc:	6e61206b          	.insn	4, 0x6e61206b
    51c0:	2064                	.insn	2, 0x2064
    51c2:	6f6e                	.insn	2, 0x6f6e
    51c4:	6f792077          	.insn	4, 0x6f792077
    51c8:	2075                	.insn	2, 0x2075
    51ca:	6f6c                	.insn	2, 0x6f6c
    51cc:	68207473          	csrrci	s0,0x682,0
    51d0:	6c61                	.insn	2, 0x6c61
    51d2:	2066                	.insn	2, 0x2066
    51d4:	7920666f          	jal	a2,b966 <__global_pointer+0x7a4e>
    51d8:	2072756f          	jal	a0,2cbde <__global_pointer+0x28cc6>
    51dc:	6779786f          	jal	a6,9d052 <__global_pointer+0x9913a>
    51e0:	6e65                	.insn	2, 0x6e65
    51e2:	002e                	.insn	2, 0x002e
    51e4:	6144                	.insn	2, 0x6144
    51e6:	6b72                	.insn	2, 0x6b72
    51e8:	656e                	.insn	2, 0x656e
    51ea:	65207373          	csrrci	t1,0x652,0
    51ee:	676e                	.insn	2, 0x676e
    51f0:	6c75                	.insn	2, 0x6c75
    51f2:	2066                	.insn	2, 0x2066
    51f4:	6f79                	.insn	2, 0x6f79
    51f6:	2c75                	.insn	2, 0x2c75
    51f8:	7920                	.insn	2, 0x7920
    51fa:	6820756f          	jal	a0,c87c <__global_pointer+0x8964>
    51fe:	7661                	.insn	2, 0x7661
    5200:	2065                	.insn	2, 0x2065
    5202:	7061                	.insn	2, 0x7061
    5204:	7270                	.insn	2, 0x7270
    5206:	6863616f          	jal	sp,3b88c <__global_pointer+0x37974>
    520a:	6465                	.insn	2, 0x6465
    520c:	6120                	.insn	2, 0x6120
    520e:	6320                	.insn	2, 0x6320
    5210:	7661                	.insn	2, 0x7661
    5212:	2e65                	.insn	2, 0x2e65
    5214:	0000                	.insn	2, 0x
    5216:	0000                	.insn	2, 0x
    5218:	6f59                	.insn	2, 0x6f59
    521a:	2075                	.insn	2, 0x2075
    521c:	7261                	.insn	2, 0x7261
    521e:	2065                	.insn	2, 0x2065
    5220:	6f6e                	.insn	2, 0x6f6e
    5222:	6e692077          	.insn	4, 0x6e692077
    5226:	6120                	.insn	2, 0x6120
    5228:	6320                	.insn	2, 0x6320
    522a:	6172                	.insn	2, 0x6172
    522c:	6574                	.insn	2, 0x6574
    522e:	2072                	.insn	2, 0x2072
    5230:	4d206e6f          	jal	t3,b702 <__global_pointer+0x77ea>
    5234:	7261                	.insn	2, 0x7261
    5236:	00002e73          	csrr	t3,ustatus
    523a:	0000                	.insn	2, 0x
    523c:	2041                	.insn	2, 0x2041
    523e:	796e6163          	bltu	t3,s6,59c0 <__global_pointer+0x1aa8>
    5242:	68206e6f          	jal	t3,b8c4 <__global_pointer+0x79ac>
    5246:	7361                	.insn	2, 0x7361
    5248:	6d20                	.insn	2, 0x6d20
    524a:	6e61                	.insn	2, 0x6e61
    524c:	2079                	.insn	2, 0x2079
    524e:	72636573          	csrrsi	a0,mhpmevent6h,6
    5252:	7465                	.insn	2, 0x7465
    5254:	79202c73          	csrr	s8,0x792
    5258:	6d20756f          	jal	a0,c92a <__global_pointer+0x8a12>
    525c:	7961                	.insn	2, 0x7961
    525e:	6620                	.insn	2, 0x6620
    5260:	6e69                	.insn	2, 0x6e69
    5262:	2064                	.insn	2, 0x2064
    5264:	3f656e6f          	jal	t3,5b65a <__global_pointer+0x57742>
    5268:	0000                	.insn	2, 0x
    526a:	0000                	.insn	2, 0x
    526c:	6f59                	.insn	2, 0x6f59
    526e:	2075                	.insn	2, 0x2075
    5270:	6e6e6163          	bltu	t3,t1,5952 <__global_pointer+0x1a3a>
    5274:	7020746f          	jal	s0,c976 <__global_pointer+0x8a5e>
    5278:	7361                	.insn	2, 0x7361
    527a:	20612073          	csrs	0x206,sp
    527e:	6f6d                	.insn	2, 0x6f6d
    5280:	6e75                	.insn	2, 0x6e75
    5282:	6174                	.insn	2, 0x6174
    5284:	6e69                	.insn	2, 0x6e69
    5286:	202c                	.insn	2, 0x202c
    5288:	6f79                	.insn	2, 0x6f79
    528a:	2075                	.insn	2, 0x2075
    528c:	756d                	.insn	2, 0x756d
    528e:	67207473          	csrrci	s0,0x672,0
    5292:	7261206f          	j	179b8 <__global_pointer+0x13aa0>
    5296:	646e756f          	jal	a0,ec8dc <__global_pointer+0xe89c4>
    529a:	6920                	.insn	2, 0x6920
    529c:	2e74                	.insn	2, 0x2e74
    529e:	0000                	.insn	2, 0x
    52a0:	74616857          	.insn	4, 0x74616857
    52a4:	6120                	.insn	2, 0x6120
    52a6:	6572                	.insn	2, 0x6572
    52a8:	7920                	.insn	2, 0x7920
    52aa:	6520756f          	jal	a0,c8fc <__global_pointer+0x89e4>
    52ae:	6576                	.insn	2, 0x6576
    52b0:	206e                	.insn	2, 0x206e
    52b2:	6f64                	.insn	2, 0x6f64
    52b4:	6e69                	.insn	2, 0x6e69
    52b6:	6e6f2067          	.insn	4, 0x6e6f2067
    52ba:	6120                	.insn	2, 0x6120
    52bc:	206e                	.insn	2, 0x206e
    52be:	6d65                	.insn	2, 0x6d65
    52c0:	7470                	.insn	2, 0x7470
    52c2:	2079                	.insn	2, 0x2079
    52c4:	6974                	.insn	2, 0x6974
    52c6:	656c                	.insn	2, 0x656c
    52c8:	00003f3f 58455b0a 	.insn	8, 0x58455b0a00003f3f
    52d0:	54504543          	.insn	4, 0x54504543
    52d4:	4f49                	.insn	2, 0x4f49
    52d6:	5d4e                	.insn	2, 0x5d4e
    52d8:	4920                	.insn	2, 0x4920
    52da:	736e                	.insn	2, 0x736e
    52dc:	7274                	.insn	2, 0x7274
    52de:	6375                	.insn	2, 0x6375
    52e0:	6974                	.insn	2, 0x6974
    52e2:	61206e6f          	jal	t3,b8f4 <__global_pointer+0x79dc>
    52e6:	6464                	.insn	2, 0x6464
    52e8:	6572                	.insn	2, 0x6572
    52ea:	6d207373          	csrrci	t1,0x6d2,0
    52ee:	7369                	.insn	2, 0x7369
    52f0:	6c61                	.insn	2, 0x6c61
    52f2:	6769                	.insn	2, 0x6769
    52f4:	6d6e                	.insn	2, 0x6d6e
    52f6:	6e65                	.insn	2, 0x6e65
    52f8:	2e74                	.insn	2, 0x2e74
    52fa:	0020                	.insn	2, 0x0020
    52fc:	5b0a                	.insn	2, 0x5b0a
    52fe:	5845                	.insn	2, 0x5845
    5300:	54504543          	.insn	4, 0x54504543
    5304:	4f49                	.insn	2, 0x4f49
    5306:	5d4e                	.insn	2, 0x5d4e
    5308:	4920                	.insn	2, 0x4920
    530a:	6c6c                	.insn	2, 0x6c6c
    530c:	6765                	.insn	2, 0x6765
    530e:	6c61                	.insn	2, 0x6c61
    5310:	6920                	.insn	2, 0x6920
    5312:	736e                	.insn	2, 0x736e
    5314:	7274                	.insn	2, 0x7274
    5316:	6375                	.insn	2, 0x6375
    5318:	6974                	.insn	2, 0x6974
    531a:	202e6e6f          	jal	t3,eb51c <__global_pointer+0xe7604>
    531e:	0000                	.insn	2, 0x
    5320:	5b0a                	.insn	2, 0x5b0a
    5322:	5845                	.insn	2, 0x5845
    5324:	54504543          	.insn	4, 0x54504543
    5328:	4f49                	.insn	2, 0x4f49
    532a:	5d4e                	.insn	2, 0x5d4e
    532c:	5520                	.insn	2, 0x5520
    532e:	6b6e                	.insn	2, 0x6b6e
    5330:	6f6e                	.insn	2, 0x6f6e
    5332:	65206e77          	.insn	4, 0x65206e77
    5336:	7272                	.insn	2, 0x7272
    5338:	202e726f          	jal	tp,ec53a <__global_pointer+0xe8622>
    533c:	0000                	.insn	2, 0x
    533e:	0000                	.insn	2, 0x
    5340:	7845                	.insn	2, 0x7845
    5342:	74706563          	bltu	zero,t2,5a8c <__global_pointer+0x1b74>
    5346:	6f69                	.insn	2, 0x6f69
    5348:	206e                	.insn	2, 0x206e
    534a:	6441                	.insn	2, 0x6441
    534c:	7264                	.insn	2, 0x7264
    534e:	7365                	.insn	2, 0x7365
    5350:	00203a73          	csrrc	s4,frm,zero

Disassembly of section .comment:

00000000 <.comment>:
   0:	3a434347          	.insn	4, 0x3a434347
   4:	2820                	.insn	2, 0x2820
   6:	39386367          	.insn	4, 0x39386367
   a:	6431                	.insn	2, 0x6431
   c:	6438                	.insn	2, 0x6438
   e:	65333263          	.insn	4, 0x65333263
  12:	2029                	.insn	2, 0x2029
  14:	3331                	.insn	2, 0x3331
  16:	322e                	.insn	2, 0x322e
  18:	302e                	.insn	2, 0x302e
	...

Disassembly of section .riscv.attributes:

00000000 <.riscv.attributes>:
   0:	3641                	.insn	2, 0x3641
   2:	0000                	.insn	2, 0x
   4:	7200                	.insn	2, 0x7200
   6:	7369                	.insn	2, 0x7369
   8:	01007663          	bgeu	zero,a6,14 <_isr_routine+0xc>
   c:	002c                	.insn	2, 0x002c
   e:	0000                	.insn	2, 0x
  10:	1004                	.insn	2, 0x1004
  12:	7205                	.insn	2, 0x7205
  14:	3376                	.insn	2, 0x3376
  16:	6932                	.insn	2, 0x6932
  18:	7032                	.insn	2, 0x7032
  1a:	5f31                	.insn	2, 0x5f31
  1c:	326d                	.insn	2, 0x326d
  1e:	3070                	.insn	2, 0x3070
  20:	7a5f 6369 7273      	.insn	6, 0x727363697a5f
  26:	7032                	.insn	2, 0x7032
  28:	5f30                	.insn	2, 0x5f30
  2a:	6d7a                	.insn	2, 0x6d7a
  2c:	756d                	.insn	2, 0x756d
  2e:	316c                	.insn	2, 0x316c
  30:	3070                	.insn	2, 0x3070
  32:	0800                	.insn	2, 0x0800
  34:	0a01                	.insn	2, 0x0a01
  36:	Address 0x36 is out of bounds.

