
main.elf:     file format elf32-littleriscv


Disassembly of section .text:

00000000 <_isr_handler>:
       0:	0080006f          	j	8 <_isr_routine>
       4:	1440006f          	j	148 <_start>

00000008 <_isr_routine>:
       8:	f8010113          	addi	sp,sp,-128
       c:	00112023          	sw	ra,0(sp)
      10:	00312423          	sw	gp,8(sp)
      14:	00412623          	sw	tp,12(sp)
      18:	00512823          	sw	t0,16(sp)
      1c:	00612a23          	sw	t1,20(sp)
      20:	00712c23          	sw	t2,24(sp)
      24:	00812e23          	sw	s0,28(sp)
      28:	02912023          	sw	s1,32(sp)
      2c:	02a12223          	sw	a0,36(sp)
      30:	02b12423          	sw	a1,40(sp)
      34:	02c12623          	sw	a2,44(sp)
      38:	02d12823          	sw	a3,48(sp)
      3c:	02e12a23          	sw	a4,52(sp)
      40:	02f12c23          	sw	a5,56(sp)
      44:	03012e23          	sw	a6,60(sp)
      48:	05112023          	sw	a7,64(sp)
      4c:	05212223          	sw	s2,68(sp)
      50:	05312423          	sw	s3,72(sp)
      54:	05412623          	sw	s4,76(sp)
      58:	05512823          	sw	s5,80(sp)
      5c:	05612a23          	sw	s6,84(sp)
      60:	05712c23          	sw	s7,88(sp)
      64:	05812e23          	sw	s8,92(sp)
      68:	07912023          	sw	s9,96(sp)
      6c:	07a12223          	sw	s10,100(sp)
      70:	07b12423          	sw	s11,104(sp)
      74:	07c12623          	sw	t3,108(sp)
      78:	07d12823          	sw	t4,112(sp)
      7c:	07e12a23          	sw	t5,116(sp)
      80:	07f12c23          	sw	t6,120(sp)
      84:	342022f3          	csrr	t0,mcause
      88:	80000337          	lui	t1,0x80000
      8c:	02536463          	bltu	t1,t0,b4 <external_irq>
      90:	00028833          	add	a6,t0,zero
      94:	00b00313          	li	t1,11
      98:	00628463          	beq	t0,t1,a0 <skip_init_args>
      9c:	34102573          	csrr	a0,mepc

000000a0 <skip_init_args>:
      a0:	0b9040ef          	jal	4958 <handle_exception>
      a4:	341022f3          	csrr	t0,mepc
      a8:	00428293          	addi	t0,t0,4
      ac:	34129073          	csrw	mepc,t0
      b0:	0180006f          	j	c8 <restore>

000000b4 <external_irq>:
      b4:	800002b7          	lui	t0,0x80000
      b8:	fff28293          	addi	t0,t0,-1 # 7fffffff <_stack_end+0x7fef9ba7>
      bc:	34202373          	csrr	t1,mcause
      c0:	0062f533          	and	a0,t0,t1
      c4:	145030ef          	jal	3a08 <handle_interrupt>

000000c8 <restore>:
      c8:	00012083          	lw	ra,0(sp)
      cc:	00812183          	lw	gp,8(sp)
      d0:	00c12203          	lw	tp,12(sp)
      d4:	01012283          	lw	t0,16(sp)
      d8:	01412303          	lw	t1,20(sp)
      dc:	01812383          	lw	t2,24(sp)
      e0:	01c12403          	lw	s0,28(sp)
      e4:	02012483          	lw	s1,32(sp)
      e8:	02412503          	lw	a0,36(sp)
      ec:	02812583          	lw	a1,40(sp)
      f0:	02c12603          	lw	a2,44(sp)
      f4:	03012683          	lw	a3,48(sp)
      f8:	03412703          	lw	a4,52(sp)
      fc:	03812783          	lw	a5,56(sp)
     100:	03c12803          	lw	a6,60(sp)
     104:	04012883          	lw	a7,64(sp)
     108:	04412903          	lw	s2,68(sp)
     10c:	04812983          	lw	s3,72(sp)
     110:	04c12a03          	lw	s4,76(sp)
     114:	05012a83          	lw	s5,80(sp)
     118:	05412b03          	lw	s6,84(sp)
     11c:	05812b83          	lw	s7,88(sp)
     120:	05c12c03          	lw	s8,92(sp)
     124:	06012c83          	lw	s9,96(sp)
     128:	06412d03          	lw	s10,100(sp)
     12c:	06812d83          	lw	s11,104(sp)
     130:	06c12e03          	lw	t3,108(sp)
     134:	07012e83          	lw	t4,112(sp)
     138:	07412f03          	lw	t5,116(sp)
     13c:	07812f83          	lw	t6,120(sp)
     140:	08010113          	addi	sp,sp,128
     144:	30200073          	mret

00000148 <_start>:
     148:	00106117          	auipc	sp,0x106
     14c:	31010113          	addi	sp,sp,784 # 106458 <_stack_end>
     150:	00005197          	auipc	gp,0x5
     154:	43018193          	addi	gp,gp,1072 # 5580 <__global_pointer>
     158:	00005517          	auipc	a0,0x5
     15c:	ac850513          	addi	a0,a0,-1336 # 4c20 <welcome_msg>
     160:	00400893          	li	a7,4
     164:	00000073          	ecall
     168:	104040ef          	jal	426c <main>

0000016c <loop>:
     16c:	0000006f          	j	16c <loop>

00000170 <enable_interrupt>:
     170:	3001e073          	csrsi	mstatus,3
     174:	30486073          	csrsi	mie,16
     178:	3048e073          	csrsi	mie,17
     17c:	30496073          	csrsi	mie,18
     180:	00008067          	ret

00000184 <int_to_str>:
     184:	30050063          	beqz	a0,484 <int_to_str+0x300>
     188:	ff010113          	addi	sp,sp,-16
     18c:	28054a63          	bltz	a0,420 <int_to_str+0x29c>
     190:	66666737          	lui	a4,0x66666
     194:	66770713          	addi	a4,a4,1639 # 66666667 <_stack_end+0x6656020f>
     198:	02e51733          	mulh	a4,a0,a4
     19c:	41f55793          	srai	a5,a0,0x1f
     1a0:	40275713          	srai	a4,a4,0x2
     1a4:	40f70733          	sub	a4,a4,a5
     1a8:	00271793          	slli	a5,a4,0x2
     1ac:	00e787b3          	add	a5,a5,a4
     1b0:	00179793          	slli	a5,a5,0x1
     1b4:	40f50533          	sub	a0,a0,a5
     1b8:	03050513          	addi	a0,a0,48
     1bc:	0ff57513          	zext.b	a0,a0
     1c0:	00a10223          	sb	a0,4(sp)
     1c4:	32070463          	beqz	a4,4ec <int_to_str+0x368>
     1c8:	ccccd7b7          	lui	a5,0xccccd
     1cc:	ccd78793          	addi	a5,a5,-819 # cccccccd <_stack_end+0xccbc6875>
     1d0:	02f737b3          	mulhu	a5,a4,a5
     1d4:	00000513          	li	a0,0
     1d8:	0037d793          	srli	a5,a5,0x3
     1dc:	00279693          	slli	a3,a5,0x2
     1e0:	00f686b3          	add	a3,a3,a5
     1e4:	00169693          	slli	a3,a3,0x1
     1e8:	40d70733          	sub	a4,a4,a3
     1ec:	03070713          	addi	a4,a4,48
     1f0:	0ff77713          	zext.b	a4,a4
     1f4:	00e102a3          	sb	a4,5(sp)
     1f8:	30078e63          	beqz	a5,514 <int_to_str+0x390>
     1fc:	ccccd737          	lui	a4,0xccccd
     200:	ccd70713          	addi	a4,a4,-819 # cccccccd <_stack_end+0xccbc6875>
     204:	02e7b6b3          	mulhu	a3,a5,a4
     208:	0036d693          	srli	a3,a3,0x3
     20c:	00269613          	slli	a2,a3,0x2
     210:	00d60633          	add	a2,a2,a3
     214:	00161613          	slli	a2,a2,0x1
     218:	40c787b3          	sub	a5,a5,a2
     21c:	03078793          	addi	a5,a5,48
     220:	0ff7f793          	zext.b	a5,a5
     224:	00f10323          	sb	a5,6(sp)
     228:	26068663          	beqz	a3,494 <int_to_str+0x310>
     22c:	02e6b633          	mulhu	a2,a3,a4
     230:	00365613          	srli	a2,a2,0x3
     234:	00261793          	slli	a5,a2,0x2
     238:	00c787b3          	add	a5,a5,a2
     23c:	00179793          	slli	a5,a5,0x1
     240:	40f686b3          	sub	a3,a3,a5
     244:	03068693          	addi	a3,a3,48
     248:	0ff6f793          	zext.b	a5,a3
     24c:	00f103a3          	sb	a5,7(sp)
     250:	26060063          	beqz	a2,4b0 <int_to_str+0x32c>
     254:	02e636b3          	mulhu	a3,a2,a4
     258:	0036d693          	srli	a3,a3,0x3
     25c:	00269793          	slli	a5,a3,0x2
     260:	00d787b3          	add	a5,a5,a3
     264:	00179793          	slli	a5,a5,0x1
     268:	40f60633          	sub	a2,a2,a5
     26c:	03060613          	addi	a2,a2,48
     270:	0ff67793          	zext.b	a5,a2
     274:	00f10423          	sb	a5,8(sp)
     278:	26068063          	beqz	a3,4d8 <int_to_str+0x354>
     27c:	02e6b633          	mulhu	a2,a3,a4
     280:	00365613          	srli	a2,a2,0x3
     284:	00261793          	slli	a5,a2,0x2
     288:	00c787b3          	add	a5,a5,a2
     28c:	00179793          	slli	a5,a5,0x1
     290:	40f686b3          	sub	a3,a3,a5
     294:	03068693          	addi	a3,a3,48
     298:	0ff6f793          	zext.b	a5,a3
     29c:	00f104a3          	sb	a5,9(sp)
     2a0:	26060063          	beqz	a2,500 <int_to_str+0x37c>
     2a4:	02e636b3          	mulhu	a3,a2,a4
     2a8:	0036d693          	srli	a3,a3,0x3
     2ac:	00269793          	slli	a5,a3,0x2
     2b0:	00d787b3          	add	a5,a5,a3
     2b4:	00179793          	slli	a5,a5,0x1
     2b8:	40f60633          	sub	a2,a2,a5
     2bc:	03060613          	addi	a2,a2,48
     2c0:	0ff67793          	zext.b	a5,a2
     2c4:	00f10523          	sb	a5,10(sp)
     2c8:	26068463          	beqz	a3,530 <int_to_str+0x3ac>
     2cc:	02e6b633          	mulhu	a2,a3,a4
     2d0:	00365613          	srli	a2,a2,0x3
     2d4:	00261793          	slli	a5,a2,0x2
     2d8:	00c787b3          	add	a5,a5,a2
     2dc:	00179793          	slli	a5,a5,0x1
     2e0:	40f686b3          	sub	a3,a3,a5
     2e4:	03068693          	addi	a3,a3,48
     2e8:	0ff6f793          	zext.b	a5,a3
     2ec:	00f105a3          	sb	a5,11(sp)
     2f0:	26060663          	beqz	a2,55c <int_to_str+0x3d8>
     2f4:	02e63733          	mulhu	a4,a2,a4
     2f8:	00375713          	srli	a4,a4,0x3
     2fc:	00271793          	slli	a5,a4,0x2
     300:	00e787b3          	add	a5,a5,a4
     304:	00179793          	slli	a5,a5,0x1
     308:	40f60633          	sub	a2,a2,a5
     30c:	03060613          	addi	a2,a2,48
     310:	0ff67793          	zext.b	a5,a2
     314:	00f10623          	sb	a5,12(sp)
     318:	26070063          	beqz	a4,578 <int_to_str+0x3f4>
     31c:	03070713          	addi	a4,a4,48
     320:	0ff77793          	zext.b	a5,a4
     324:	00f106a3          	sb	a5,13(sp)
     328:	00a00693          	li	a3,10
     32c:	16050863          	beqz	a0,49c <int_to_str+0x318>
     330:	00a00793          	li	a5,10
     334:	00900713          	li	a4,9
     338:	002787b3          	add	a5,a5,sp
     33c:	02d00693          	li	a3,45
     340:	00d78223          	sb	a3,4(a5)
     344:	002707b3          	add	a5,a4,sp
     348:	0057c603          	lbu	a2,5(a5)
     34c:	0047c783          	lbu	a5,4(a5)
     350:	00270693          	addi	a3,a4,2
     354:	00c58023          	sb	a2,0(a1)
     358:	00f580a3          	sb	a5,1(a1)
     35c:	1c070263          	beqz	a4,520 <int_to_str+0x39c>
     360:	00268733          	add	a4,a3,sp
     364:	00174703          	lbu	a4,1(a4)
     368:	ffd68793          	addi	a5,a3,-3
     36c:	00e58123          	sb	a4,2(a1)
     370:	14078a63          	beqz	a5,4c4 <int_to_str+0x340>
     374:	00268733          	add	a4,a3,sp
     378:	00074703          	lbu	a4,0(a4)
     37c:	ffc68793          	addi	a5,a3,-4
     380:	00e581a3          	sb	a4,3(a1)
     384:	16078a63          	beqz	a5,4f8 <int_to_str+0x374>
     388:	00268733          	add	a4,a3,sp
     38c:	fff74703          	lbu	a4,-1(a4)
     390:	ffb68793          	addi	a5,a3,-5
     394:	00e58223          	sb	a4,4(a1)
     398:	18078863          	beqz	a5,528 <int_to_str+0x3a4>
     39c:	00268733          	add	a4,a3,sp
     3a0:	ffe74703          	lbu	a4,-2(a4)
     3a4:	ffa68793          	addi	a5,a3,-6
     3a8:	00e582a3          	sb	a4,5(a1)
     3ac:	18078c63          	beqz	a5,544 <int_to_str+0x3c0>
     3b0:	00268733          	add	a4,a3,sp
     3b4:	ffd74703          	lbu	a4,-3(a4)
     3b8:	ff968793          	addi	a5,a3,-7
     3bc:	00e58323          	sb	a4,6(a1)
     3c0:	18078a63          	beqz	a5,554 <int_to_str+0x3d0>
     3c4:	00268733          	add	a4,a3,sp
     3c8:	ffc74703          	lbu	a4,-4(a4)
     3cc:	ff868793          	addi	a5,a3,-8
     3d0:	00e583a3          	sb	a4,7(a1)
     3d4:	18078e63          	beqz	a5,570 <int_to_str+0x3ec>
     3d8:	00268733          	add	a4,a3,sp
     3dc:	ffb74703          	lbu	a4,-5(a4)
     3e0:	ff768793          	addi	a5,a3,-9
     3e4:	00e58423          	sb	a4,8(a1)
     3e8:	1a078263          	beqz	a5,58c <int_to_str+0x408>
     3ec:	00068793          	mv	a5,a3
     3f0:	002787b3          	add	a5,a5,sp
     3f4:	ffa7c783          	lbu	a5,-6(a5)
     3f8:	ff668693          	addi	a3,a3,-10
     3fc:	00f584a3          	sb	a5,9(a1)
     400:	18068a63          	beqz	a3,594 <int_to_str+0x410>
     404:	00414703          	lbu	a4,4(sp)
     408:	00b00793          	li	a5,11
     40c:	00e58523          	sb	a4,10(a1)
     410:	00f587b3          	add	a5,a1,a5
     414:	00078023          	sb	zero,0(a5)
     418:	01010113          	addi	sp,sp,16
     41c:	00008067          	ret
     420:	ccccd7b7          	lui	a5,0xccccd
     424:	40a00533          	neg	a0,a0
     428:	ccd78793          	addi	a5,a5,-819 # cccccccd <_stack_end+0xccbc6875>
     42c:	02f53733          	mulhu	a4,a0,a5
     430:	00375713          	srli	a4,a4,0x3
     434:	00271693          	slli	a3,a4,0x2
     438:	00e686b3          	add	a3,a3,a4
     43c:	00169693          	slli	a3,a3,0x1
     440:	40d50533          	sub	a0,a0,a3
     444:	03050513          	addi	a0,a0,48
     448:	00a10223          	sb	a0,4(sp)
     44c:	10070063          	beqz	a4,54c <int_to_str+0x3c8>
     450:	02f737b3          	mulhu	a5,a4,a5
     454:	00100513          	li	a0,1
     458:	0037d793          	srli	a5,a5,0x3
     45c:	00279693          	slli	a3,a5,0x2
     460:	00f686b3          	add	a3,a3,a5
     464:	00169693          	slli	a3,a3,0x1
     468:	40d70733          	sub	a4,a4,a3
     46c:	03070713          	addi	a4,a4,48
     470:	00e102a3          	sb	a4,5(sp)
     474:	d80794e3          	bnez	a5,1fc <int_to_str+0x78>
     478:	00050713          	mv	a4,a0
     47c:	00200793          	li	a5,2
     480:	eb9ff06f          	j	338 <int_to_str+0x1b4>
     484:	03000793          	li	a5,48
     488:	000580a3          	sb	zero,1(a1)
     48c:	00f58023          	sb	a5,0(a1)
     490:	00008067          	ret
     494:	02051c63          	bnez	a0,4cc <int_to_str+0x348>
     498:	00300693          	li	a3,3
     49c:	00268733          	add	a4,a3,sp
     4a0:	00274703          	lbu	a4,2(a4)
     4a4:	00f58023          	sb	a5,0(a1)
     4a8:	00e580a3          	sb	a4,1(a1)
     4ac:	eb5ff06f          	j	360 <int_to_str+0x1dc>
     4b0:	00400693          	li	a3,4
     4b4:	fe0504e3          	beqz	a0,49c <int_to_str+0x318>
     4b8:	00400793          	li	a5,4
     4bc:	00300713          	li	a4,3
     4c0:	e79ff06f          	j	338 <int_to_str+0x1b4>
     4c4:	00300793          	li	a5,3
     4c8:	f49ff06f          	j	410 <int_to_str+0x28c>
     4cc:	00300793          	li	a5,3
     4d0:	00200713          	li	a4,2
     4d4:	e65ff06f          	j	338 <int_to_str+0x1b4>
     4d8:	00500693          	li	a3,5
     4dc:	fc0500e3          	beqz	a0,49c <int_to_str+0x318>
     4e0:	00500793          	li	a5,5
     4e4:	00400713          	li	a4,4
     4e8:	e51ff06f          	j	338 <int_to_str+0x1b4>
     4ec:	00a58023          	sb	a0,0(a1)
     4f0:	00100793          	li	a5,1
     4f4:	f1dff06f          	j	410 <int_to_str+0x28c>
     4f8:	00400793          	li	a5,4
     4fc:	f15ff06f          	j	410 <int_to_str+0x28c>
     500:	00600693          	li	a3,6
     504:	f8050ce3          	beqz	a0,49c <int_to_str+0x318>
     508:	00600793          	li	a5,6
     50c:	00500713          	li	a4,5
     510:	e29ff06f          	j	338 <int_to_str+0x1b4>
     514:	00414783          	lbu	a5,4(sp)
     518:	00e58023          	sb	a4,0(a1)
     51c:	00f580a3          	sb	a5,1(a1)
     520:	00200793          	li	a5,2
     524:	eedff06f          	j	410 <int_to_str+0x28c>
     528:	00500793          	li	a5,5
     52c:	ee5ff06f          	j	410 <int_to_str+0x28c>
     530:	00700693          	li	a3,7
     534:	f60504e3          	beqz	a0,49c <int_to_str+0x318>
     538:	00700793          	li	a5,7
     53c:	00600713          	li	a4,6
     540:	df9ff06f          	j	338 <int_to_str+0x1b4>
     544:	00600793          	li	a5,6
     548:	ec9ff06f          	j	410 <int_to_str+0x28c>
     54c:	00100793          	li	a5,1
     550:	de9ff06f          	j	338 <int_to_str+0x1b4>
     554:	00700793          	li	a5,7
     558:	eb9ff06f          	j	410 <int_to_str+0x28c>
     55c:	00800693          	li	a3,8
     560:	f2050ee3          	beqz	a0,49c <int_to_str+0x318>
     564:	00800793          	li	a5,8
     568:	00700713          	li	a4,7
     56c:	dcdff06f          	j	338 <int_to_str+0x1b4>
     570:	00800793          	li	a5,8
     574:	e9dff06f          	j	410 <int_to_str+0x28c>
     578:	00900693          	li	a3,9
     57c:	f20500e3          	beqz	a0,49c <int_to_str+0x318>
     580:	00900793          	li	a5,9
     584:	00800713          	li	a4,8
     588:	db1ff06f          	j	338 <int_to_str+0x1b4>
     58c:	00900793          	li	a5,9
     590:	e81ff06f          	j	410 <int_to_str+0x28c>
     594:	00a00793          	li	a5,10
     598:	e79ff06f          	j	410 <int_to_str+0x28c>

0000059c <append_str>:
     59c:	0080006f          	j	5a4 <append_str+0x8>
     5a0:	00150513          	addi	a0,a0,1
     5a4:	00054783          	lbu	a5,0(a0)
     5a8:	fe079ce3          	bnez	a5,5a0 <append_str+0x4>
     5ac:	0005c783          	lbu	a5,0(a1)
     5b0:	00078c63          	beqz	a5,5c8 <append_str+0x2c>
     5b4:	00f50023          	sb	a5,0(a0)
     5b8:	0015c783          	lbu	a5,1(a1)
     5bc:	00158593          	addi	a1,a1,1
     5c0:	00150513          	addi	a0,a0,1
     5c4:	fe0798e3          	bnez	a5,5b4 <append_str+0x18>
     5c8:	00050023          	sb	zero,0(a0)
     5cc:	00008067          	ret

000005d0 <str_length>:
     5d0:	00054783          	lbu	a5,0(a0)
     5d4:	02078263          	beqz	a5,5f8 <str_length+0x28>
     5d8:	ff010113          	addi	sp,sp,-16
     5dc:	00150513          	addi	a0,a0,1
     5e0:	00112623          	sw	ra,12(sp)
     5e4:	5d8040ef          	jal	4bbc <strlen>
     5e8:	00c12083          	lw	ra,12(sp)
     5ec:	00150513          	addi	a0,a0,1
     5f0:	01010113          	addi	sp,sp,16
     5f4:	00008067          	ret
     5f8:	00000513          	li	a0,0
     5fc:	00008067          	ret

00000600 <drop_stats>:
     600:	0245a783          	lw	a5,36(a1)
     604:	ff010113          	addi	sp,sp,-16
     608:	00112623          	sw	ra,12(sp)
     60c:	00100713          	li	a4,1
     610:	08e78063          	beq	a5,a4,690 <drop_stats+0x90>
     614:	02078c63          	beqz	a5,64c <drop_stats+0x4c>
     618:	00c52683          	lw	a3,12(a0)
     61c:	02452783          	lw	a5,36(a0)
     620:	00852703          	lw	a4,8(a0)
     624:	fff78793          	addi	a5,a5,-1
     628:	fff70713          	addi	a4,a4,-1
     62c:	02f52223          	sw	a5,36(a0)
     630:	00e52423          	sw	a4,8(a0)
     634:	04d05663          	blez	a3,680 <drop_stats+0x80>
     638:	02f05c63          	blez	a5,670 <drop_stats+0x70>
     63c:	06e05263          	blez	a4,6a0 <drop_stats+0xa0>
     640:	00c12083          	lw	ra,12(sp)
     644:	01010113          	addi	sp,sp,16
     648:	00008067          	ret
     64c:	02452783          	lw	a5,36(a0)
     650:	00852703          	lw	a4,8(a0)
     654:	06300693          	li	a3,99
     658:	fff78793          	addi	a5,a5,-1
     65c:	fff70713          	addi	a4,a4,-1
     660:	02f52223          	sw	a5,36(a0)
     664:	00e52423          	sw	a4,8(a0)
     668:	00d52623          	sw	a3,12(a0)
     66c:	fcf048e3          	bgtz	a5,63c <drop_stats+0x3c>
     670:	00005537          	lui	a0,0x5
     674:	f3c50513          	addi	a0,a0,-196 # 4f3c <CSWTCH.15+0xd0>
     678:	188040ef          	jal	4800 <print>
     67c:	0000006f          	j	67c <drop_stats+0x7c>
     680:	00005537          	lui	a0,0x5
     684:	f1450513          	addi	a0,a0,-236 # 4f14 <CSWTCH.15+0xa8>
     688:	178040ef          	jal	4800 <print>
     68c:	0000006f          	j	68c <drop_stats+0x8c>
     690:	00c52683          	lw	a3,12(a0)
     694:	fff68693          	addi	a3,a3,-1
     698:	00d52623          	sw	a3,12(a0)
     69c:	f81ff06f          	j	61c <drop_stats+0x1c>
     6a0:	00005537          	lui	a0,0x5
     6a4:	f6450513          	addi	a0,a0,-156 # 4f64 <CSWTCH.15+0xf8>
     6a8:	158040ef          	jal	4800 <print>
     6ac:	0000006f          	j	6ac <drop_stats+0xac>

000006b0 <print_hold>:
     6b0:	ff010113          	addi	sp,sp,-16
     6b4:	00112623          	sw	ra,12(sp)
     6b8:	148040ef          	jal	4800 <print>
     6bc:	00400693          	li	a3,4
     6c0:	00005737          	lui	a4,0x5
     6c4:	da072783          	lw	a5,-608(a4) # 4da0 <timer_event>
     6c8:	fe078ee3          	beqz	a5,6c4 <print_hold+0x14>
     6cc:	da072023          	sw	zero,-608(a4)
     6d0:	fff68693          	addi	a3,a3,-1
     6d4:	fe0698e3          	bnez	a3,6c4 <print_hold+0x14>
     6d8:	00c12083          	lw	ra,12(sp)
     6dc:	01010113          	addi	sp,sp,16
     6e0:	00008067          	ret

000006e4 <update_display>:
     6e4:	ff010113          	addi	sp,sp,-16
     6e8:	000057b7          	lui	a5,0x5
     6ec:	00812423          	sw	s0,8(sp)
     6f0:	d947a403          	lw	s0,-620(a5) # 4d94 <current_display>
     6f4:	00112623          	sw	ra,12(sp)
     6f8:	00912223          	sw	s1,4(sp)
     6fc:	00050793          	mv	a5,a0
     700:	02040463          	beqz	s0,728 <update_display+0x44>
     704:	00100493          	li	s1,1
     708:	0a940063          	beq	s0,s1,7a8 <update_display+0xc4>
     70c:	00200713          	li	a4,2
     710:	0ee40463          	beq	s0,a4,7f8 <update_display+0x114>
     714:	00c12083          	lw	ra,12(sp)
     718:	00812403          	lw	s0,8(sp)
     71c:	00412483          	lw	s1,4(sp)
     720:	01010113          	addi	sp,sp,16
     724:	00008067          	ret
     728:	0087a483          	lw	s1,8(a5)
     72c:	66666437          	lui	s0,0x66666
     730:	66740413          	addi	s0,s0,1639 # 66666667 <_stack_end+0x6656020f>
     734:	02849433          	mulh	s0,s1,s0
     738:	00a00593          	li	a1,10
     73c:	00500513          	li	a0,5
     740:	1e0030ef          	jal	3920 <set_displays>
     744:	00b00593          	li	a1,11
     748:	00400513          	li	a0,4
     74c:	1d4030ef          	jal	3920 <set_displays>
     750:	00b00593          	li	a1,11
     754:	00300513          	li	a0,3
     758:	1c8030ef          	jal	3920 <set_displays>
     75c:	00200513          	li	a0,2
     760:	00c00593          	li	a1,12
     764:	1bc030ef          	jal	3920 <set_displays>
     768:	41f4d793          	srai	a5,s1,0x1f
     76c:	00100513          	li	a0,1
     770:	40245413          	srai	s0,s0,0x2
     774:	40f40433          	sub	s0,s0,a5
     778:	00040593          	mv	a1,s0
     77c:	1a4030ef          	jal	3920 <set_displays>
     780:	00241593          	slli	a1,s0,0x2
     784:	008585b3          	add	a1,a1,s0
     788:	00159593          	slli	a1,a1,0x1
     78c:	40b485b3          	sub	a1,s1,a1
     790:	00000513          	li	a0,0
     794:	00812403          	lw	s0,8(sp)
     798:	00c12083          	lw	ra,12(sp)
     79c:	00412483          	lw	s1,4(sp)
     7a0:	01010113          	addi	sp,sp,16
     7a4:	17c0306f          	j	3920 <set_displays>
     7a8:	00d00593          	li	a1,13
     7ac:	00500513          	li	a0,5
     7b0:	0247a483          	lw	s1,36(a5)
     7b4:	16c030ef          	jal	3920 <set_displays>
     7b8:	00200593          	li	a1,2
     7bc:	00400513          	li	a0,4
     7c0:	160030ef          	jal	3920 <set_displays>
     7c4:	00000593          	li	a1,0
     7c8:	00300513          	li	a0,3
     7cc:	154030ef          	jal	3920 <set_displays>
     7d0:	06400593          	li	a1,100
     7d4:	00200513          	li	a0,2
     7d8:	148030ef          	jal	3920 <set_displays>
     7dc:	666665b7          	lui	a1,0x66666
     7e0:	66758593          	addi	a1,a1,1639 # 66666667 <_stack_end+0x6656020f>
     7e4:	02b495b3          	mulh	a1,s1,a1
     7e8:	00040513          	mv	a0,s0
     7ec:	41f4d793          	srai	a5,s1,0x1f
     7f0:	4025d413          	srai	s0,a1,0x2
     7f4:	f81ff06f          	j	774 <update_display+0x90>
     7f8:	00000593          	li	a1,0
     7fc:	00500513          	li	a0,5
     800:	01212023          	sw	s2,0(sp)
     804:	00c7a903          	lw	s2,12(a5)
     808:	118030ef          	jal	3920 <set_displays>
     80c:	00040593          	mv	a1,s0
     810:	00400513          	li	a0,4
     814:	10c030ef          	jal	3920 <set_displays>
     818:	06400593          	li	a1,100
     81c:	00300513          	li	a0,3
     820:	100030ef          	jal	3920 <set_displays>
     824:	00040513          	mv	a0,s0
     828:	66666437          	lui	s0,0x66666
     82c:	66740413          	addi	s0,s0,1639 # 66666667 <_stack_end+0x6656020f>
     830:	02891433          	mulh	s0,s2,s0
     834:	06400593          	li	a1,100
     838:	0e8030ef          	jal	3920 <set_displays>
     83c:	41f95793          	srai	a5,s2,0x1f
     840:	00048513          	mv	a0,s1
     844:	40245413          	srai	s0,s0,0x2
     848:	40f40433          	sub	s0,s0,a5
     84c:	00040593          	mv	a1,s0
     850:	0d0030ef          	jal	3920 <set_displays>
     854:	00241593          	slli	a1,s0,0x2
     858:	008585b3          	add	a1,a1,s0
     85c:	00159593          	slli	a1,a1,0x1
     860:	40b905b3          	sub	a1,s2,a1
     864:	00000513          	li	a0,0
     868:	00012903          	lw	s2,0(sp)
     86c:	f29ff06f          	j	794 <update_display+0xb0>

00000870 <update_status>:
     870:	6805a703          	lw	a4,1664(a1)
     874:	6745a883          	lw	a7,1652(a1)
     878:	6785a803          	lw	a6,1656(a1)
     87c:	67c5a603          	lw	a2,1660(a1)
     880:	6845a783          	lw	a5,1668(a1)
     884:	7dc5a683          	lw	a3,2012(a1)
     888:	fd010113          	addi	sp,sp,-48
     88c:	02e12023          	sw	a4,32(sp)
     890:	01112a23          	sw	a7,20(sp)
     894:	01012c23          	sw	a6,24(sp)
     898:	00c12e23          	sw	a2,28(sp)
     89c:	02f12223          	sw	a5,36(sp)
     8a0:	00900713          	li	a4,9
     8a4:	10e69063          	bne	a3,a4,9a4 <update_status+0x134>
     8a8:	00050793          	mv	a5,a0
     8ac:	01052503          	lw	a0,16(a0)
     8b0:	0147a703          	lw	a4,20(a5)
     8b4:	00600693          	li	a3,6
     8b8:	ff650513          	addi	a0,a0,-10
     8bc:	00a6b533          	sltu	a0,a3,a0
     8c0:	40a00533          	neg	a0,a0
     8c4:	ffe57513          	andi	a0,a0,-2
     8c8:	ff670713          	addi	a4,a4,-10
     8cc:	00350513          	addi	a0,a0,3
     8d0:	00e6e663          	bltu	a3,a4,8dc <update_status+0x6c>
     8d4:	00151513          	slli	a0,a0,0x1
     8d8:	00150513          	addi	a0,a0,1
     8dc:	0187a703          	lw	a4,24(a5)
     8e0:	00600693          	li	a3,6
     8e4:	ff670713          	addi	a4,a4,-10
     8e8:	00e6e663          	bltu	a3,a4,8f4 <update_status+0x84>
     8ec:	00151513          	slli	a0,a0,0x1
     8f0:	00150513          	addi	a0,a0,1
     8f4:	01c7a703          	lw	a4,28(a5)
     8f8:	00600693          	li	a3,6
     8fc:	ff670713          	addi	a4,a4,-10
     900:	00e6e663          	bltu	a3,a4,90c <update_status+0x9c>
     904:	00151513          	slli	a0,a0,0x1
     908:	00150513          	addi	a0,a0,1
     90c:	0207a783          	lw	a5,32(a5)
     910:	00600713          	li	a4,6
     914:	ff678793          	addi	a5,a5,-10
     918:	00f76663          	bltu	a4,a5,924 <update_status+0xb4>
     91c:	00151513          	slli	a0,a0,0x1
     920:	00150513          	addi	a0,a0,1
     924:	01412783          	lw	a5,20(sp)
     928:	00600713          	li	a4,6
     92c:	ff678793          	addi	a5,a5,-10
     930:	00f76663          	bltu	a4,a5,93c <update_status+0xcc>
     934:	00151513          	slli	a0,a0,0x1
     938:	00150513          	addi	a0,a0,1
     93c:	01812783          	lw	a5,24(sp)
     940:	00600713          	li	a4,6
     944:	ff678793          	addi	a5,a5,-10
     948:	00f76663          	bltu	a4,a5,954 <update_status+0xe4>
     94c:	00151513          	slli	a0,a0,0x1
     950:	00150513          	addi	a0,a0,1
     954:	01c12783          	lw	a5,28(sp)
     958:	00600713          	li	a4,6
     95c:	ff678793          	addi	a5,a5,-10
     960:	00f76663          	bltu	a4,a5,96c <update_status+0xfc>
     964:	00151513          	slli	a0,a0,0x1
     968:	00150513          	addi	a0,a0,1
     96c:	02012783          	lw	a5,32(sp)
     970:	00600713          	li	a4,6
     974:	ff678793          	addi	a5,a5,-10
     978:	00f76663          	bltu	a4,a5,984 <update_status+0x114>
     97c:	00151513          	slli	a0,a0,0x1
     980:	00150513          	addi	a0,a0,1
     984:	02412783          	lw	a5,36(sp)
     988:	00600713          	li	a4,6
     98c:	ff678793          	addi	a5,a5,-10
     990:	00f76663          	bltu	a4,a5,99c <update_status+0x12c>
     994:	00151513          	slli	a0,a0,0x1
     998:	00150513          	addi	a0,a0,1
     99c:	03010113          	addi	sp,sp,48
     9a0:	7f90206f          	j	3998 <set_leds>
     9a4:	03010113          	addi	sp,sp,48
     9a8:	00008067          	ret

000009ac <display_frame>:
     9ac:	ac010113          	addi	sp,sp,-1344
     9b0:	000057b7          	lui	a5,0x5
     9b4:	52912a23          	sw	s1,1332(sp)
     9b8:	00050493          	mv	s1,a0
     9bc:	05078513          	addi	a0,a5,80 # 5050 <CSWTCH.15+0x1e4>
     9c0:	52112e23          	sw	ra,1340(sp)
     9c4:	52812c23          	sw	s0,1336(sp)
     9c8:	53212823          	sw	s2,1328(sp)
     9cc:	53312623          	sw	s3,1324(sp)
     9d0:	0085a903          	lw	s2,8(a1)
     9d4:	53412423          	sw	s4,1320(sp)
     9d8:	51812c23          	sw	s8,1304(sp)
     9dc:	00058a13          	mv	s4,a1
     9e0:	51912a23          	sw	s9,1300(sp)
     9e4:	0004a983          	lw	s3,0(s1)
     9e8:	00060c93          	mv	s9,a2
     9ec:	0044ac03          	lw	s8,4(s1)
     9f0:	53512223          	sw	s5,1316(sp)
     9f4:	53612023          	sw	s6,1312(sp)
     9f8:	51712e23          	sw	s7,1308(sp)
     9fc:	51a12823          	sw	s10,1296(sp)
     a00:	601030ef          	jal	4800 <print>
     a04:	00005537          	lui	a0,0x5
     a08:	05850513          	addi	a0,a0,88 # 5058 <CSWTCH.15+0x1ec>
     a0c:	5f5030ef          	jal	4800 <print>
     a10:	00005437          	lui	s0,0x5
     a14:	05c40513          	addi	a0,s0,92 # 505c <CSWTCH.15+0x1f0>
     a18:	5e9030ef          	jal	4800 <print>
     a1c:	00005537          	lui	a0,0x5
     a20:	09450513          	addi	a0,a0,148 # 5094 <CSWTCH.15+0x228>
     a24:	5dd030ef          	jal	4800 <print>
     a28:	05c40513          	addi	a0,s0,92
     a2c:	5d5030ef          	jal	4800 <print>
     a30:	000057b7          	lui	a5,0x5
     a34:	00010823          	sb	zero,16(sp)
     a38:	01010713          	addi	a4,sp,16
     a3c:	f8c78793          	addi	a5,a5,-116 # 4f8c <CSWTCH.15+0x120>
     a40:	07c00693          	li	a3,124
     a44:	00178793          	addi	a5,a5,1
     a48:	00d70023          	sb	a3,0(a4)
     a4c:	0007c683          	lbu	a3,0(a5)
     a50:	00170713          	addi	a4,a4,1
     a54:	fe0698e3          	bnez	a3,a44 <display_frame+0x98>
     a58:	00070023          	sb	zero,0(a4)
     a5c:	280988e3          	beqz	s3,14ec <display_frame+0xb40>
     a60:	2209c4e3          	bltz	s3,1488 <display_frame+0xadc>
     a64:	66666737          	lui	a4,0x66666
     a68:	66770713          	addi	a4,a4,1639 # 66666667 <_stack_end+0x6656020f>
     a6c:	02e99733          	mulh	a4,s3,a4
     a70:	41f9d793          	srai	a5,s3,0x1f
     a74:	40275713          	srai	a4,a4,0x2
     a78:	40f70733          	sub	a4,a4,a5
     a7c:	00271793          	slli	a5,a4,0x2
     a80:	00e787b3          	add	a5,a5,a4
     a84:	00179793          	slli	a5,a5,0x1
     a88:	40f987b3          	sub	a5,s3,a5
     a8c:	03078793          	addi	a5,a5,48
     a90:	0ff7f793          	zext.b	a5,a5
     a94:	10f10823          	sb	a5,272(sp)
     a98:	4c0708e3          	beqz	a4,1768 <display_frame+0xdbc>
     a9c:	ccccd7b7          	lui	a5,0xccccd
     aa0:	ccd78793          	addi	a5,a5,-819 # cccccccd <_stack_end+0xccbc6875>
     aa4:	02f737b3          	mulhu	a5,a4,a5
     aa8:	00000693          	li	a3,0
     aac:	0037d793          	srli	a5,a5,0x3
     ab0:	00279613          	slli	a2,a5,0x2
     ab4:	00f60633          	add	a2,a2,a5
     ab8:	00161613          	slli	a2,a2,0x1
     abc:	40c70733          	sub	a4,a4,a2
     ac0:	03070713          	addi	a4,a4,48
     ac4:	0ff77713          	zext.b	a4,a4
     ac8:	10e108a3          	sb	a4,273(sp)
     acc:	420782e3          	beqz	a5,16f0 <display_frame+0xd44>
     ad0:	ccccd737          	lui	a4,0xccccd
     ad4:	ccd70713          	addi	a4,a4,-819 # cccccccd <_stack_end+0xccbc6875>
     ad8:	02e7b633          	mulhu	a2,a5,a4
     adc:	00365613          	srli	a2,a2,0x3
     ae0:	00261593          	slli	a1,a2,0x2
     ae4:	00c585b3          	add	a1,a1,a2
     ae8:	00159593          	slli	a1,a1,0x1
     aec:	40b787b3          	sub	a5,a5,a1
     af0:	03078793          	addi	a5,a5,48
     af4:	0ff7f793          	zext.b	a5,a5
     af8:	10f10923          	sb	a5,274(sp)
     afc:	360602e3          	beqz	a2,1660 <display_frame+0xcb4>
     b00:	02e635b3          	mulhu	a1,a2,a4
     b04:	0035d593          	srli	a1,a1,0x3
     b08:	00259793          	slli	a5,a1,0x2
     b0c:	00b787b3          	add	a5,a5,a1
     b10:	00179793          	slli	a5,a5,0x1
     b14:	40f607b3          	sub	a5,a2,a5
     b18:	03078793          	addi	a5,a5,48
     b1c:	0ff7f793          	zext.b	a5,a5
     b20:	10f109a3          	sb	a5,275(sp)
     b24:	320586e3          	beqz	a1,1650 <display_frame+0xca4>
     b28:	02e5b633          	mulhu	a2,a1,a4
     b2c:	00365613          	srli	a2,a2,0x3
     b30:	00261793          	slli	a5,a2,0x2
     b34:	00c787b3          	add	a5,a5,a2
     b38:	00179793          	slli	a5,a5,0x1
     b3c:	40f587b3          	sub	a5,a1,a5
     b40:	03078793          	addi	a5,a5,48
     b44:	0ff7f793          	zext.b	a5,a5
     b48:	10f10a23          	sb	a5,276(sp)
     b4c:	3a060ce3          	beqz	a2,1704 <display_frame+0xd58>
     b50:	02e635b3          	mulhu	a1,a2,a4
     b54:	0035d593          	srli	a1,a1,0x3
     b58:	00259793          	slli	a5,a1,0x2
     b5c:	00b787b3          	add	a5,a5,a1
     b60:	00179793          	slli	a5,a5,0x1
     b64:	40f607b3          	sub	a5,a2,a5
     b68:	03078793          	addi	a5,a5,48
     b6c:	0ff7f793          	zext.b	a5,a5
     b70:	10f10aa3          	sb	a5,277(sp)
     b74:	360582e3          	beqz	a1,16d8 <display_frame+0xd2c>
     b78:	02e5b633          	mulhu	a2,a1,a4
     b7c:	00365613          	srli	a2,a2,0x3
     b80:	00261793          	slli	a5,a2,0x2
     b84:	00c787b3          	add	a5,a5,a2
     b88:	00179793          	slli	a5,a5,0x1
     b8c:	40f587b3          	sub	a5,a1,a5
     b90:	03078793          	addi	a5,a5,48
     b94:	0ff7f793          	zext.b	a5,a5
     b98:	10f10b23          	sb	a5,278(sp)
     b9c:	5e0602e3          	beqz	a2,1980 <display_frame+0xfd4>
     ba0:	02e635b3          	mulhu	a1,a2,a4
     ba4:	0035d593          	srli	a1,a1,0x3
     ba8:	00259793          	slli	a5,a1,0x2
     bac:	00b787b3          	add	a5,a5,a1
     bb0:	00179793          	slli	a5,a5,0x1
     bb4:	40f607b3          	sub	a5,a2,a5
     bb8:	03078793          	addi	a5,a5,48
     bbc:	0ff7f793          	zext.b	a5,a5
     bc0:	10f10ba3          	sb	a5,279(sp)
     bc4:	580588e3          	beqz	a1,1954 <display_frame+0xfa8>
     bc8:	02e5b7b3          	mulhu	a5,a1,a4
     bcc:	0037d793          	srli	a5,a5,0x3
     bd0:	00279713          	slli	a4,a5,0x2
     bd4:	00f70733          	add	a4,a4,a5
     bd8:	00171713          	slli	a4,a4,0x1
     bdc:	40e58733          	sub	a4,a1,a4
     be0:	03070713          	addi	a4,a4,48
     be4:	0ff77713          	zext.b	a4,a4
     be8:	10e10c23          	sb	a4,280(sp)
     bec:	4c078ce3          	beqz	a5,18c4 <display_frame+0xf18>
     bf0:	03078793          	addi	a5,a5,48
     bf4:	0ff7f793          	zext.b	a5,a5
     bf8:	10f10ca3          	sb	a5,281(sp)
     bfc:	2c0680e3          	beqz	a3,16bc <display_frame+0xd10>
     c00:	00a00793          	li	a5,10
     c04:	00900713          	li	a4,9
     c08:	002787b3          	add	a5,a5,sp
     c0c:	02d00693          	li	a3,45
     c10:	10d78823          	sb	a3,272(a5)
     c14:	002707b3          	add	a5,a4,sp
     c18:	1117c603          	lbu	a2,273(a5)
     c1c:	1107c683          	lbu	a3,272(a5)
     c20:	00270793          	addi	a5,a4,2
     c24:	00c10223          	sb	a2,4(sp)
     c28:	00d102a3          	sb	a3,5(sp)
     c2c:	2c0708e3          	beqz	a4,16fc <display_frame+0xd50>
     c30:	00070693          	mv	a3,a4
     c34:	002686b3          	add	a3,a3,sp
     c38:	10f6c683          	lbu	a3,271(a3)
     c3c:	fff70713          	addi	a4,a4,-1
     c40:	00d10323          	sb	a3,6(sp)
     c44:	440700e3          	beqz	a4,1884 <display_frame+0xed8>
     c48:	002786b3          	add	a3,a5,sp
     c4c:	10c6c683          	lbu	a3,268(a3)
     c50:	ffc78713          	addi	a4,a5,-4
     c54:	00d103a3          	sb	a3,7(sp)
     c58:	280708e3          	beqz	a4,16e8 <display_frame+0xd3c>
     c5c:	002786b3          	add	a3,a5,sp
     c60:	10b6c683          	lbu	a3,267(a3)
     c64:	ffb78713          	addi	a4,a5,-5
     c68:	00d10423          	sb	a3,8(sp)
     c6c:	38070ee3          	beqz	a4,1808 <display_frame+0xe5c>
     c70:	002786b3          	add	a3,a5,sp
     c74:	10a6c683          	lbu	a3,266(a3)
     c78:	ffa78713          	addi	a4,a5,-6
     c7c:	00d104a3          	sb	a3,9(sp)
     c80:	380700e3          	beqz	a4,1800 <display_frame+0xe54>
     c84:	002786b3          	add	a3,a5,sp
     c88:	1096c683          	lbu	a3,265(a3)
     c8c:	ff978713          	addi	a4,a5,-7
     c90:	00d10523          	sb	a3,10(sp)
     c94:	360702e3          	beqz	a4,17f8 <display_frame+0xe4c>
     c98:	002786b3          	add	a3,a5,sp
     c9c:	1086c683          	lbu	a3,264(a3)
     ca0:	ff878713          	addi	a4,a5,-8
     ca4:	00d105a3          	sb	a3,11(sp)
     ca8:	340704e3          	beqz	a4,17f0 <display_frame+0xe44>
     cac:	002786b3          	add	a3,a5,sp
     cb0:	1076c683          	lbu	a3,263(a3)
     cb4:	ff778713          	addi	a4,a5,-9
     cb8:	00d10623          	sb	a3,12(sp)
     cbc:	380708e3          	beqz	a4,184c <display_frame+0xea0>
     cc0:	00078713          	mv	a4,a5
     cc4:	00270733          	add	a4,a4,sp
     cc8:	10674703          	lbu	a4,262(a4)
     ccc:	ff678793          	addi	a5,a5,-10
     cd0:	00e106a3          	sb	a4,13(sp)
     cd4:	360788e3          	beqz	a5,1844 <display_frame+0xe98>
     cd8:	11014703          	lbu	a4,272(sp)
     cdc:	00b00793          	li	a5,11
     ce0:	00e10723          	sb	a4,14(sp)
     ce4:	01014683          	lbu	a3,16(sp)
     ce8:	002787b3          	add	a5,a5,sp
     cec:	00078223          	sb	zero,4(a5)
     cf0:	00414703          	lbu	a4,4(sp)
     cf4:	000694e3          	bnez	a3,14fc <display_frame+0xb50>
     cf8:	01010793          	addi	a5,sp,16
     cfc:	00070e63          	beqz	a4,d18 <display_frame+0x36c>
     d00:	00410693          	addi	a3,sp,4
     d04:	00168693          	addi	a3,a3,1
     d08:	00e78023          	sb	a4,0(a5)
     d0c:	0006c703          	lbu	a4,0(a3)
     d10:	00178793          	addi	a5,a5,1
     d14:	fe0718e3          	bnez	a4,d04 <display_frame+0x358>
     d18:	00078023          	sb	zero,0(a5)
     d1c:	01014783          	lbu	a5,16(sp)
     d20:	120784e3          	beqz	a5,1648 <display_frame+0xc9c>
     d24:	01010793          	addi	a5,sp,16
     d28:	0017c703          	lbu	a4,1(a5)
     d2c:	00178793          	addi	a5,a5,1
     d30:	fe071ce3          	bnez	a4,d28 <display_frame+0x37c>
     d34:	00005737          	lui	a4,0x5
     d38:	f9c70713          	addi	a4,a4,-100 # 4f9c <CSWTCH.15+0x130>
     d3c:	02c00693          	li	a3,44
     d40:	00170713          	addi	a4,a4,1
     d44:	00d78023          	sb	a3,0(a5)
     d48:	00074683          	lbu	a3,0(a4)
     d4c:	00178793          	addi	a5,a5,1
     d50:	fe0698e3          	bnez	a3,d40 <display_frame+0x394>
     d54:	00078023          	sb	zero,0(a5)
     d58:	7a0c0e63          	beqz	s8,1514 <display_frame+0xb68>
     d5c:	080c4ae3          	bltz	s8,15f0 <display_frame+0xc44>
     d60:	666667b7          	lui	a5,0x66666
     d64:	66778793          	addi	a5,a5,1639 # 66666667 <_stack_end+0x6656020f>
     d68:	02fc17b3          	mulh	a5,s8,a5
     d6c:	41fc5693          	srai	a3,s8,0x1f
     d70:	00000713          	li	a4,0
     d74:	4027d793          	srai	a5,a5,0x2
     d78:	40d787b3          	sub	a5,a5,a3
     d7c:	00279693          	slli	a3,a5,0x2
     d80:	00f686b3          	add	a3,a3,a5
     d84:	00169693          	slli	a3,a3,0x1
     d88:	40dc06b3          	sub	a3,s8,a3
     d8c:	03068693          	addi	a3,a3,48
     d90:	0ff6f693          	zext.b	a3,a3
     d94:	10d10823          	sb	a3,272(sp)
     d98:	16078ee3          	beqz	a5,1714 <display_frame+0xd68>
     d9c:	ccccd6b7          	lui	a3,0xccccd
     da0:	ccd68693          	addi	a3,a3,-819 # cccccccd <_stack_end+0xccbc6875>
     da4:	02d7b633          	mulhu	a2,a5,a3
     da8:	00365613          	srli	a2,a2,0x3
     dac:	00261593          	slli	a1,a2,0x2
     db0:	00c585b3          	add	a1,a1,a2
     db4:	00159593          	slli	a1,a1,0x1
     db8:	40b787b3          	sub	a5,a5,a1
     dbc:	03078793          	addi	a5,a5,48
     dc0:	0ff7f793          	zext.b	a5,a5
     dc4:	10f108a3          	sb	a5,273(sp)
     dc8:	0c0604e3          	beqz	a2,1690 <display_frame+0xce4>
     dcc:	02d635b3          	mulhu	a1,a2,a3
     dd0:	0035d593          	srli	a1,a1,0x3
     dd4:	00259793          	slli	a5,a1,0x2
     dd8:	00b787b3          	add	a5,a5,a1
     ddc:	00179793          	slli	a5,a5,0x1
     de0:	40f607b3          	sub	a5,a2,a5
     de4:	03078793          	addi	a5,a5,48
     de8:	0ff7f793          	zext.b	a5,a5
     dec:	10f10923          	sb	a5,274(sp)
     df0:	080588e3          	beqz	a1,1680 <display_frame+0xcd4>
     df4:	02d5b633          	mulhu	a2,a1,a3
     df8:	00365613          	srli	a2,a2,0x3
     dfc:	00261793          	slli	a5,a2,0x2
     e00:	00c787b3          	add	a5,a5,a2
     e04:	00179793          	slli	a5,a5,0x1
     e08:	40f587b3          	sub	a5,a1,a5
     e0c:	03078793          	addi	a5,a5,48
     e10:	0ff7f793          	zext.b	a5,a5
     e14:	10f109a3          	sb	a5,275(sp)
     e18:	04060ce3          	beqz	a2,1670 <display_frame+0xcc4>
     e1c:	02d635b3          	mulhu	a1,a2,a3
     e20:	0035d593          	srli	a1,a1,0x3
     e24:	00259793          	slli	a5,a1,0x2
     e28:	00b787b3          	add	a5,a5,a1
     e2c:	00179793          	slli	a5,a5,0x1
     e30:	40f607b3          	sub	a5,a2,a5
     e34:	03078793          	addi	a5,a5,48
     e38:	0ff7f793          	zext.b	a5,a5
     e3c:	10f10a23          	sb	a5,276(sp)
     e40:	0e0580e3          	beqz	a1,1720 <display_frame+0xd74>
     e44:	02d5b633          	mulhu	a2,a1,a3
     e48:	00365613          	srli	a2,a2,0x3
     e4c:	00261793          	slli	a5,a2,0x2
     e50:	00c787b3          	add	a5,a5,a2
     e54:	00179793          	slli	a5,a5,0x1
     e58:	40f587b3          	sub	a5,a1,a5
     e5c:	03078793          	addi	a5,a5,48
     e60:	0ff7f793          	zext.b	a5,a5
     e64:	10f10aa3          	sb	a5,277(sp)
     e68:	0c060ce3          	beqz	a2,1740 <display_frame+0xd94>
     e6c:	02d635b3          	mulhu	a1,a2,a3
     e70:	0035d593          	srli	a1,a1,0x3
     e74:	00259793          	slli	a5,a1,0x2
     e78:	00b787b3          	add	a5,a5,a1
     e7c:	00179793          	slli	a5,a5,0x1
     e80:	40f607b3          	sub	a5,a2,a5
     e84:	03078793          	addi	a5,a5,48
     e88:	0ff7f793          	zext.b	a5,a5
     e8c:	10f10b23          	sb	a5,278(sp)
     e90:	28058ae3          	beqz	a1,1924 <display_frame+0xf78>
     e94:	02d5b633          	mulhu	a2,a1,a3
     e98:	00365613          	srli	a2,a2,0x3
     e9c:	00261793          	slli	a5,a2,0x2
     ea0:	00c787b3          	add	a5,a5,a2
     ea4:	00179793          	slli	a5,a5,0x1
     ea8:	40f587b3          	sub	a5,a1,a5
     eac:	03078793          	addi	a5,a5,48
     eb0:	0ff7f793          	zext.b	a5,a5
     eb4:	10f10ba3          	sb	a5,279(sp)
     eb8:	0c0604e3          	beqz	a2,1780 <display_frame+0xdd4>
     ebc:	02d637b3          	mulhu	a5,a2,a3
     ec0:	0037d793          	srli	a5,a5,0x3
     ec4:	00279693          	slli	a3,a5,0x2
     ec8:	00f686b3          	add	a3,a3,a5
     ecc:	00169693          	slli	a3,a3,0x1
     ed0:	40d606b3          	sub	a3,a2,a3
     ed4:	03068693          	addi	a3,a3,48
     ed8:	0ff6f693          	zext.b	a3,a3
     edc:	10d10c23          	sb	a3,280(sp)
     ee0:	1e078ae3          	beqz	a5,18d4 <display_frame+0xf28>
     ee4:	03078793          	addi	a5,a5,48
     ee8:	0ff7f793          	zext.b	a5,a5
     eec:	10f10ca3          	sb	a5,281(sp)
     ef0:	7a070863          	beqz	a4,16a0 <display_frame+0xcf4>
     ef4:	00a00713          	li	a4,10
     ef8:	00900793          	li	a5,9
     efc:	00270733          	add	a4,a4,sp
     f00:	02d00693          	li	a3,45
     f04:	10d70823          	sb	a3,272(a4)
     f08:	00278733          	add	a4,a5,sp
     f0c:	11174603          	lbu	a2,273(a4)
     f10:	11074683          	lbu	a3,272(a4)
     f14:	00278713          	addi	a4,a5,2
     f18:	00c10223          	sb	a2,4(sp)
     f1c:	00d102a3          	sb	a3,5(sp)
     f20:	10078ae3          	beqz	a5,1834 <display_frame+0xe88>
     f24:	00078693          	mv	a3,a5
     f28:	002686b3          	add	a3,a3,sp
     f2c:	10f6c683          	lbu	a3,271(a3)
     f30:	fff78793          	addi	a5,a5,-1
     f34:	00d10323          	sb	a3,6(sp)
     f38:	08078ae3          	beqz	a5,17cc <display_frame+0xe20>
     f3c:	002706b3          	add	a3,a4,sp
     f40:	10c6c683          	lbu	a3,268(a3)
     f44:	ffc70793          	addi	a5,a4,-4
     f48:	00d103a3          	sb	a3,7(sp)
     f4c:	00078ae3          	beqz	a5,1760 <display_frame+0xdb4>
     f50:	002706b3          	add	a3,a4,sp
     f54:	10b6c683          	lbu	a3,267(a3)
     f58:	ffb70793          	addi	a5,a4,-5
     f5c:	00d10423          	sb	a3,8(sp)
     f60:	200786e3          	beqz	a5,196c <display_frame+0xfc0>
     f64:	002706b3          	add	a3,a4,sp
     f68:	10a6c683          	lbu	a3,266(a3)
     f6c:	ffa70793          	addi	a5,a4,-6
     f70:	00d104a3          	sb	a3,9(sp)
     f74:	0c0784e3          	beqz	a5,183c <display_frame+0xe90>
     f78:	002706b3          	add	a3,a4,sp
     f7c:	1096c683          	lbu	a3,265(a3)
     f80:	ff970793          	addi	a5,a4,-7
     f84:	00d10523          	sb	a3,10(sp)
     f88:	080784e3          	beqz	a5,1810 <display_frame+0xe64>
     f8c:	002706b3          	add	a3,a4,sp
     f90:	1086c683          	lbu	a3,264(a3)
     f94:	ff870793          	addi	a5,a4,-8
     f98:	00d105a3          	sb	a3,11(sp)
     f9c:	06078ee3          	beqz	a5,1818 <display_frame+0xe6c>
     fa0:	002706b3          	add	a3,a4,sp
     fa4:	1076c683          	lbu	a3,263(a3)
     fa8:	ff770793          	addi	a5,a4,-9
     fac:	00d10623          	sb	a3,12(sp)
     fb0:	060788e3          	beqz	a5,1820 <display_frame+0xe74>
     fb4:	00070793          	mv	a5,a4
     fb8:	002787b3          	add	a5,a5,sp
     fbc:	1067c783          	lbu	a5,262(a5)
     fc0:	ff670713          	addi	a4,a4,-10
     fc4:	00f106a3          	sb	a5,13(sp)
     fc8:	18070ee3          	beqz	a4,1964 <display_frame+0xfb8>
     fcc:	11014703          	lbu	a4,272(sp)
     fd0:	00b00793          	li	a5,11
     fd4:	00e10723          	sb	a4,14(sp)
     fd8:	01014683          	lbu	a3,16(sp)
     fdc:	002787b3          	add	a5,a5,sp
     fe0:	00078223          	sb	zero,4(a5)
     fe4:	00414703          	lbu	a4,4(sp)
     fe8:	52069e63          	bnez	a3,1524 <display_frame+0xb78>
     fec:	01010793          	addi	a5,sp,16
     ff0:	00070e63          	beqz	a4,100c <display_frame+0x660>
     ff4:	00410693          	addi	a3,sp,4
     ff8:	00168693          	addi	a3,a3,1
     ffc:	00e78023          	sb	a4,0(a5)
    1000:	0006c703          	lbu	a4,0(a3)
    1004:	00178793          	addi	a5,a5,1
    1008:	fe0718e3          	bnez	a4,ff8 <display_frame+0x64c>
    100c:	00078023          	sb	zero,0(a5)
    1010:	01014783          	lbu	a5,16(sp)
    1014:	62078663          	beqz	a5,1640 <display_frame+0xc94>
    1018:	01010793          	addi	a5,sp,16
    101c:	0017c703          	lbu	a4,1(a5)
    1020:	00178793          	addi	a5,a5,1
    1024:	fe071ce3          	bnez	a4,101c <display_frame+0x670>
    1028:	00005737          	lui	a4,0x5
    102c:	fa070713          	addi	a4,a4,-96 # 4fa0 <CSWTCH.15+0x134>
    1030:	02900693          	li	a3,41
    1034:	00170713          	addi	a4,a4,1
    1038:	00d78023          	sb	a3,0(a5)
    103c:	00074683          	lbu	a3,0(a4)
    1040:	00178793          	addi	a5,a5,1
    1044:	fe0698e3          	bnez	a3,1034 <display_frame+0x688>
    1048:	00078023          	sb	zero,0(a5)
    104c:	01010513          	addi	a0,sp,16
    1050:	7b0030ef          	jal	4800 <print>
    1054:	000057b7          	lui	a5,0x5
    1058:	00010823          	sb	zero,16(sp)
    105c:	01010713          	addi	a4,sp,16
    1060:	fc478793          	addi	a5,a5,-60 # 4fc4 <CSWTCH.15+0x158>
    1064:	07c00693          	li	a3,124
    1068:	00178793          	addi	a5,a5,1
    106c:	00d70023          	sb	a3,0(a4)
    1070:	0007c683          	lbu	a3,0(a5)
    1074:	00170713          	addi	a4,a4,1
    1078:	fe0698e3          	bnez	a3,1068 <display_frame+0x6bc>
    107c:	000a2683          	lw	a3,0(s4)
    1080:	00070023          	sb	zero,0(a4)
    1084:	000057b7          	lui	a5,0x5
    1088:	01014603          	lbu	a2,16(sp)
    108c:	00269713          	slli	a4,a3,0x2
    1090:	d3c78793          	addi	a5,a5,-708 # 4d3c <TILETYPE_NAMES>
    1094:	00e787b3          	add	a5,a5,a4
    1098:	0007a683          	lw	a3,0(a5)
    109c:	01010793          	addi	a5,sp,16
    10a0:	00060863          	beqz	a2,10b0 <display_frame+0x704>
    10a4:	0017c703          	lbu	a4,1(a5)
    10a8:	00178793          	addi	a5,a5,1
    10ac:	fe071ce3          	bnez	a4,10a4 <display_frame+0x6f8>
    10b0:	0006c703          	lbu	a4,0(a3)
    10b4:	00070c63          	beqz	a4,10cc <display_frame+0x720>
    10b8:	00e78023          	sb	a4,0(a5)
    10bc:	0016c703          	lbu	a4,1(a3)
    10c0:	00168693          	addi	a3,a3,1
    10c4:	00178793          	addi	a5,a5,1
    10c8:	fe0718e3          	bnez	a4,10b8 <display_frame+0x70c>
    10cc:	00078023          	sb	zero,0(a5)
    10d0:	01014783          	lbu	a5,16(sp)
    10d4:	56078263          	beqz	a5,1638 <display_frame+0xc8c>
    10d8:	01010793          	addi	a5,sp,16
    10dc:	0017c703          	lbu	a4,1(a5)
    10e0:	00178793          	addi	a5,a5,1
    10e4:	fe071ce3          	bnez	a4,10dc <display_frame+0x730>
    10e8:	00005737          	lui	a4,0x5
    10ec:	fd470713          	addi	a4,a4,-44 # 4fd4 <CSWTCH.15+0x168>
    10f0:	02000693          	li	a3,32
    10f4:	00170713          	addi	a4,a4,1
    10f8:	00d78023          	sb	a3,0(a5)
    10fc:	00074683          	lbu	a3,0(a4)
    1100:	00178793          	addi	a5,a5,1
    1104:	fe0698e3          	bnez	a3,10f4 <display_frame+0x748>
    1108:	00078023          	sb	zero,0(a5)
    110c:	01010513          	addi	a0,sp,16
    1110:	6f0030ef          	jal	4800 <print>
    1114:	05c40513          	addi	a0,s0,92
    1118:	6e8030ef          	jal	4800 <print>
    111c:	00005537          	lui	a0,0x5
    1120:	0cc50513          	addi	a0,a0,204 # 50cc <CSWTCH.15+0x260>
    1124:	00005437          	lui	s0,0x5
    1128:	6d8030ef          	jal	4800 <print>
    112c:	ffc40413          	addi	s0,s0,-4 # 4ffc <CSWTCH.15+0x190>
    1130:	00000b93          	li	s7,0
    1134:	05b00b13          	li	s6,91
    1138:	00005ab7          	lui	s5,0x5
    113c:	00005a37          	lui	s4,0x5
    1140:	10010823          	sb	zero,272(sp)
    1144:	00040693          	mv	a3,s0
    1148:	11010793          	addi	a5,sp,272
    114c:	07c00713          	li	a4,124
    1150:	00168693          	addi	a3,a3,1
    1154:	00e78023          	sb	a4,0(a5)
    1158:	0006c703          	lbu	a4,0(a3)
    115c:	00178793          	addi	a5,a5,1
    1160:	fe0718e3          	bnez	a4,1150 <display_frame+0x7a4>
    1164:	00078023          	sb	zero,0(a5)
    1168:	000c8593          	mv	a1,s9
    116c:	00000613          	li	a2,0
    1170:	00a00513          	li	a0,10
    1174:	11014703          	lbu	a4,272(sp)
    1178:	11010793          	addi	a5,sp,272
    117c:	3cc98063          	beq	s3,a2,153c <display_frame+0xb90>
    1180:	00070863          	beqz	a4,1190 <display_frame+0x7e4>
    1184:	0017c703          	lbu	a4,1(a5)
    1188:	00178793          	addi	a5,a5,1
    118c:	fe071ce3          	bnez	a4,1184 <display_frame+0x7d8>
    1190:	0005a703          	lw	a4,0(a1)
    1194:	01678023          	sb	s6,0(a5)
    1198:	000780a3          	sb	zero,1(a5)
    119c:	11014803          	lbu	a6,272(sp)
    11a0:	00271713          	slli	a4,a4,0x2
    11a4:	cf8a8793          	addi	a5,s5,-776 # 4cf8 <TILETYPE_MAP_NAMES>
    11a8:	00e787b3          	add	a5,a5,a4
    11ac:	0007a683          	lw	a3,0(a5)
    11b0:	11010793          	addi	a5,sp,272
    11b4:	00080863          	beqz	a6,11c4 <display_frame+0x818>
    11b8:	0017c703          	lbu	a4,1(a5)
    11bc:	00178793          	addi	a5,a5,1
    11c0:	fe071ce3          	bnez	a4,11b8 <display_frame+0x80c>
    11c4:	0006c703          	lbu	a4,0(a3)
    11c8:	00070c63          	beqz	a4,11e0 <display_frame+0x834>
    11cc:	00e78023          	sb	a4,0(a5)
    11d0:	0016c703          	lbu	a4,1(a3)
    11d4:	00168693          	addi	a3,a3,1
    11d8:	00178793          	addi	a5,a5,1
    11dc:	fe0718e3          	bnez	a4,11cc <display_frame+0x820>
    11e0:	00078023          	sb	zero,0(a5)
    11e4:	11014783          	lbu	a5,272(sp)
    11e8:	38078e63          	beqz	a5,1584 <display_frame+0xbd8>
    11ec:	11010793          	addi	a5,sp,272
    11f0:	0017c703          	lbu	a4,1(a5)
    11f4:	00178793          	addi	a5,a5,1
    11f8:	fe071ce3          	bnez	a4,11f0 <display_frame+0x844>
    11fc:	00ca0693          	addi	a3,s4,12 # 500c <CSWTCH.15+0x1a0>
    1200:	05d00713          	li	a4,93
    1204:	00168693          	addi	a3,a3,1
    1208:	00e78023          	sb	a4,0(a5)
    120c:	0006c703          	lbu	a4,0(a3)
    1210:	00178793          	addi	a5,a5,1
    1214:	fe0718e3          	bnez	a4,1204 <display_frame+0x858>
    1218:	00078023          	sb	zero,0(a5)
    121c:	00160613          	addi	a2,a2,1
    1220:	02858593          	addi	a1,a1,40
    1224:	f4a618e3          	bne	a2,a0,1174 <display_frame+0x7c8>
    1228:	11014783          	lbu	a5,272(sp)
    122c:	3a078a63          	beqz	a5,15e0 <display_frame+0xc34>
    1230:	11010793          	addi	a5,sp,272
    1234:	0017c703          	lbu	a4,1(a5)
    1238:	00178793          	addi	a5,a5,1
    123c:	fe071ce3          	bnez	a4,1234 <display_frame+0x888>
    1240:	00a00d13          	li	s10,10
    1244:	11010513          	addi	a0,sp,272
    1248:	000780a3          	sb	zero,1(a5)
    124c:	01a78023          	sb	s10,0(a5)
    1250:	001b8b93          	addi	s7,s7,1
    1254:	5ac030ef          	jal	4800 <print>
    1258:	190c8c93          	addi	s9,s9,400
    125c:	efab92e3          	bne	s7,s10,1140 <display_frame+0x794>
    1260:	00005537          	lui	a0,0x5
    1264:	10450513          	addi	a0,a0,260 # 5104 <CSWTCH.15+0x298>
    1268:	00005ab7          	lui	s5,0x5
    126c:	00005a37          	lui	s4,0x5
    1270:	000059b7          	lui	s3,0x5
    1274:	58c030ef          	jal	4800 <print>
    1278:	01048493          	addi	s1,s1,16
    127c:	010a8a93          	addi	s5,s5,16 # 5010 <CSWTCH.15+0x1a4>
    1280:	01ca0a13          	addi	s4,s4,28 # 501c <CSWTCH.15+0x1b0>
    1284:	02898993          	addi	s3,s3,40 # 5028 <CSWTCH.15+0x1bc>
    1288:	03100c93          	li	s9,49
    128c:	00005c37          	lui	s8,0x5
    1290:	00005bb7          	lui	s7,0x5
    1294:	03600b13          	li	s6,54
    1298:	00010823          	sb	zero,16(sp)
    129c:	000a8693          	mv	a3,s5
    12a0:	01010793          	addi	a5,sp,16
    12a4:	07c00713          	li	a4,124
    12a8:	00168693          	addi	a3,a3,1
    12ac:	00e78023          	sb	a4,0(a5)
    12b0:	0006c703          	lbu	a4,0(a3)
    12b4:	00178793          	addi	a5,a5,1
    12b8:	fe0718e3          	bnez	a4,12a8 <display_frame+0x8fc>
    12bc:	00078023          	sb	zero,0(a5)
    12c0:	01014783          	lbu	a5,16(sp)
    12c4:	01910223          	sb	s9,4(sp)
    12c8:	000102a3          	sb	zero,5(sp)
    12cc:	30078e63          	beqz	a5,15e8 <display_frame+0xc3c>
    12d0:	01010793          	addi	a5,sp,16
    12d4:	0017c703          	lbu	a4,1(a5)
    12d8:	00178793          	addi	a5,a5,1
    12dc:	fe071ce3          	bnez	a4,12d4 <display_frame+0x928>
    12e0:	01978023          	sb	s9,0(a5)
    12e4:	01014703          	lbu	a4,16(sp)
    12e8:	000780a3          	sb	zero,1(a5)
    12ec:	01010793          	addi	a5,sp,16
    12f0:	00070863          	beqz	a4,1300 <display_frame+0x954>
    12f4:	0017c703          	lbu	a4,1(a5)
    12f8:	00178793          	addi	a5,a5,1
    12fc:	fe071ce3          	bnez	a4,12f4 <display_frame+0x948>
    1300:	000a0693          	mv	a3,s4
    1304:	03a00713          	li	a4,58
    1308:	00168693          	addi	a3,a3,1
    130c:	00e78023          	sb	a4,0(a5)
    1310:	0006c703          	lbu	a4,0(a3)
    1314:	00178793          	addi	a5,a5,1
    1318:	fe0718e3          	bnez	a4,1308 <display_frame+0x95c>
    131c:	0004a703          	lw	a4,0(s1)
    1320:	00078023          	sb	zero,0(a5)
    1324:	01014603          	lbu	a2,16(sp)
    1328:	26071263          	bnez	a4,158c <display_frame+0xbe0>
    132c:	01010793          	addi	a5,sp,16
    1330:	00060863          	beqz	a2,1340 <display_frame+0x994>
    1334:	0017c703          	lbu	a4,1(a5)
    1338:	00178793          	addi	a5,a5,1
    133c:	fe071ce3          	bnez	a4,1334 <display_frame+0x988>
    1340:	020b8693          	addi	a3,s7,32 # 5020 <CSWTCH.15+0x1b4>
    1344:	04500713          	li	a4,69
    1348:	00168693          	addi	a3,a3,1
    134c:	00e78023          	sb	a4,0(a5)
    1350:	0006c703          	lbu	a4,0(a3)
    1354:	00178793          	addi	a5,a5,1
    1358:	fe0718e3          	bnez	a4,1348 <display_frame+0x99c>
    135c:	00078023          	sb	zero,0(a5)
    1360:	01014783          	lbu	a5,16(sp)
    1364:	26078a63          	beqz	a5,15d8 <display_frame+0xc2c>
    1368:	01010793          	addi	a5,sp,16
    136c:	0017c703          	lbu	a4,1(a5)
    1370:	00178793          	addi	a5,a5,1
    1374:	fe071ce3          	bnez	a4,136c <display_frame+0x9c0>
    1378:	00098693          	mv	a3,s3
    137c:	02000713          	li	a4,32
    1380:	00168693          	addi	a3,a3,1
    1384:	00e78023          	sb	a4,0(a5)
    1388:	0006c703          	lbu	a4,0(a3)
    138c:	00178793          	addi	a5,a5,1
    1390:	fe0718e3          	bnez	a4,1380 <display_frame+0x9d4>
    1394:	001c8c93          	addi	s9,s9,1
    1398:	01010513          	addi	a0,sp,16
    139c:	00078023          	sb	zero,0(a5)
    13a0:	0ffcfc93          	zext.b	s9,s9
    13a4:	45c030ef          	jal	4800 <print>
    13a8:	00448493          	addi	s1,s1,4
    13ac:	ef6c96e3          	bne	s9,s6,1298 <display_frame+0x8ec>
    13b0:	000054b7          	lui	s1,0x5
    13b4:	13c48513          	addi	a0,s1,316 # 513c <CSWTCH.15+0x2d0>
    13b8:	448030ef          	jal	4800 <print>
    13bc:	08090663          	beqz	s2,1448 <display_frame+0xa9c>
    13c0:	00010823          	sb	zero,16(sp)
    13c4:	01010793          	addi	a5,sp,16
    13c8:	07c00713          	li	a4,124
    13cc:	00140413          	addi	s0,s0,1
    13d0:	00e78023          	sb	a4,0(a5)
    13d4:	00044703          	lbu	a4,0(s0)
    13d8:	00178793          	addi	a5,a5,1
    13dc:	fe0718e3          	bnez	a4,13cc <display_frame+0xa20>
    13e0:	00078023          	sb	zero,0(a5)
    13e4:	01014783          	lbu	a5,16(sp)
    13e8:	24078463          	beqz	a5,1630 <display_frame+0xc84>
    13ec:	01010793          	addi	a5,sp,16
    13f0:	0017c703          	lbu	a4,1(a5)
    13f4:	00178793          	addi	a5,a5,1
    13f8:	fe071ce3          	bnez	a4,13f0 <display_frame+0xa44>
    13fc:	00094703          	lbu	a4,0(s2)
    1400:	00070c63          	beqz	a4,1418 <display_frame+0xa6c>
    1404:	00190913          	addi	s2,s2,1
    1408:	00e78023          	sb	a4,0(a5)
    140c:	00094703          	lbu	a4,0(s2)
    1410:	00178793          	addi	a5,a5,1
    1414:	fe0718e3          	bnez	a4,1404 <display_frame+0xa58>
    1418:	00078023          	sb	zero,0(a5)
    141c:	01014783          	lbu	a5,16(sp)
    1420:	20078463          	beqz	a5,1628 <display_frame+0xc7c>
    1424:	01010793          	addi	a5,sp,16
    1428:	0017c703          	lbu	a4,1(a5)
    142c:	00178793          	addi	a5,a5,1
    1430:	fe071ce3          	bnez	a4,1428 <display_frame+0xa7c>
    1434:	00a00713          	li	a4,10
    1438:	01010513          	addi	a0,sp,16
    143c:	000780a3          	sb	zero,1(a5)
    1440:	00e78023          	sb	a4,0(a5)
    1444:	3bc030ef          	jal	4800 <print>
    1448:	13c48513          	addi	a0,s1,316
    144c:	3b4030ef          	jal	4800 <print>
    1450:	53c12083          	lw	ra,1340(sp)
    1454:	53812403          	lw	s0,1336(sp)
    1458:	53412483          	lw	s1,1332(sp)
    145c:	53012903          	lw	s2,1328(sp)
    1460:	52c12983          	lw	s3,1324(sp)
    1464:	52812a03          	lw	s4,1320(sp)
    1468:	52412a83          	lw	s5,1316(sp)
    146c:	52012b03          	lw	s6,1312(sp)
    1470:	51c12b83          	lw	s7,1308(sp)
    1474:	51812c03          	lw	s8,1304(sp)
    1478:	51412c83          	lw	s9,1300(sp)
    147c:	51012d03          	lw	s10,1296(sp)
    1480:	54010113          	addi	sp,sp,1344
    1484:	00008067          	ret
    1488:	ccccd7b7          	lui	a5,0xccccd
    148c:	413006b3          	neg	a3,s3
    1490:	ccd78793          	addi	a5,a5,-819 # cccccccd <_stack_end+0xccbc6875>
    1494:	02f6b733          	mulhu	a4,a3,a5
    1498:	00375713          	srli	a4,a4,0x3
    149c:	00271613          	slli	a2,a4,0x2
    14a0:	00e60633          	add	a2,a2,a4
    14a4:	00161613          	slli	a2,a2,0x1
    14a8:	40c686b3          	sub	a3,a3,a2
    14ac:	03068693          	addi	a3,a3,48
    14b0:	10d10823          	sb	a3,272(sp)
    14b4:	48070c63          	beqz	a4,194c <display_frame+0xfa0>
    14b8:	02f737b3          	mulhu	a5,a4,a5
    14bc:	00100693          	li	a3,1
    14c0:	0037d793          	srli	a5,a5,0x3
    14c4:	00279613          	slli	a2,a5,0x2
    14c8:	00f60633          	add	a2,a2,a5
    14cc:	00161613          	slli	a2,a2,0x1
    14d0:	40c70733          	sub	a4,a4,a2
    14d4:	03070713          	addi	a4,a4,48
    14d8:	10e108a3          	sb	a4,273(sp)
    14dc:	de079a63          	bnez	a5,ad0 <display_frame+0x124>
    14e0:	00068713          	mv	a4,a3
    14e4:	00200793          	li	a5,2
    14e8:	f20ff06f          	j	c08 <display_frame+0x25c>
    14ec:	01014783          	lbu	a5,16(sp)
    14f0:	03000713          	li	a4,48
    14f4:	00e11223          	sh	a4,4(sp)
    14f8:	44078663          	beqz	a5,1944 <display_frame+0xf98>
    14fc:	01010793          	addi	a5,sp,16
    1500:	0017c683          	lbu	a3,1(a5)
    1504:	00178793          	addi	a5,a5,1
    1508:	fe069ce3          	bnez	a3,1500 <display_frame+0xb54>
    150c:	fe071a63          	bnez	a4,d00 <display_frame+0x354>
    1510:	809ff06f          	j	d18 <display_frame+0x36c>
    1514:	01014783          	lbu	a5,16(sp)
    1518:	03000713          	li	a4,48
    151c:	00e11223          	sh	a4,4(sp)
    1520:	3e078e63          	beqz	a5,191c <display_frame+0xf70>
    1524:	01010793          	addi	a5,sp,16
    1528:	0017c683          	lbu	a3,1(a5)
    152c:	00178793          	addi	a5,a5,1
    1530:	fe069ce3          	bnez	a3,1528 <display_frame+0xb7c>
    1534:	ac0710e3          	bnez	a4,ff4 <display_frame+0x648>
    1538:	ad5ff06f          	j	100c <display_frame+0x660>
    153c:	c57c12e3          	bne	s8,s7,1180 <display_frame+0x7d4>
    1540:	00070863          	beqz	a4,1550 <display_frame+0xba4>
    1544:	0017c703          	lbu	a4,1(a5)
    1548:	00178793          	addi	a5,a5,1
    154c:	fe071ce3          	bnez	a4,1544 <display_frame+0xb98>
    1550:	00005737          	lui	a4,0x5
    1554:	00070713          	mv	a4,a4
    1558:	05b00693          	li	a3,91
    155c:	00170713          	addi	a4,a4,1 # 5001 <CSWTCH.15+0x195>
    1560:	00d78023          	sb	a3,0(a5)
    1564:	00074683          	lbu	a3,0(a4)
    1568:	00178793          	addi	a5,a5,1
    156c:	fe0698e3          	bnez	a3,155c <display_frame+0xbb0>
    1570:	00078023          	sb	zero,0(a5)
    1574:	00160613          	addi	a2,a2,1
    1578:	02858593          	addi	a1,a1,40
    157c:	bea61ce3          	bne	a2,a0,1174 <display_frame+0x7c8>
    1580:	ca9ff06f          	j	1228 <display_frame+0x87c>
    1584:	11010793          	addi	a5,sp,272
    1588:	c75ff06f          	j	11fc <display_frame+0x850>
    158c:	00271713          	slli	a4,a4,0x2
    1590:	cb4c0793          	addi	a5,s8,-844 # 4cb4 <COLLECTIBLE_NAMES>
    1594:	00e787b3          	add	a5,a5,a4
    1598:	0007a683          	lw	a3,0(a5)
    159c:	01010793          	addi	a5,sp,16
    15a0:	00060863          	beqz	a2,15b0 <display_frame+0xc04>
    15a4:	0017c703          	lbu	a4,1(a5)
    15a8:	00178793          	addi	a5,a5,1
    15ac:	fe071ce3          	bnez	a4,15a4 <display_frame+0xbf8>
    15b0:	0006c703          	lbu	a4,0(a3)
    15b4:	da0704e3          	beqz	a4,135c <display_frame+0x9b0>
    15b8:	00e78023          	sb	a4,0(a5)
    15bc:	0016c703          	lbu	a4,1(a3)
    15c0:	00168693          	addi	a3,a3,1
    15c4:	00178793          	addi	a5,a5,1
    15c8:	fe0718e3          	bnez	a4,15b8 <display_frame+0xc0c>
    15cc:	00078023          	sb	zero,0(a5)
    15d0:	01014783          	lbu	a5,16(sp)
    15d4:	d8079ae3          	bnez	a5,1368 <display_frame+0x9bc>
    15d8:	01010793          	addi	a5,sp,16
    15dc:	d9dff06f          	j	1378 <display_frame+0x9cc>
    15e0:	11010793          	addi	a5,sp,272
    15e4:	c5dff06f          	j	1240 <display_frame+0x894>
    15e8:	01010793          	addi	a5,sp,16
    15ec:	cf5ff06f          	j	12e0 <display_frame+0x934>
    15f0:	ccccd7b7          	lui	a5,0xccccd
    15f4:	418006b3          	neg	a3,s8
    15f8:	ccd78793          	addi	a5,a5,-819 # cccccccd <_stack_end+0xccbc6875>
    15fc:	02f6b7b3          	mulhu	a5,a3,a5
    1600:	00100713          	li	a4,1
    1604:	0037d793          	srli	a5,a5,0x3
    1608:	00279613          	slli	a2,a5,0x2
    160c:	00f60633          	add	a2,a2,a5
    1610:	00161613          	slli	a2,a2,0x1
    1614:	40c686b3          	sub	a3,a3,a2
    1618:	03068693          	addi	a3,a3,48
    161c:	10d10823          	sb	a3,272(sp)
    1620:	f6079e63          	bnez	a5,d9c <display_frame+0x3f0>
    1624:	8d9ff06f          	j	efc <display_frame+0x550>
    1628:	01010793          	addi	a5,sp,16
    162c:	e09ff06f          	j	1434 <display_frame+0xa88>
    1630:	01010793          	addi	a5,sp,16
    1634:	dc9ff06f          	j	13fc <display_frame+0xa50>
    1638:	01010793          	addi	a5,sp,16
    163c:	aadff06f          	j	10e8 <display_frame+0x73c>
    1640:	01010793          	addi	a5,sp,16
    1644:	9e5ff06f          	j	1028 <display_frame+0x67c>
    1648:	01010793          	addi	a5,sp,16
    164c:	ee8ff06f          	j	d34 <display_frame+0x388>
    1650:	20068263          	beqz	a3,1854 <display_frame+0xea8>
    1654:	00400793          	li	a5,4
    1658:	00300713          	li	a4,3
    165c:	dacff06f          	j	c08 <display_frame+0x25c>
    1660:	20068863          	beqz	a3,1870 <display_frame+0xec4>
    1664:	00300793          	li	a5,3
    1668:	00200713          	li	a4,2
    166c:	d9cff06f          	j	c08 <display_frame+0x25c>
    1670:	16070263          	beqz	a4,17d4 <display_frame+0xe28>
    1674:	00400713          	li	a4,4
    1678:	00300793          	li	a5,3
    167c:	881ff06f          	j	efc <display_frame+0x550>
    1680:	12070c63          	beqz	a4,17b8 <display_frame+0xe0c>
    1684:	00300713          	li	a4,3
    1688:	00200793          	li	a5,2
    168c:	871ff06f          	j	efc <display_frame+0x550>
    1690:	18070c63          	beqz	a4,1828 <display_frame+0xe7c>
    1694:	00070793          	mv	a5,a4
    1698:	00200713          	li	a4,2
    169c:	861ff06f          	j	efc <display_frame+0x550>
    16a0:	11714703          	lbu	a4,279(sp)
    16a4:	0ff6f693          	zext.b	a3,a3
    16a8:	00f10223          	sb	a5,4(sp)
    16ac:	00e10323          	sb	a4,6(sp)
    16b0:	00d102a3          	sb	a3,5(sp)
    16b4:	00a00713          	li	a4,10
    16b8:	885ff06f          	j	f3c <display_frame+0x590>
    16bc:	0ff77693          	zext.b	a3,a4
    16c0:	11714703          	lbu	a4,279(sp)
    16c4:	00f10223          	sb	a5,4(sp)
    16c8:	00d102a3          	sb	a3,5(sp)
    16cc:	00e10323          	sb	a4,6(sp)
    16d0:	00a00793          	li	a5,10
    16d4:	d74ff06f          	j	c48 <display_frame+0x29c>
    16d8:	1c068863          	beqz	a3,18a8 <display_frame+0xefc>
    16dc:	00600793          	li	a5,6
    16e0:	00500713          	li	a4,5
    16e4:	d24ff06f          	j	c08 <display_frame+0x25c>
    16e8:	00400793          	li	a5,4
    16ec:	df8ff06f          	j	ce4 <display_frame+0x338>
    16f0:	11014783          	lbu	a5,272(sp)
    16f4:	00e10223          	sb	a4,4(sp)
    16f8:	00f102a3          	sb	a5,5(sp)
    16fc:	00200793          	li	a5,2
    1700:	de4ff06f          	j	ce4 <display_frame+0x338>
    1704:	18068463          	beqz	a3,188c <display_frame+0xee0>
    1708:	00500793          	li	a5,5
    170c:	00400713          	li	a4,4
    1710:	cf8ff06f          	j	c08 <display_frame+0x25c>
    1714:	00d10223          	sb	a3,4(sp)
    1718:	00100793          	li	a5,1
    171c:	8bdff06f          	j	fd8 <display_frame+0x62c>
    1720:	08071063          	bnez	a4,17a0 <display_frame+0xdf4>
    1724:	11214703          	lbu	a4,274(sp)
    1728:	11314683          	lbu	a3,275(sp)
    172c:	00f10223          	sb	a5,4(sp)
    1730:	00e10323          	sb	a4,6(sp)
    1734:	00d102a3          	sb	a3,5(sp)
    1738:	00500713          	li	a4,5
    173c:	801ff06f          	j	f3c <display_frame+0x590>
    1740:	02071a63          	bnez	a4,1774 <display_frame+0xdc8>
    1744:	11314703          	lbu	a4,275(sp)
    1748:	11414683          	lbu	a3,276(sp)
    174c:	00f10223          	sb	a5,4(sp)
    1750:	00e10323          	sb	a4,6(sp)
    1754:	00d102a3          	sb	a3,5(sp)
    1758:	00600713          	li	a4,6
    175c:	fe0ff06f          	j	f3c <display_frame+0x590>
    1760:	00400793          	li	a5,4
    1764:	875ff06f          	j	fd8 <display_frame+0x62c>
    1768:	00f10223          	sb	a5,4(sp)
    176c:	00100793          	li	a5,1
    1770:	d74ff06f          	j	ce4 <display_frame+0x338>
    1774:	00600713          	li	a4,6
    1778:	00500793          	li	a5,5
    177c:	f80ff06f          	j	efc <display_frame+0x550>
    1780:	02071663          	bnez	a4,17ac <display_frame+0xe00>
    1784:	11514703          	lbu	a4,277(sp)
    1788:	11614683          	lbu	a3,278(sp)
    178c:	00f10223          	sb	a5,4(sp)
    1790:	00e10323          	sb	a4,6(sp)
    1794:	00d102a3          	sb	a3,5(sp)
    1798:	00800713          	li	a4,8
    179c:	fa0ff06f          	j	f3c <display_frame+0x590>
    17a0:	00500713          	li	a4,5
    17a4:	00400793          	li	a5,4
    17a8:	f54ff06f          	j	efc <display_frame+0x550>
    17ac:	00800713          	li	a4,8
    17b0:	00700793          	li	a5,7
    17b4:	f48ff06f          	j	efc <display_frame+0x550>
    17b8:	11114683          	lbu	a3,273(sp)
    17bc:	11014703          	lbu	a4,272(sp)
    17c0:	00f10223          	sb	a5,4(sp)
    17c4:	00d102a3          	sb	a3,5(sp)
    17c8:	00e10323          	sb	a4,6(sp)
    17cc:	00300793          	li	a5,3
    17d0:	809ff06f          	j	fd8 <display_frame+0x62c>
    17d4:	11114703          	lbu	a4,273(sp)
    17d8:	11214683          	lbu	a3,274(sp)
    17dc:	00f10223          	sb	a5,4(sp)
    17e0:	00e10323          	sb	a4,6(sp)
    17e4:	00d102a3          	sb	a3,5(sp)
    17e8:	00400713          	li	a4,4
    17ec:	f50ff06f          	j	f3c <display_frame+0x590>
    17f0:	00800793          	li	a5,8
    17f4:	cf0ff06f          	j	ce4 <display_frame+0x338>
    17f8:	00700793          	li	a5,7
    17fc:	ce8ff06f          	j	ce4 <display_frame+0x338>
    1800:	00600793          	li	a5,6
    1804:	ce0ff06f          	j	ce4 <display_frame+0x338>
    1808:	00500793          	li	a5,5
    180c:	cd8ff06f          	j	ce4 <display_frame+0x338>
    1810:	00700793          	li	a5,7
    1814:	fc4ff06f          	j	fd8 <display_frame+0x62c>
    1818:	00800793          	li	a5,8
    181c:	fbcff06f          	j	fd8 <display_frame+0x62c>
    1820:	00900793          	li	a5,9
    1824:	fb4ff06f          	j	fd8 <display_frame+0x62c>
    1828:	11014703          	lbu	a4,272(sp)
    182c:	00f10223          	sb	a5,4(sp)
    1830:	00e102a3          	sb	a4,5(sp)
    1834:	00200793          	li	a5,2
    1838:	fa0ff06f          	j	fd8 <display_frame+0x62c>
    183c:	00600793          	li	a5,6
    1840:	f98ff06f          	j	fd8 <display_frame+0x62c>
    1844:	00a00793          	li	a5,10
    1848:	c9cff06f          	j	ce4 <display_frame+0x338>
    184c:	00900793          	li	a5,9
    1850:	c94ff06f          	j	ce4 <display_frame+0x338>
    1854:	11214683          	lbu	a3,274(sp)
    1858:	11114703          	lbu	a4,273(sp)
    185c:	00f10223          	sb	a5,4(sp)
    1860:	00d102a3          	sb	a3,5(sp)
    1864:	00e10323          	sb	a4,6(sp)
    1868:	00400793          	li	a5,4
    186c:	bdcff06f          	j	c48 <display_frame+0x29c>
    1870:	11114683          	lbu	a3,273(sp)
    1874:	11014703          	lbu	a4,272(sp)
    1878:	00f10223          	sb	a5,4(sp)
    187c:	00d102a3          	sb	a3,5(sp)
    1880:	00e10323          	sb	a4,6(sp)
    1884:	00300793          	li	a5,3
    1888:	c5cff06f          	j	ce4 <display_frame+0x338>
    188c:	11314683          	lbu	a3,275(sp)
    1890:	11214703          	lbu	a4,274(sp)
    1894:	00f10223          	sb	a5,4(sp)
    1898:	00d102a3          	sb	a3,5(sp)
    189c:	00e10323          	sb	a4,6(sp)
    18a0:	00500793          	li	a5,5
    18a4:	ba4ff06f          	j	c48 <display_frame+0x29c>
    18a8:	11414683          	lbu	a3,276(sp)
    18ac:	11314703          	lbu	a4,275(sp)
    18b0:	00f10223          	sb	a5,4(sp)
    18b4:	00d102a3          	sb	a3,5(sp)
    18b8:	00e10323          	sb	a4,6(sp)
    18bc:	00600793          	li	a5,6
    18c0:	b88ff06f          	j	c48 <display_frame+0x29c>
    18c4:	02068863          	beqz	a3,18f4 <display_frame+0xf48>
    18c8:	00900793          	li	a5,9
    18cc:	00800713          	li	a4,8
    18d0:	b38ff06f          	j	c08 <display_frame+0x25c>
    18d4:	02071e63          	bnez	a4,1910 <display_frame+0xf64>
    18d8:	11714703          	lbu	a4,279(sp)
    18dc:	11614783          	lbu	a5,278(sp)
    18e0:	00d10223          	sb	a3,4(sp)
    18e4:	00e102a3          	sb	a4,5(sp)
    18e8:	00f10323          	sb	a5,6(sp)
    18ec:	00900713          	li	a4,9
    18f0:	e4cff06f          	j	f3c <display_frame+0x590>
    18f4:	11614783          	lbu	a5,278(sp)
    18f8:	11714683          	lbu	a3,279(sp)
    18fc:	00e10223          	sb	a4,4(sp)
    1900:	00f10323          	sb	a5,6(sp)
    1904:	00d102a3          	sb	a3,5(sp)
    1908:	00900793          	li	a5,9
    190c:	b3cff06f          	j	c48 <display_frame+0x29c>
    1910:	00900713          	li	a4,9
    1914:	00800793          	li	a5,8
    1918:	de4ff06f          	j	efc <display_frame+0x550>
    191c:	01010793          	addi	a5,sp,16
    1920:	ed4ff06f          	j	ff4 <display_frame+0x648>
    1924:	04071863          	bnez	a4,1974 <display_frame+0xfc8>
    1928:	11414703          	lbu	a4,276(sp)
    192c:	11514683          	lbu	a3,277(sp)
    1930:	00f10223          	sb	a5,4(sp)
    1934:	00e10323          	sb	a4,6(sp)
    1938:	00d102a3          	sb	a3,5(sp)
    193c:	00700713          	li	a4,7
    1940:	dfcff06f          	j	f3c <display_frame+0x590>
    1944:	01010793          	addi	a5,sp,16
    1948:	bb8ff06f          	j	d00 <display_frame+0x354>
    194c:	00100793          	li	a5,1
    1950:	ab8ff06f          	j	c08 <display_frame+0x25c>
    1954:	02068e63          	beqz	a3,1990 <display_frame+0xfe4>
    1958:	00800793          	li	a5,8
    195c:	00700713          	li	a4,7
    1960:	aa8ff06f          	j	c08 <display_frame+0x25c>
    1964:	00a00793          	li	a5,10
    1968:	e70ff06f          	j	fd8 <display_frame+0x62c>
    196c:	00500793          	li	a5,5
    1970:	e68ff06f          	j	fd8 <display_frame+0x62c>
    1974:	00700713          	li	a4,7
    1978:	00600793          	li	a5,6
    197c:	d80ff06f          	j	efc <display_frame+0x550>
    1980:	02068663          	beqz	a3,19ac <display_frame+0x1000>
    1984:	00700793          	li	a5,7
    1988:	00600713          	li	a4,6
    198c:	a7cff06f          	j	c08 <display_frame+0x25c>
    1990:	11614683          	lbu	a3,278(sp)
    1994:	11514703          	lbu	a4,277(sp)
    1998:	00f10223          	sb	a5,4(sp)
    199c:	00d102a3          	sb	a3,5(sp)
    19a0:	00e10323          	sb	a4,6(sp)
    19a4:	00800793          	li	a5,8
    19a8:	aa0ff06f          	j	c48 <display_frame+0x29c>
    19ac:	11514683          	lbu	a3,277(sp)
    19b0:	11414703          	lbu	a4,276(sp)
    19b4:	00f10223          	sb	a5,4(sp)
    19b8:	00d102a3          	sb	a3,5(sp)
    19bc:	00e10323          	sb	a4,6(sp)
    19c0:	00700793          	li	a5,7
    19c4:	a84ff06f          	j	c48 <display_frame+0x29c>

000019c8 <wait_for_yes_no>:
    19c8:	00005537          	lui	a0,0x5
    19cc:	ff010113          	addi	sp,sp,-16
    19d0:	17050513          	addi	a0,a0,368 # 5170 <CSWTCH.15+0x304>
    19d4:	00112623          	sw	ra,12(sp)
    19d8:	629020ef          	jal	4800 <print>
    19dc:	0080006f          	j	19e4 <wait_for_yes_no+0x1c>
    19e0:	00079a63          	bnez	a5,19f4 <wait_for_yes_no+0x2c>
    19e4:	72d010ef          	jal	3910 <get_sw>
    19e8:	00157713          	andi	a4,a0,1
    19ec:	00257793          	andi	a5,a0,2
    19f0:	fe0708e3          	beqz	a4,19e0 <wait_for_yes_no+0x18>
    19f4:	00c12083          	lw	ra,12(sp)
    19f8:	00070513          	mv	a0,a4
    19fc:	01010113          	addi	sp,sp,16
    1a00:	00008067          	ret

00001a04 <wait_for_exit>:
    1a04:	ff010113          	addi	sp,sp,-16
    1a08:	00112623          	sw	ra,12(sp)
    1a0c:	02050063          	beqz	a0,1a2c <wait_for_exit+0x28>
    1a10:	5f1020ef          	jal	4800 <print>
    1a14:	6fd010ef          	jal	3910 <get_sw>
    1a18:	00857513          	andi	a0,a0,8
    1a1c:	fe050ce3          	beqz	a0,1a14 <wait_for_exit+0x10>
    1a20:	00c12083          	lw	ra,12(sp)
    1a24:	01010113          	addi	sp,sp,16
    1a28:	00008067          	ret
    1a2c:	00005537          	lui	a0,0x5
    1a30:	19450513          	addi	a0,a0,404 # 5194 <CSWTCH.15+0x328>
    1a34:	fddff06f          	j	1a10 <wait_for_exit+0xc>

00001a38 <interact_with_tile>:
    1a38:	ed010113          	addi	sp,sp,-304
    1a3c:	13212023          	sw	s2,288(sp)
    1a40:	0005a903          	lw	s2,0(a1)
    1a44:	12112623          	sw	ra,300(sp)
    1a48:	00f00793          	li	a5,15
    1a4c:	6f27ee63          	bltu	a5,s2,2148 <interact_with_tile+0x710>
    1a50:	00005737          	lui	a4,0x5
    1a54:	dac70713          	addi	a4,a4,-596 # 4dac <timeoutcount+0x4>
    1a58:	00291793          	slli	a5,s2,0x2
    1a5c:	00e787b3          	add	a5,a5,a4
    1a60:	0007a783          	lw	a5,0(a5)
    1a64:	12812423          	sw	s0,296(sp)
    1a68:	12912223          	sw	s1,292(sp)
    1a6c:	00058413          	mv	s0,a1
    1a70:	00050493          	mv	s1,a0
    1a74:	00078067          	jr	a5
    1a78:	00006537          	lui	a0,0x6
    1a7c:	8ac50513          	addi	a0,a0,-1876 # 58ac <__global_pointer+0x32c>
    1a80:	581020ef          	jal	4800 <print>
    1a84:	00005537          	lui	a0,0x5
    1a88:	17050513          	addi	a0,a0,368 # 5170 <CSWTCH.15+0x304>
    1a8c:	575020ef          	jal	4800 <print>
    1a90:	00c0006f          	j	1a9c <interact_with_tile+0x64>
    1a94:	00257793          	andi	a5,a0,2
    1a98:	02079463          	bnez	a5,1ac0 <interact_with_tile+0x88>
    1a9c:	675010ef          	jal	3910 <get_sw>
    1aa0:	00157793          	andi	a5,a0,1
    1aa4:	fe0788e3          	beqz	a5,1a94 <interact_with_tile+0x5c>
    1aa8:	00006537          	lui	a0,0x6
    1aac:	b0850513          	addi	a0,a0,-1272 # 5b08 <__global_pointer+0x588>
    1ab0:	551020ef          	jal	4800 <print>
    1ab4:	00048513          	mv	a0,s1
    1ab8:	00600593          	li	a1,6
    1abc:	7f5010ef          	jal	3ab0 <add_to_inventory>
    1ac0:	00005537          	lui	a0,0x5
    1ac4:	19450513          	addi	a0,a0,404 # 5194 <CSWTCH.15+0x328>
    1ac8:	539020ef          	jal	4800 <print>
    1acc:	645010ef          	jal	3910 <get_sw>
    1ad0:	00857513          	andi	a0,a0,8
    1ad4:	fe050ce3          	beqz	a0,1acc <interact_with_tile+0x94>
    1ad8:	12812403          	lw	s0,296(sp)
    1adc:	12412483          	lw	s1,292(sp)
    1ae0:	12c12083          	lw	ra,300(sp)
    1ae4:	12012903          	lw	s2,288(sp)
    1ae8:	13010113          	addi	sp,sp,304
    1aec:	00008067          	ret
    1af0:	00005537          	lui	a0,0x5
    1af4:	1ac50513          	addi	a0,a0,428 # 51ac <CSWTCH.15+0x340>
    1af8:	509020ef          	jal	4800 <print>
    1afc:	00005537          	lui	a0,0x5
    1b00:	1bc50513          	addi	a0,a0,444 # 51bc <CSWTCH.15+0x350>
    1b04:	4fd020ef          	jal	4800 <print>
    1b08:	00005537          	lui	a0,0x5
    1b0c:	1d850513          	addi	a0,a0,472 # 51d8 <CSWTCH.15+0x36c>
    1b10:	4f1020ef          	jal	4800 <print>
    1b14:	00005537          	lui	a0,0x5
    1b18:	20850513          	addi	a0,a0,520 # 5208 <CSWTCH.15+0x39c>
    1b1c:	4e5020ef          	jal	4800 <print>
    1b20:	00005537          	lui	a0,0x5
    1b24:	23850513          	addi	a0,a0,568 # 5238 <CSWTCH.15+0x3cc>
    1b28:	4d9020ef          	jal	4800 <print>
    1b2c:	00005537          	lui	a0,0x5
    1b30:	25050513          	addi	a0,a0,592 # 5250 <CSWTCH.15+0x3e4>
    1b34:	4cd020ef          	jal	4800 <print>
    1b38:	01c0006f          	j	1b54 <interact_with_tile+0x11c>
    1b3c:	00157793          	andi	a5,a0,1
    1b40:	04079ee3          	bnez	a5,239c <interact_with_tile+0x964>
    1b44:	00257793          	andi	a5,a0,2
    1b48:	06079ee3          	bnez	a5,23c4 <interact_with_tile+0x98c>
    1b4c:	00457793          	andi	a5,a0,4
    1b50:	2a0796e3          	bnez	a5,25fc <interact_with_tile+0xbc4>
    1b54:	5bd010ef          	jal	3910 <get_sw>
    1b58:	00857793          	andi	a5,a0,8
    1b5c:	fe0780e3          	beqz	a5,1b3c <interact_with_tile+0x104>
    1b60:	12812403          	lw	s0,296(sp)
    1b64:	12412483          	lw	s1,292(sp)
    1b68:	12c12083          	lw	ra,300(sp)
    1b6c:	12012903          	lw	s2,288(sp)
    1b70:	00005537          	lui	a0,0x5
    1b74:	27850513          	addi	a0,a0,632 # 5278 <CSWTCH.15+0x40c>
    1b78:	13010113          	addi	sp,sp,304
    1b7c:	4850206f          	j	4800 <print>
    1b80:	00005537          	lui	a0,0x5
    1b84:	68850513          	addi	a0,a0,1672 # 5688 <__global_pointer+0x108>
    1b88:	479020ef          	jal	4800 <print>
    1b8c:	00400693          	li	a3,4
    1b90:	000057b7          	lui	a5,0x5
    1b94:	da07a703          	lw	a4,-608(a5) # 4da0 <timer_event>
    1b98:	fe070ee3          	beqz	a4,1b94 <interact_with_tile+0x15c>
    1b9c:	da07a023          	sw	zero,-608(a5)
    1ba0:	fff68693          	addi	a3,a3,-1
    1ba4:	fe0698e3          	bnez	a3,1b94 <interact_with_tile+0x15c>
    1ba8:	00005537          	lui	a0,0x5
    1bac:	6b050513          	addi	a0,a0,1712 # 56b0 <__global_pointer+0x130>
    1bb0:	451020ef          	jal	4800 <print>
    1bb4:	00005537          	lui	a0,0x5
    1bb8:	17050513          	addi	a0,a0,368 # 5170 <CSWTCH.15+0x304>
    1bbc:	445020ef          	jal	4800 <print>
    1bc0:	00c0006f          	j	1bcc <interact_with_tile+0x194>
    1bc4:	00257513          	andi	a0,a0,2
    1bc8:	02051463          	bnez	a0,1bf0 <interact_with_tile+0x1b8>
    1bcc:	545010ef          	jal	3910 <get_sw>
    1bd0:	00157793          	andi	a5,a0,1
    1bd4:	fe0788e3          	beqz	a5,1bc4 <interact_with_tile+0x18c>
    1bd8:	00006537          	lui	a0,0x6
    1bdc:	96850513          	addi	a0,a0,-1688 # 5968 <__global_pointer+0x3e8>
    1be0:	421020ef          	jal	4800 <print>
    1be4:	00048513          	mv	a0,s1
    1be8:	00b00593          	li	a1,11
    1bec:	6c5010ef          	jal	3ab0 <add_to_inventory>
    1bf0:	00005537          	lui	a0,0x5
    1bf4:	19450513          	addi	a0,a0,404 # 5194 <CSWTCH.15+0x328>
    1bf8:	409020ef          	jal	4800 <print>
    1bfc:	515010ef          	jal	3910 <get_sw>
    1c00:	00857513          	andi	a0,a0,8
    1c04:	fe050ce3          	beqz	a0,1bfc <interact_with_tile+0x1c4>
    1c08:	ed1ff06f          	j	1ad8 <interact_with_tile+0xa0>
    1c0c:	00005537          	lui	a0,0x5
    1c10:	50450513          	addi	a0,a0,1284 # 5504 <CSWTCH.15+0x698>
    1c14:	3ed020ef          	jal	4800 <print>
    1c18:	00005537          	lui	a0,0x5
    1c1c:	17050513          	addi	a0,a0,368 # 5170 <CSWTCH.15+0x304>
    1c20:	3e1020ef          	jal	4800 <print>
    1c24:	00c0006f          	j	1c30 <interact_with_tile+0x1f8>
    1c28:	00257513          	andi	a0,a0,2
    1c2c:	6a051663          	bnez	a0,22d8 <interact_with_tile+0x8a0>
    1c30:	4e1010ef          	jal	3910 <get_sw>
    1c34:	00157793          	andi	a5,a0,1
    1c38:	fe0788e3          	beqz	a5,1c28 <interact_with_tile+0x1f0>
    1c3c:	00048513          	mv	a0,s1
    1c40:	00700593          	li	a1,7
    1c44:	66d010ef          	jal	3ab0 <add_to_inventory>
    1c48:	00005537          	lui	a0,0x5
    1c4c:	19450513          	addi	a0,a0,404 # 5194 <CSWTCH.15+0x328>
    1c50:	3b1020ef          	jal	4800 <print>
    1c54:	4bd010ef          	jal	3910 <get_sw>
    1c58:	00857513          	andi	a0,a0,8
    1c5c:	fe050ce3          	beqz	a0,1c54 <interact_with_tile+0x21c>
    1c60:	e79ff06f          	j	1ad8 <interact_with_tile+0xa0>
    1c64:	00005537          	lui	a0,0x5
    1c68:	7b450513          	addi	a0,a0,1972 # 57b4 <__global_pointer+0x234>
    1c6c:	395020ef          	jal	4800 <print>
    1c70:	00400693          	li	a3,4
    1c74:	000057b7          	lui	a5,0x5
    1c78:	da07a703          	lw	a4,-608(a5) # 4da0 <timer_event>
    1c7c:	fe070ee3          	beqz	a4,1c78 <interact_with_tile+0x240>
    1c80:	da07a023          	sw	zero,-608(a5)
    1c84:	fff68693          	addi	a3,a3,-1
    1c88:	fe0698e3          	bnez	a3,1c78 <interact_with_tile+0x240>
    1c8c:	00c4a703          	lw	a4,12(s1)
    1c90:	00005537          	lui	a0,0x5
    1c94:	19450513          	addi	a0,a0,404 # 5194 <CSWTCH.15+0x328>
    1c98:	01f75793          	srli	a5,a4,0x1f
    1c9c:	00e787b3          	add	a5,a5,a4
    1ca0:	4017d793          	srai	a5,a5,0x1
    1ca4:	00f4a623          	sw	a5,12(s1)
    1ca8:	359020ef          	jal	4800 <print>
    1cac:	465010ef          	jal	3910 <get_sw>
    1cb0:	00857513          	andi	a0,a0,8
    1cb4:	fe050ce3          	beqz	a0,1cac <interact_with_tile+0x274>
    1cb8:	e21ff06f          	j	1ad8 <interact_with_tile+0xa0>
    1cbc:	00006537          	lui	a0,0x6
    1cc0:	81850513          	addi	a0,a0,-2024 # 5818 <__global_pointer+0x298>
    1cc4:	33d020ef          	jal	4800 <print>
    1cc8:	00005537          	lui	a0,0x5
    1ccc:	17050513          	addi	a0,a0,368 # 5170 <CSWTCH.15+0x304>
    1cd0:	331020ef          	jal	4800 <print>
    1cd4:	00c0006f          	j	1ce0 <interact_with_tile+0x2a8>
    1cd8:	00257513          	andi	a0,a0,2
    1cdc:	04051263          	bnez	a0,1d20 <interact_with_tile+0x2e8>
    1ce0:	431010ef          	jal	3910 <get_sw>
    1ce4:	00157793          	andi	a5,a0,1
    1ce8:	fe0788e3          	beqz	a5,1cd8 <interact_with_tile+0x2a0>
    1cec:	00006537          	lui	a0,0x6
    1cf0:	a5c50513          	addi	a0,a0,-1444 # 5a5c <__global_pointer+0x4dc>
    1cf4:	30d020ef          	jal	4800 <print>
    1cf8:	00400693          	li	a3,4
    1cfc:	000057b7          	lui	a5,0x5
    1d00:	da07a703          	lw	a4,-608(a5) # 4da0 <timer_event>
    1d04:	fe070ee3          	beqz	a4,1d00 <interact_with_tile+0x2c8>
    1d08:	da07a023          	sw	zero,-608(a5)
    1d0c:	fff68693          	addi	a3,a3,-1
    1d10:	fe0698e3          	bnez	a3,1d00 <interact_with_tile+0x2c8>
    1d14:	00048513          	mv	a0,s1
    1d18:	00400593          	li	a1,4
    1d1c:	595010ef          	jal	3ab0 <add_to_inventory>
    1d20:	00005537          	lui	a0,0x5
    1d24:	19450513          	addi	a0,a0,404 # 5194 <CSWTCH.15+0x328>
    1d28:	2d9020ef          	jal	4800 <print>
    1d2c:	3e5010ef          	jal	3910 <get_sw>
    1d30:	00857513          	andi	a0,a0,8
    1d34:	fe050ce3          	beqz	a0,1d2c <interact_with_tile+0x2f4>
    1d38:	da1ff06f          	j	1ad8 <interact_with_tile+0xa0>
    1d3c:	00006537          	lui	a0,0x6
    1d40:	84050513          	addi	a0,a0,-1984 # 5840 <__global_pointer+0x2c0>
    1d44:	2bd020ef          	jal	4800 <print>
    1d48:	00005537          	lui	a0,0x5
    1d4c:	17050513          	addi	a0,a0,368 # 5170 <CSWTCH.15+0x304>
    1d50:	2b1020ef          	jal	4800 <print>
    1d54:	00c0006f          	j	1d60 <interact_with_tile+0x328>
    1d58:	00257513          	andi	a0,a0,2
    1d5c:	02051463          	bnez	a0,1d84 <interact_with_tile+0x34c>
    1d60:	3b1010ef          	jal	3910 <get_sw>
    1d64:	00157793          	andi	a5,a0,1
    1d68:	fe0788e3          	beqz	a5,1d58 <interact_with_tile+0x320>
    1d6c:	00006537          	lui	a0,0x6
    1d70:	a8c50513          	addi	a0,a0,-1396 # 5a8c <__global_pointer+0x50c>
    1d74:	28d020ef          	jal	4800 <print>
    1d78:	00048513          	mv	a0,s1
    1d7c:	00200593          	li	a1,2
    1d80:	531010ef          	jal	3ab0 <add_to_inventory>
    1d84:	00005537          	lui	a0,0x5
    1d88:	19450513          	addi	a0,a0,404 # 5194 <CSWTCH.15+0x328>
    1d8c:	275020ef          	jal	4800 <print>
    1d90:	381010ef          	jal	3910 <get_sw>
    1d94:	00857513          	andi	a0,a0,8
    1d98:	fe050ce3          	beqz	a0,1d90 <interact_with_tile+0x358>
    1d9c:	d3dff06f          	j	1ad8 <interact_with_tile+0xa0>
    1da0:	00006537          	lui	a0,0x6
    1da4:	87450513          	addi	a0,a0,-1932 # 5874 <__global_pointer+0x2f4>
    1da8:	259020ef          	jal	4800 <print>
    1dac:	00005537          	lui	a0,0x5
    1db0:	17050513          	addi	a0,a0,368 # 5170 <CSWTCH.15+0x304>
    1db4:	24d020ef          	jal	4800 <print>
    1db8:	00c0006f          	j	1dc4 <interact_with_tile+0x38c>
    1dbc:	00257513          	andi	a0,a0,2
    1dc0:	02051463          	bnez	a0,1de8 <interact_with_tile+0x3b0>
    1dc4:	34d010ef          	jal	3910 <get_sw>
    1dc8:	00157793          	andi	a5,a0,1
    1dcc:	fe0788e3          	beqz	a5,1dbc <interact_with_tile+0x384>
    1dd0:	00006537          	lui	a0,0x6
    1dd4:	acc50513          	addi	a0,a0,-1332 # 5acc <__global_pointer+0x54c>
    1dd8:	229020ef          	jal	4800 <print>
    1ddc:	00048513          	mv	a0,s1
    1de0:	00300593          	li	a1,3
    1de4:	4cd010ef          	jal	3ab0 <add_to_inventory>
    1de8:	00005537          	lui	a0,0x5
    1dec:	19450513          	addi	a0,a0,404 # 5194 <CSWTCH.15+0x328>
    1df0:	211020ef          	jal	4800 <print>
    1df4:	31d010ef          	jal	3910 <get_sw>
    1df8:	00857513          	andi	a0,a0,8
    1dfc:	fe050ce3          	beqz	a0,1df4 <interact_with_tile+0x3bc>
    1e00:	cd9ff06f          	j	1ad8 <interact_with_tile+0xa0>
    1e04:	00005537          	lui	a0,0x5
    1e08:	73850513          	addi	a0,a0,1848 # 5738 <__global_pointer+0x1b8>
    1e0c:	1f5020ef          	jal	4800 <print>
    1e10:	00400693          	li	a3,4
    1e14:	000057b7          	lui	a5,0x5
    1e18:	da07a703          	lw	a4,-608(a5) # 4da0 <timer_event>
    1e1c:	fe070ee3          	beqz	a4,1e18 <interact_with_tile+0x3e0>
    1e20:	da07a023          	sw	zero,-608(a5)
    1e24:	fff68693          	addi	a3,a3,-1
    1e28:	fe0698e3          	bnez	a3,1e18 <interact_with_tile+0x3e0>
    1e2c:	0084a703          	lw	a4,8(s1)
    1e30:	00005537          	lui	a0,0x5
    1e34:	19450513          	addi	a0,a0,404 # 5194 <CSWTCH.15+0x328>
    1e38:	01f75793          	srli	a5,a4,0x1f
    1e3c:	00e787b3          	add	a5,a5,a4
    1e40:	4017d793          	srai	a5,a5,0x1
    1e44:	00f4a423          	sw	a5,8(s1)
    1e48:	1b9020ef          	jal	4800 <print>
    1e4c:	2c5010ef          	jal	3910 <get_sw>
    1e50:	00857513          	andi	a0,a0,8
    1e54:	fe050ce3          	beqz	a0,1e4c <interact_with_tile+0x414>
    1e58:	c81ff06f          	j	1ad8 <interact_with_tile+0xa0>
    1e5c:	00005537          	lui	a0,0x5
    1e60:	6e050513          	addi	a0,a0,1760 # 56e0 <__global_pointer+0x160>
    1e64:	19d020ef          	jal	4800 <print>
    1e68:	00400693          	li	a3,4
    1e6c:	000057b7          	lui	a5,0x5
    1e70:	da07a703          	lw	a4,-608(a5) # 4da0 <timer_event>
    1e74:	fe070ee3          	beqz	a4,1e70 <interact_with_tile+0x438>
    1e78:	da07a023          	sw	zero,-608(a5)
    1e7c:	fff68693          	addi	a3,a3,-1
    1e80:	fe0698e3          	bnez	a3,1e70 <interact_with_tile+0x438>
    1e84:	0044a783          	lw	a5,4(s1)
    1e88:	04079e63          	bnez	a5,1ee4 <interact_with_tile+0x4ac>
    1e8c:	0004a703          	lw	a4,0(s1)
    1e90:	00400793          	li	a5,4
    1e94:	06f71263          	bne	a4,a5,1ef8 <interact_with_tile+0x4c0>
    1e98:	00005537          	lui	a0,0x5
    1e9c:	70c50513          	addi	a0,a0,1804 # 570c <__global_pointer+0x18c>
    1ea0:	161020ef          	jal	4800 <print>
    1ea4:	00005537          	lui	a0,0x5
    1ea8:	17050513          	addi	a0,a0,368 # 5170 <CSWTCH.15+0x304>
    1eac:	155020ef          	jal	4800 <print>
    1eb0:	00c0006f          	j	1ebc <interact_with_tile+0x484>
    1eb4:	00257513          	andi	a0,a0,2
    1eb8:	02051463          	bnez	a0,1ee0 <interact_with_tile+0x4a8>
    1ebc:	255010ef          	jal	3910 <get_sw>
    1ec0:	00157793          	andi	a5,a0,1
    1ec4:	fe0788e3          	beqz	a5,1eb4 <interact_with_tile+0x47c>
    1ec8:	00006537          	lui	a0,0x6
    1ecc:	9ec50513          	addi	a0,a0,-1556 # 59ec <__global_pointer+0x46c>
    1ed0:	131020ef          	jal	4800 <print>
    1ed4:	00048513          	mv	a0,s1
    1ed8:	00a00593          	li	a1,10
    1edc:	3d5010ef          	jal	3ab0 <add_to_inventory>
    1ee0:	0044a783          	lw	a5,4(s1)
    1ee4:	00700713          	li	a4,7
    1ee8:	00e79863          	bne	a5,a4,1ef8 <interact_with_tile+0x4c0>
    1eec:	0004a703          	lw	a4,0(s1)
    1ef0:	00100793          	li	a5,1
    1ef4:	20f70ee3          	beq	a4,a5,2910 <interact_with_tile+0xed8>
    1ef8:	00005537          	lui	a0,0x5
    1efc:	19450513          	addi	a0,a0,404 # 5194 <CSWTCH.15+0x328>
    1f00:	101020ef          	jal	4800 <print>
    1f04:	20d010ef          	jal	3910 <get_sw>
    1f08:	00857513          	andi	a0,a0,8
    1f0c:	fe050ce3          	beqz	a0,1f04 <interact_with_tile+0x4cc>
    1f10:	bc9ff06f          	j	1ad8 <interact_with_tile+0xa0>
    1f14:	00005537          	lui	a0,0x5
    1f18:	77850513          	addi	a0,a0,1912 # 5778 <__global_pointer+0x1f8>
    1f1c:	0e5020ef          	jal	4800 <print>
    1f20:	00005537          	lui	a0,0x5
    1f24:	17050513          	addi	a0,a0,368 # 5170 <CSWTCH.15+0x304>
    1f28:	0d9020ef          	jal	4800 <print>
    1f2c:	00c0006f          	j	1f38 <interact_with_tile+0x500>
    1f30:	00257513          	andi	a0,a0,2
    1f34:	02051463          	bnez	a0,1f5c <interact_with_tile+0x524>
    1f38:	1d9010ef          	jal	3910 <get_sw>
    1f3c:	00157793          	andi	a5,a0,1
    1f40:	fe0788e3          	beqz	a5,1f30 <interact_with_tile+0x4f8>
    1f44:	00006537          	lui	a0,0x6
    1f48:	a1c50513          	addi	a0,a0,-1508 # 5a1c <__global_pointer+0x49c>
    1f4c:	0b5020ef          	jal	4800 <print>
    1f50:	00048513          	mv	a0,s1
    1f54:	00100593          	li	a1,1
    1f58:	359010ef          	jal	3ab0 <add_to_inventory>
    1f5c:	00005537          	lui	a0,0x5
    1f60:	19450513          	addi	a0,a0,404 # 5194 <CSWTCH.15+0x328>
    1f64:	09d020ef          	jal	4800 <print>
    1f68:	1a9010ef          	jal	3910 <get_sw>
    1f6c:	00857513          	andi	a0,a0,8
    1f70:	fe050ce3          	beqz	a0,1f68 <interact_with_tile+0x530>
    1f74:	b65ff06f          	j	1ad8 <interact_with_tile+0xa0>
    1f78:	00005537          	lui	a0,0x5
    1f7c:	3cc50513          	addi	a0,a0,972 # 53cc <CSWTCH.15+0x560>
    1f80:	081020ef          	jal	4800 <print>
    1f84:	00005537          	lui	a0,0x5
    1f88:	17050513          	addi	a0,a0,368 # 5170 <CSWTCH.15+0x304>
    1f8c:	075020ef          	jal	4800 <print>
    1f90:	00c0006f          	j	1f9c <interact_with_tile+0x564>
    1f94:	00257513          	andi	a0,a0,2
    1f98:	36051663          	bnez	a0,2304 <interact_with_tile+0x8cc>
    1f9c:	175010ef          	jal	3910 <get_sw>
    1fa0:	00157793          	andi	a5,a0,1
    1fa4:	fe0788e3          	beqz	a5,1f94 <interact_with_tile+0x55c>
    1fa8:	00006537          	lui	a0,0x6
    1fac:	91050513          	addi	a0,a0,-1776 # 5910 <__global_pointer+0x390>
    1fb0:	051020ef          	jal	4800 <print>
    1fb4:	1f5010ef          	jal	39a8 <get_leds>
    1fb8:	01f00793          	li	a5,31
    1fbc:	00a7cae3          	blt	a5,a0,27d0 <interact_with_tile+0xd98>
    1fc0:	1c054663          	bltz	a0,218c <interact_with_tile+0x754>
    1fc4:	1ca7e463          	bltu	a5,a0,218c <interact_with_tile+0x754>
    1fc8:	00005737          	lui	a4,0x5
    1fcc:	00251793          	slli	a5,a0,0x2
    1fd0:	dec70713          	addi	a4,a4,-532 # 4dec <timeoutcount+0x44>
    1fd4:	00e787b3          	add	a5,a5,a4
    1fd8:	0007a783          	lw	a5,0(a5)
    1fdc:	00078067          	jr	a5
    1fe0:	00005537          	lui	a0,0x5
    1fe4:	59050513          	addi	a0,a0,1424 # 5590 <__global_pointer+0x10>
    1fe8:	019020ef          	jal	4800 <print>
    1fec:	00005537          	lui	a0,0x5
    1ff0:	5b850513          	addi	a0,a0,1464 # 55b8 <__global_pointer+0x38>
    1ff4:	00d020ef          	jal	4800 <print>
    1ff8:	00005537          	lui	a0,0x5
    1ffc:	5d850513          	addi	a0,a0,1496 # 55d8 <__global_pointer+0x58>
    2000:	001020ef          	jal	4800 <print>
    2004:	00005537          	lui	a0,0x5
    2008:	5f850513          	addi	a0,a0,1528 # 55f8 <__global_pointer+0x78>
    200c:	7f4020ef          	jal	4800 <print>
    2010:	0140006f          	j	2024 <interact_with_tile+0x5ec>
    2014:	00157793          	andi	a5,a0,1
    2018:	30079a63          	bnez	a5,232c <interact_with_tile+0x8f4>
    201c:	00257793          	andi	a5,a0,2
    2020:	34079263          	bnez	a5,2364 <interact_with_tile+0x92c>
    2024:	0ed010ef          	jal	3910 <get_sw>
    2028:	00857793          	andi	a5,a0,8
    202c:	fe0784e3          	beqz	a5,2014 <interact_with_tile+0x5dc>
    2030:	00005537          	lui	a0,0x5
    2034:	19450513          	addi	a0,a0,404 # 5194 <CSWTCH.15+0x328>
    2038:	7c8020ef          	jal	4800 <print>
    203c:	0d5010ef          	jal	3910 <get_sw>
    2040:	00857513          	andi	a0,a0,8
    2044:	fe050ce3          	beqz	a0,203c <interact_with_tile+0x604>
    2048:	a91ff06f          	j	1ad8 <interact_with_tile+0xa0>
    204c:	00005537          	lui	a0,0x5
    2050:	63c50513          	addi	a0,a0,1596 # 563c <__global_pointer+0xbc>
    2054:	7ac020ef          	jal	4800 <print>
    2058:	00400693          	li	a3,4
    205c:	000057b7          	lui	a5,0x5
    2060:	da07a703          	lw	a4,-608(a5) # 4da0 <timer_event>
    2064:	fe070ee3          	beqz	a4,2060 <interact_with_tile+0x628>
    2068:	da07a023          	sw	zero,-608(a5)
    206c:	fff68693          	addi	a3,a3,-1
    2070:	fe0698e3          	bnez	a3,2060 <interact_with_tile+0x628>
    2074:	00005537          	lui	a0,0x5
    2078:	19450513          	addi	a0,a0,404 # 5194 <CSWTCH.15+0x328>
    207c:	784020ef          	jal	4800 <print>
    2080:	091010ef          	jal	3910 <get_sw>
    2084:	00857513          	andi	a0,a0,8
    2088:	fe050ce3          	beqz	a0,2080 <interact_with_tile+0x648>
    208c:	a4dff06f          	j	1ad8 <interact_with_tile+0xa0>
    2090:	00005537          	lui	a0,0x5
    2094:	51850513          	addi	a0,a0,1304 # 5518 <CSWTCH.15+0x6ac>
    2098:	11312e23          	sw	s3,284(sp)
    209c:	764020ef          	jal	4800 <print>
    20a0:	00005537          	lui	a0,0x5
    20a4:	17050513          	addi	a0,a0,368 # 5170 <CSWTCH.15+0x304>
    20a8:	758020ef          	jal	4800 <print>
    20ac:	00c0006f          	j	20b8 <interact_with_tile+0x680>
    20b0:	00257513          	andi	a0,a0,2
    20b4:	06051263          	bnez	a0,2118 <interact_with_tile+0x6e0>
    20b8:	059010ef          	jal	3910 <get_sw>
    20bc:	00157993          	andi	s3,a0,1
    20c0:	fe0988e3          	beqz	s3,20b0 <interact_with_tile+0x678>
    20c4:	0104a703          	lw	a4,16(s1)
    20c8:	00900793          	li	a5,9
    20cc:	7cf70663          	beq	a4,a5,2898 <interact_with_tile+0xe60>
    20d0:	0144a703          	lw	a4,20(s1)
    20d4:	7cf70463          	beq	a4,a5,289c <interact_with_tile+0xe64>
    20d8:	0184a703          	lw	a4,24(s1)
    20dc:	14f700e3          	beq	a4,a5,2a1c <interact_with_tile+0xfe4>
    20e0:	01c4a703          	lw	a4,28(s1)
    20e4:	12f708e3          	beq	a4,a5,2a14 <interact_with_tile+0xfdc>
    20e8:	0204a703          	lw	a4,32(s1)
    20ec:	00400993          	li	s3,4
    20f0:	7af70663          	beq	a4,a5,289c <interact_with_tile+0xe64>
    20f4:	00005537          	lui	a0,0x5
    20f8:	56450513          	addi	a0,a0,1380 # 5564 <CSWTCH.15+0x6f8>
    20fc:	704020ef          	jal	4800 <print>
    2100:	000057b7          	lui	a5,0x5
    2104:	da07a703          	lw	a4,-608(a5) # 4da0 <timer_event>
    2108:	fe070ee3          	beqz	a4,2104 <interact_with_tile+0x6cc>
    210c:	da07a023          	sw	zero,-608(a5)
    2110:	fff90913          	addi	s2,s2,-1
    2114:	fe0918e3          	bnez	s2,2104 <interact_with_tile+0x6cc>
    2118:	00005537          	lui	a0,0x5
    211c:	19450513          	addi	a0,a0,404 # 5194 <CSWTCH.15+0x328>
    2120:	6e0020ef          	jal	4800 <print>
    2124:	7ec010ef          	jal	3910 <get_sw>
    2128:	00857513          	andi	a0,a0,8
    212c:	fe050ce3          	beqz	a0,2124 <interact_with_tile+0x6ec>
    2130:	12812403          	lw	s0,296(sp)
    2134:	12412483          	lw	s1,292(sp)
    2138:	11c12983          	lw	s3,284(sp)
    213c:	9a5ff06f          	j	1ae0 <interact_with_tile+0xa8>
    2140:	12812403          	lw	s0,296(sp)
    2144:	12412483          	lw	s1,292(sp)
    2148:	00006537          	lui	a0,0x6
    214c:	8e450513          	addi	a0,a0,-1820 # 58e4 <__global_pointer+0x364>
    2150:	6b0020ef          	jal	4800 <print>
    2154:	00400693          	li	a3,4
    2158:	000057b7          	lui	a5,0x5
    215c:	da07a703          	lw	a4,-608(a5) # 4da0 <timer_event>
    2160:	fe070ee3          	beqz	a4,215c <interact_with_tile+0x724>
    2164:	da07a023          	sw	zero,-608(a5)
    2168:	fff68693          	addi	a3,a3,-1
    216c:	fe0698e3          	bnez	a3,215c <interact_with_tile+0x724>
    2170:	00005537          	lui	a0,0x5
    2174:	19450513          	addi	a0,a0,404 # 5194 <CSWTCH.15+0x328>
    2178:	688020ef          	jal	4800 <print>
    217c:	794010ef          	jal	3910 <get_sw>
    2180:	00857513          	andi	a0,a0,8
    2184:	fe050ce3          	beqz	a0,217c <interact_with_tile+0x744>
    2188:	959ff06f          	j	1ae0 <interact_with_tile+0xa8>
    218c:	00005537          	lui	a0,0x5
    2190:	40050513          	addi	a0,a0,1024 # 5400 <CSWTCH.15+0x594>
    2194:	66c020ef          	jal	4800 <print>
    2198:	00000513          	li	a0,0
    219c:	69c020ef          	jal	4838 <print_dec>
    21a0:	00005537          	lui	a0,0x5
    21a4:	42050513          	addi	a0,a0,1056 # 5420 <CSWTCH.15+0x5b4>
    21a8:	658020ef          	jal	4800 <print>
    21ac:	00005537          	lui	a0,0x5
    21b0:	4c450513          	addi	a0,a0,1220 # 54c4 <CSWTCH.15+0x658>
    21b4:	64c020ef          	jal	4800 <print>
    21b8:	0000006f          	j	21b8 <interact_with_tile+0x780>
    21bc:	00005537          	lui	a0,0x5
    21c0:	46050513          	addi	a0,a0,1120 # 5460 <CSWTCH.15+0x5f4>
    21c4:	63c020ef          	jal	4800 <print>
    21c8:	00005537          	lui	a0,0x5
    21cc:	40050513          	addi	a0,a0,1024 # 5400 <CSWTCH.15+0x594>
    21d0:	630020ef          	jal	4800 <print>
    21d4:	00a00513          	li	a0,10
    21d8:	660020ef          	jal	4838 <print_dec>
    21dc:	00005537          	lui	a0,0x5
    21e0:	42050513          	addi	a0,a0,1056 # 5420 <CSWTCH.15+0x5b4>
    21e4:	61c020ef          	jal	4800 <print>
    21e8:	fc5ff06f          	j	21ac <interact_with_tile+0x774>
    21ec:	00005537          	lui	a0,0x5
    21f0:	42450513          	addi	a0,a0,1060 # 5424 <CSWTCH.15+0x5b8>
    21f4:	60c020ef          	jal	4800 <print>
    21f8:	00400693          	li	a3,4
    21fc:	000057b7          	lui	a5,0x5
    2200:	da07a703          	lw	a4,-608(a5) # 4da0 <timer_event>
    2204:	fe070ee3          	beqz	a4,2200 <interact_with_tile+0x7c8>
    2208:	da07a023          	sw	zero,-608(a5)
    220c:	fff68693          	addi	a3,a3,-1
    2210:	8c0684e3          	beqz	a3,1ad8 <interact_with_tile+0xa0>
    2214:	fedff06f          	j	2200 <interact_with_tile+0x7c8>
    2218:	00005537          	lui	a0,0x5
    221c:	47050513          	addi	a0,a0,1136 # 5470 <CSWTCH.15+0x604>
    2220:	5e0020ef          	jal	4800 <print>
    2224:	00005537          	lui	a0,0x5
    2228:	40050513          	addi	a0,a0,1024 # 5400 <CSWTCH.15+0x594>
    222c:	5d4020ef          	jal	4800 <print>
    2230:	03200513          	li	a0,50
    2234:	604020ef          	jal	4838 <print_dec>
    2238:	00005537          	lui	a0,0x5
    223c:	42050513          	addi	a0,a0,1056 # 5420 <CSWTCH.15+0x5b4>
    2240:	5c0020ef          	jal	4800 <print>
    2244:	f69ff06f          	j	21ac <interact_with_tile+0x774>
    2248:	00005537          	lui	a0,0x5
    224c:	46c50513          	addi	a0,a0,1132 # 546c <CSWTCH.15+0x600>
    2250:	5b0020ef          	jal	4800 <print>
    2254:	00005537          	lui	a0,0x5
    2258:	40050513          	addi	a0,a0,1024 # 5400 <CSWTCH.15+0x594>
    225c:	5a4020ef          	jal	4800 <print>
    2260:	02800513          	li	a0,40
    2264:	5d4020ef          	jal	4838 <print_dec>
    2268:	00005537          	lui	a0,0x5
    226c:	42050513          	addi	a0,a0,1056 # 5420 <CSWTCH.15+0x5b4>
    2270:	590020ef          	jal	4800 <print>
    2274:	f39ff06f          	j	21ac <interact_with_tile+0x774>
    2278:	00005537          	lui	a0,0x5
    227c:	46850513          	addi	a0,a0,1128 # 5468 <CSWTCH.15+0x5fc>
    2280:	580020ef          	jal	4800 <print>
    2284:	00005537          	lui	a0,0x5
    2288:	40050513          	addi	a0,a0,1024 # 5400 <CSWTCH.15+0x594>
    228c:	574020ef          	jal	4800 <print>
    2290:	01e00513          	li	a0,30
    2294:	5a4020ef          	jal	4838 <print_dec>
    2298:	00005537          	lui	a0,0x5
    229c:	42050513          	addi	a0,a0,1056 # 5420 <CSWTCH.15+0x5b4>
    22a0:	560020ef          	jal	4800 <print>
    22a4:	f09ff06f          	j	21ac <interact_with_tile+0x774>
    22a8:	00005537          	lui	a0,0x5
    22ac:	46450513          	addi	a0,a0,1124 # 5464 <CSWTCH.15+0x5f8>
    22b0:	550020ef          	jal	4800 <print>
    22b4:	00005537          	lui	a0,0x5
    22b8:	40050513          	addi	a0,a0,1024 # 5400 <CSWTCH.15+0x594>
    22bc:	544020ef          	jal	4800 <print>
    22c0:	01400513          	li	a0,20
    22c4:	574020ef          	jal	4838 <print_dec>
    22c8:	00005537          	lui	a0,0x5
    22cc:	42050513          	addi	a0,a0,1056 # 5420 <CSWTCH.15+0x5b4>
    22d0:	530020ef          	jal	4800 <print>
    22d4:	ed9ff06f          	j	21ac <interact_with_tile+0x774>
    22d8:	00006537          	lui	a0,0x6
    22dc:	94c50513          	addi	a0,a0,-1716 # 594c <__global_pointer+0x3cc>
    22e0:	520020ef          	jal	4800 <print>
    22e4:	00400693          	li	a3,4
    22e8:	000057b7          	lui	a5,0x5
    22ec:	da07a703          	lw	a4,-608(a5) # 4da0 <timer_event>
    22f0:	fe070ee3          	beqz	a4,22ec <interact_with_tile+0x8b4>
    22f4:	da07a023          	sw	zero,-608(a5)
    22f8:	fff68693          	addi	a3,a3,-1
    22fc:	940686e3          	beqz	a3,1c48 <interact_with_tile+0x210>
    2300:	fedff06f          	j	22ec <interact_with_tile+0x8b4>
    2304:	00006537          	lui	a0,0x6
    2308:	93450513          	addi	a0,a0,-1740 # 5934 <__global_pointer+0x3b4>
    230c:	4f4020ef          	jal	4800 <print>
    2310:	00005537          	lui	a0,0x5
    2314:	19450513          	addi	a0,a0,404 # 5194 <CSWTCH.15+0x328>
    2318:	4e8020ef          	jal	4800 <print>
    231c:	5f4010ef          	jal	3910 <get_sw>
    2320:	00857513          	andi	a0,a0,8
    2324:	fe050ce3          	beqz	a0,231c <interact_with_tile+0x8e4>
    2328:	fb0ff06f          	j	1ad8 <interact_with_tile+0xa0>
    232c:	00048513          	mv	a0,s1
    2330:	00800593          	li	a1,8
    2334:	77c010ef          	jal	3ab0 <add_to_inventory>
    2338:	00005537          	lui	a0,0x5
    233c:	60850513          	addi	a0,a0,1544 # 5608 <__global_pointer+0x88>
    2340:	4c0020ef          	jal	4800 <print>
    2344:	00400693          	li	a3,4
    2348:	000057b7          	lui	a5,0x5
    234c:	da07a703          	lw	a4,-608(a5) # 4da0 <timer_event>
    2350:	fe070ee3          	beqz	a4,234c <interact_with_tile+0x914>
    2354:	da07a023          	sw	zero,-608(a5)
    2358:	fff68693          	addi	a3,a3,-1
    235c:	cc068ae3          	beqz	a3,2030 <interact_with_tile+0x5f8>
    2360:	fedff06f          	j	234c <interact_with_tile+0x914>
    2364:	00048513          	mv	a0,s1
    2368:	00900593          	li	a1,9
    236c:	744010ef          	jal	3ab0 <add_to_inventory>
    2370:	00005537          	lui	a0,0x5
    2374:	62450513          	addi	a0,a0,1572 # 5624 <__global_pointer+0xa4>
    2378:	488020ef          	jal	4800 <print>
    237c:	00400693          	li	a3,4
    2380:	000057b7          	lui	a5,0x5
    2384:	da07a703          	lw	a4,-608(a5) # 4da0 <timer_event>
    2388:	fe070ee3          	beqz	a4,2384 <interact_with_tile+0x94c>
    238c:	da07a023          	sw	zero,-608(a5)
    2390:	fff68693          	addi	a3,a3,-1
    2394:	c8068ee3          	beqz	a3,2030 <interact_with_tile+0x5f8>
    2398:	fedff06f          	j	2384 <interact_with_tile+0x94c>
    239c:	00040593          	mv	a1,s0
    23a0:	00048513          	mv	a0,s1
    23a4:	399010ef          	jal	3f3c <check_storage>
    23a8:	00005537          	lui	a0,0x5
    23ac:	3a450513          	addi	a0,a0,932 # 53a4 <CSWTCH.15+0x538>
    23b0:	450020ef          	jal	4800 <print>
    23b4:	55c010ef          	jal	3910 <get_sw>
    23b8:	00857513          	andi	a0,a0,8
    23bc:	fe050ce3          	beqz	a0,23b4 <interact_with_tile+0x97c>
    23c0:	fa0ff06f          	j	1b60 <interact_with_tile+0x128>
    23c4:	00005537          	lui	a0,0x5
    23c8:	11312e23          	sw	s3,284(sp)
    23cc:	28c50513          	addi	a0,a0,652 # 528c <CSWTCH.15+0x420>
    23d0:	000059b7          	lui	s3,0x5
    23d4:	00005937          	lui	s2,0x5
    23d8:	11412c23          	sw	s4,280(sp)
    23dc:	11512a23          	sw	s5,276(sp)
    23e0:	11612823          	sw	s6,272(sp)
    23e4:	11712623          	sw	s7,268(sp)
    23e8:	11812423          	sw	s8,264(sp)
    23ec:	11912223          	sw	s9,260(sp)
    23f0:	01498993          	addi	s3,s3,20 # 5014 <CSWTCH.15+0x1a8>
    23f4:	40c020ef          	jal	4800 <print>
    23f8:	01048c93          	addi	s9,s1,16
    23fc:	01c90913          	addi	s2,s2,28 # 501c <CSWTCH.15+0x1b0>
    2400:	03100c13          	li	s8,49
    2404:	00005bb7          	lui	s7,0x5
    2408:	00005b37          	lui	s6,0x5
    240c:	00a00a93          	li	s5,10
    2410:	03600a13          	li	s4,54
    2414:	00010023          	sb	zero,0(sp)
    2418:	00098693          	mv	a3,s3
    241c:	00010793          	mv	a5,sp
    2420:	05300713          	li	a4,83
    2424:	00168693          	addi	a3,a3,1
    2428:	00e78023          	sb	a4,0(a5)
    242c:	0006c703          	lbu	a4,0(a3)
    2430:	00178793          	addi	a5,a5,1
    2434:	fe0718e3          	bnez	a4,2424 <interact_with_tile+0x9ec>
    2438:	00078023          	sb	zero,0(a5)
    243c:	00014783          	lbu	a5,0(sp)
    2440:	3e078863          	beqz	a5,2830 <interact_with_tile+0xdf8>
    2444:	00010793          	mv	a5,sp
    2448:	0017c703          	lbu	a4,1(a5)
    244c:	00178793          	addi	a5,a5,1
    2450:	fe071ce3          	bnez	a4,2448 <interact_with_tile+0xa10>
    2454:	01878023          	sb	s8,0(a5)
    2458:	000780a3          	sb	zero,1(a5)
    245c:	00014783          	lbu	a5,0(sp)
    2460:	3c078463          	beqz	a5,2828 <interact_with_tile+0xdf0>
    2464:	00010793          	mv	a5,sp
    2468:	0017c703          	lbu	a4,1(a5)
    246c:	00178793          	addi	a5,a5,1
    2470:	fe071ce3          	bnez	a4,2468 <interact_with_tile+0xa30>
    2474:	00090693          	mv	a3,s2
    2478:	03a00713          	li	a4,58
    247c:	00168693          	addi	a3,a3,1
    2480:	00e78023          	sb	a4,0(a5)
    2484:	0006c703          	lbu	a4,0(a3)
    2488:	00178793          	addi	a5,a5,1
    248c:	fe0718e3          	bnez	a4,247c <interact_with_tile+0xa44>
    2490:	000ca703          	lw	a4,0(s9)
    2494:	00078023          	sb	zero,0(a5)
    2498:	00014603          	lbu	a2,0(sp)
    249c:	10071e63          	bnez	a4,25b8 <interact_with_tile+0xb80>
    24a0:	00010793          	mv	a5,sp
    24a4:	00060863          	beqz	a2,24b4 <interact_with_tile+0xa7c>
    24a8:	0017c703          	lbu	a4,1(a5)
    24ac:	00178793          	addi	a5,a5,1
    24b0:	fe071ce3          	bnez	a4,24a8 <interact_with_tile+0xa70>
    24b4:	020b0693          	addi	a3,s6,32 # 5020 <CSWTCH.15+0x1b4>
    24b8:	04500713          	li	a4,69
    24bc:	00168693          	addi	a3,a3,1
    24c0:	00e78023          	sb	a4,0(a5)
    24c4:	0006c703          	lbu	a4,0(a3)
    24c8:	00178793          	addi	a5,a5,1
    24cc:	fe0718e3          	bnez	a4,24bc <interact_with_tile+0xa84>
    24d0:	00078023          	sb	zero,0(a5)
    24d4:	00014783          	lbu	a5,0(sp)
    24d8:	36078063          	beqz	a5,2838 <interact_with_tile+0xe00>
    24dc:	00010793          	mv	a5,sp
    24e0:	0017c703          	lbu	a4,1(a5)
    24e4:	00178793          	addi	a5,a5,1
    24e8:	fe071ce3          	bnez	a4,24e0 <interact_with_tile+0xaa8>
    24ec:	001c0c13          	addi	s8,s8,1
    24f0:	00010513          	mv	a0,sp
    24f4:	01578023          	sb	s5,0(a5)
    24f8:	000780a3          	sb	zero,1(a5)
    24fc:	0ffc7c13          	zext.b	s8,s8
    2500:	300020ef          	jal	4800 <print>
    2504:	004c8c93          	addi	s9,s9,4
    2508:	f14c16e3          	bne	s8,s4,2414 <interact_with_tile+0x9dc>
    250c:	00005537          	lui	a0,0x5
    2510:	2a050513          	addi	a0,a0,672 # 52a0 <CSWTCH.15+0x434>
    2514:	2ec020ef          	jal	4800 <print>
    2518:	00100913          	li	s2,1
    251c:	3f4010ef          	jal	3910 <get_sw>
    2520:	08050863          	beqz	a0,25b0 <interact_with_tile+0xb78>
    2524:	fe091ce3          	bnez	s2,251c <interact_with_tile+0xae4>
    2528:	10057913          	andi	s2,a0,256
    252c:	4e091c63          	bnez	s2,2a24 <interact_with_tile+0xfec>
    2530:	01f57793          	andi	a5,a0,31
    2534:	06078a63          	beqz	a5,25a8 <interact_with_tile+0xb70>
    2538:	00157793          	andi	a5,a0,1
    253c:	02079463          	bnez	a5,2564 <interact_with_tile+0xb2c>
    2540:	00257793          	andi	a5,a0,2
    2544:	40079c63          	bnez	a5,295c <interact_with_tile+0xf24>
    2548:	00457793          	andi	a5,a0,4
    254c:	4c079063          	bnez	a5,2a0c <interact_with_tile+0xfd4>
    2550:	00857793          	andi	a5,a0,8
    2554:	4e079e63          	bnez	a5,2a50 <interact_with_tile+0x1018>
    2558:	01057513          	andi	a0,a0,16
    255c:	00400913          	li	s2,4
    2560:	4e050c63          	beqz	a0,2a58 <interact_with_tile+0x1020>
    2564:	00291793          	slli	a5,s2,0x2
    2568:	00f487b3          	add	a5,s1,a5
    256c:	0107a583          	lw	a1,16(a5)
    2570:	2e058e63          	beqz	a1,286c <interact_with_tile+0xe34>
    2574:	00040513          	mv	a0,s0
    2578:	738010ef          	jal	3cb0 <add_to_storage>
    257c:	00090593          	mv	a1,s2
    2580:	00048513          	mv	a0,s1
    2584:	608010ef          	jal	3b8c <remove_from_inventory>
    2588:	11c12983          	lw	s3,284(sp)
    258c:	11812a03          	lw	s4,280(sp)
    2590:	11412a83          	lw	s5,276(sp)
    2594:	11012b03          	lw	s6,272(sp)
    2598:	10c12b83          	lw	s7,268(sp)
    259c:	10812c03          	lw	s8,264(sp)
    25a0:	10412c83          	lw	s9,260(sp)
    25a4:	e05ff06f          	j	23a8 <interact_with_tile+0x970>
    25a8:	368010ef          	jal	3910 <get_sw>
    25ac:	f6051ee3          	bnez	a0,2528 <interact_with_tile+0xaf0>
    25b0:	00000913          	li	s2,0
    25b4:	f69ff06f          	j	251c <interact_with_tile+0xae4>
    25b8:	00271713          	slli	a4,a4,0x2
    25bc:	cb4b8793          	addi	a5,s7,-844 # 4cb4 <COLLECTIBLE_NAMES>
    25c0:	00e787b3          	add	a5,a5,a4
    25c4:	0007a683          	lw	a3,0(a5)
    25c8:	00010793          	mv	a5,sp
    25cc:	00060863          	beqz	a2,25dc <interact_with_tile+0xba4>
    25d0:	0017c703          	lbu	a4,1(a5)
    25d4:	00178793          	addi	a5,a5,1
    25d8:	fe071ce3          	bnez	a4,25d0 <interact_with_tile+0xb98>
    25dc:	0006c703          	lbu	a4,0(a3)
    25e0:	ee0708e3          	beqz	a4,24d0 <interact_with_tile+0xa98>
    25e4:	00e78023          	sb	a4,0(a5)
    25e8:	0016c703          	lbu	a4,1(a3)
    25ec:	00168693          	addi	a3,a3,1
    25f0:	00178793          	addi	a5,a5,1
    25f4:	fe0718e3          	bnez	a4,25e4 <interact_with_tile+0xbac>
    25f8:	ed9ff06f          	j	24d0 <interact_with_tile+0xa98>
    25fc:	00005537          	lui	a0,0x5
    2600:	31850513          	addi	a0,a0,792 # 5318 <CSWTCH.15+0x4ac>
    2604:	11312e23          	sw	s3,284(sp)
    2608:	11412c23          	sw	s4,280(sp)
    260c:	11512a23          	sw	s5,276(sp)
    2610:	11612823          	sw	s6,272(sp)
    2614:	11712623          	sw	s7,268(sp)
    2618:	03100b13          	li	s6,49
    261c:	1e4020ef          	jal	4800 <print>
    2620:	00c40b93          	addi	s7,s0,12
    2624:	00005ab7          	lui	s5,0x5
    2628:	00005a37          	lui	s4,0x5
    262c:	000059b7          	lui	s3,0x5
    2630:	00a00913          	li	s2,10
    2634:	000ba603          	lw	a2,0(s7)
    2638:	0a061263          	bnez	a2,26dc <interact_with_tile+0xca4>
    263c:	001b0b13          	addi	s6,s6,1
    2640:	0ffb7b13          	zext.b	s6,s6
    2644:	03600793          	li	a5,54
    2648:	004b8b93          	addi	s7,s7,4
    264c:	fefb14e3          	bne	s6,a5,2634 <interact_with_tile+0xbfc>
    2650:	00005537          	lui	a0,0x5
    2654:	32850513          	addi	a0,a0,808 # 5328 <CSWTCH.15+0x4bc>
    2658:	1a8020ef          	jal	4800 <print>
    265c:	2b4010ef          	jal	3910 <get_sw>
    2660:	fe051ee3          	bnez	a0,265c <interact_with_tile+0xc24>
    2664:	2ac010ef          	jal	3910 <get_sw>
    2668:	fe050ee3          	beqz	a0,2664 <interact_with_tile+0xc2c>
    266c:	10057913          	andi	s2,a0,256
    2670:	42091463          	bnez	s2,2a98 <interact_with_tile+0x1060>
    2674:	00157793          	andi	a5,a0,1
    2678:	02079463          	bnez	a5,26a0 <interact_with_tile+0xc68>
    267c:	00257793          	andi	a5,a0,2
    2680:	40079463          	bnez	a5,2a88 <interact_with_tile+0x1050>
    2684:	00457793          	andi	a5,a0,4
    2688:	3e079c63          	bnez	a5,2a80 <interact_with_tile+0x1048>
    268c:	00857793          	andi	a5,a0,8
    2690:	40079063          	bnez	a5,2a90 <interact_with_tile+0x1058>
    2694:	01057513          	andi	a0,a0,16
    2698:	fc0506e3          	beqz	a0,2664 <interact_with_tile+0xc2c>
    269c:	00400913          	li	s2,4
    26a0:	00291793          	slli	a5,s2,0x2
    26a4:	00f407b3          	add	a5,s0,a5
    26a8:	00c7a583          	lw	a1,12(a5)
    26ac:	18058a63          	beqz	a1,2840 <interact_with_tile+0xe08>
    26b0:	00048513          	mv	a0,s1
    26b4:	3fc010ef          	jal	3ab0 <add_to_inventory>
    26b8:	00090593          	mv	a1,s2
    26bc:	00040513          	mv	a0,s0
    26c0:	758010ef          	jal	3e18 <remove_from_storage>
    26c4:	11c12983          	lw	s3,284(sp)
    26c8:	11812a03          	lw	s4,280(sp)
    26cc:	11412a83          	lw	s5,276(sp)
    26d0:	11012b03          	lw	s6,272(sp)
    26d4:	10c12b83          	lw	s7,268(sp)
    26d8:	cd1ff06f          	j	23a8 <interact_with_tile+0x970>
    26dc:	00010023          	sb	zero,0(sp)
    26e0:	014a8693          	addi	a3,s5,20 # 5014 <CSWTCH.15+0x1a8>
    26e4:	00010793          	mv	a5,sp
    26e8:	05300713          	li	a4,83
    26ec:	00168693          	addi	a3,a3,1
    26f0:	00e78023          	sb	a4,0(a5)
    26f4:	0006c703          	lbu	a4,0(a3)
    26f8:	00178793          	addi	a5,a5,1
    26fc:	fe0718e3          	bnez	a4,26ec <interact_with_tile+0xcb4>
    2700:	00078023          	sb	zero,0(a5)
    2704:	00014783          	lbu	a5,0(sp)
    2708:	2e078e63          	beqz	a5,2a04 <interact_with_tile+0xfcc>
    270c:	00010793          	mv	a5,sp
    2710:	0017c703          	lbu	a4,1(a5)
    2714:	00178793          	addi	a5,a5,1
    2718:	fe071ce3          	bnez	a4,2710 <interact_with_tile+0xcd8>
    271c:	01678023          	sb	s6,0(a5)
    2720:	000780a3          	sb	zero,1(a5)
    2724:	00014783          	lbu	a5,0(sp)
    2728:	2c078a63          	beqz	a5,29fc <interact_with_tile+0xfc4>
    272c:	00010793          	mv	a5,sp
    2730:	0017c703          	lbu	a4,1(a5)
    2734:	00178793          	addi	a5,a5,1
    2738:	fe071ce3          	bnez	a4,2730 <interact_with_tile+0xcf8>
    273c:	01ca0693          	addi	a3,s4,28 # 501c <CSWTCH.15+0x1b0>
    2740:	03a00713          	li	a4,58
    2744:	00168693          	addi	a3,a3,1
    2748:	00e78023          	sb	a4,0(a5)
    274c:	0006c703          	lbu	a4,0(a3)
    2750:	00178793          	addi	a5,a5,1
    2754:	fe0718e3          	bnez	a4,2744 <interact_with_tile+0xd0c>
    2758:	00078023          	sb	zero,0(a5)
    275c:	00014703          	lbu	a4,0(sp)
    2760:	00261613          	slli	a2,a2,0x2
    2764:	cb498793          	addi	a5,s3,-844 # 4cb4 <COLLECTIBLE_NAMES>
    2768:	00c787b3          	add	a5,a5,a2
    276c:	0007a683          	lw	a3,0(a5)
    2770:	00010793          	mv	a5,sp
    2774:	00070863          	beqz	a4,2784 <interact_with_tile+0xd4c>
    2778:	0017c703          	lbu	a4,1(a5)
    277c:	00178793          	addi	a5,a5,1
    2780:	fe071ce3          	bnez	a4,2778 <interact_with_tile+0xd40>
    2784:	0006c703          	lbu	a4,0(a3)
    2788:	00070c63          	beqz	a4,27a0 <interact_with_tile+0xd68>
    278c:	00e78023          	sb	a4,0(a5)
    2790:	0016c703          	lbu	a4,1(a3)
    2794:	00168693          	addi	a3,a3,1
    2798:	00178793          	addi	a5,a5,1
    279c:	fe0718e3          	bnez	a4,278c <interact_with_tile+0xd54>
    27a0:	00078023          	sb	zero,0(a5)
    27a4:	00014783          	lbu	a5,0(sp)
    27a8:	24078663          	beqz	a5,29f4 <interact_with_tile+0xfbc>
    27ac:	00010793          	mv	a5,sp
    27b0:	0017c703          	lbu	a4,1(a5)
    27b4:	00178793          	addi	a5,a5,1
    27b8:	fe071ce3          	bnez	a4,27b0 <interact_with_tile+0xd78>
    27bc:	00010513          	mv	a0,sp
    27c0:	01278023          	sb	s2,0(a5)
    27c4:	000780a3          	sb	zero,1(a5)
    27c8:	038020ef          	jal	4800 <print>
    27cc:	e71ff06f          	j	263c <interact_with_tile+0xc04>
    27d0:	0ff00793          	li	a5,255
    27d4:	1ef50863          	beq	a0,a5,29c4 <interact_with_tile+0xf8c>
    27d8:	0ea7cc63          	blt	a5,a0,28d0 <interact_with_tile+0xe98>
    27dc:	03f00793          	li	a5,63
    27e0:	18f50263          	beq	a0,a5,2964 <interact_with_tile+0xf2c>
    27e4:	07f00793          	li	a5,127
    27e8:	9af512e3          	bne	a0,a5,218c <interact_with_tile+0x754>
    27ec:	00005537          	lui	a0,0x5
    27f0:	47850513          	addi	a0,a0,1144 # 5478 <CSWTCH.15+0x60c>
    27f4:	00c020ef          	jal	4800 <print>
    27f8:	00005537          	lui	a0,0x5
    27fc:	40050513          	addi	a0,a0,1024 # 5400 <CSWTCH.15+0x594>
    2800:	000020ef          	jal	4800 <print>
    2804:	04600513          	li	a0,70
    2808:	030020ef          	jal	4838 <print_dec>
    280c:	00005537          	lui	a0,0x5
    2810:	42050513          	addi	a0,a0,1056 # 5420 <CSWTCH.15+0x5b4>
    2814:	7ed010ef          	jal	4800 <print>
    2818:	00005537          	lui	a0,0x5
    281c:	48850513          	addi	a0,a0,1160 # 5488 <CSWTCH.15+0x61c>
    2820:	7e1010ef          	jal	4800 <print>
    2824:	995ff06f          	j	21b8 <interact_with_tile+0x780>
    2828:	00010793          	mv	a5,sp
    282c:	c49ff06f          	j	2474 <interact_with_tile+0xa3c>
    2830:	00010793          	mv	a5,sp
    2834:	c21ff06f          	j	2454 <interact_with_tile+0xa1c>
    2838:	00010793          	mv	a5,sp
    283c:	cb1ff06f          	j	24ec <interact_with_tile+0xab4>
    2840:	00005537          	lui	a0,0x5
    2844:	38c50513          	addi	a0,a0,908 # 538c <CSWTCH.15+0x520>
    2848:	7b9010ef          	jal	4800 <print>
    284c:	00400693          	li	a3,4
    2850:	000057b7          	lui	a5,0x5
    2854:	da07a703          	lw	a4,-608(a5) # 4da0 <timer_event>
    2858:	fe070ee3          	beqz	a4,2854 <interact_with_tile+0xe1c>
    285c:	da07a023          	sw	zero,-608(a5)
    2860:	fff68693          	addi	a3,a3,-1
    2864:	e60680e3          	beqz	a3,26c4 <interact_with_tile+0xc8c>
    2868:	fedff06f          	j	2854 <interact_with_tile+0xe1c>
    286c:	00005537          	lui	a0,0x5
    2870:	2fc50513          	addi	a0,a0,764 # 52fc <CSWTCH.15+0x490>
    2874:	78d010ef          	jal	4800 <print>
    2878:	00400693          	li	a3,4
    287c:	000057b7          	lui	a5,0x5
    2880:	da07a703          	lw	a4,-608(a5) # 4da0 <timer_event>
    2884:	fe070ee3          	beqz	a4,2880 <interact_with_tile+0xe48>
    2888:	da07a023          	sw	zero,-608(a5)
    288c:	fff68693          	addi	a3,a3,-1
    2890:	ce068ce3          	beqz	a3,2588 <interact_with_tile+0xb50>
    2894:	fedff06f          	j	2880 <interact_with_tile+0xe48>
    2898:	00000993          	li	s3,0
    289c:	00040513          	mv	a0,s0
    28a0:	00900593          	li	a1,9
    28a4:	4e8010ef          	jal	3d8c <add_fuel_enginebay>
    28a8:	00040593          	mv	a1,s0
    28ac:	00048513          	mv	a0,s1
    28b0:	68c010ef          	jal	3f3c <check_storage>
    28b4:	00048513          	mv	a0,s1
    28b8:	00098593          	mv	a1,s3
    28bc:	2d0010ef          	jal	3b8c <remove_from_inventory>
    28c0:	00005537          	lui	a0,0x5
    28c4:	53850513          	addi	a0,a0,1336 # 5538 <CSWTCH.15+0x6cc>
    28c8:	739010ef          	jal	4800 <print>
    28cc:	84dff06f          	j	2118 <interact_with_tile+0x6e0>
    28d0:	1ff00793          	li	a5,511
    28d4:	0cf50063          	beq	a0,a5,2994 <interact_with_tile+0xf5c>
    28d8:	3ff00793          	li	a5,1023
    28dc:	8af518e3          	bne	a0,a5,218c <interact_with_tile+0x754>
    28e0:	00005537          	lui	a0,0x5
    28e4:	48450513          	addi	a0,a0,1156 # 5484 <CSWTCH.15+0x618>
    28e8:	719010ef          	jal	4800 <print>
    28ec:	00005537          	lui	a0,0x5
    28f0:	40050513          	addi	a0,a0,1024 # 5400 <CSWTCH.15+0x594>
    28f4:	70d010ef          	jal	4800 <print>
    28f8:	06400513          	li	a0,100
    28fc:	73d010ef          	jal	4838 <print_dec>
    2900:	00005537          	lui	a0,0x5
    2904:	42050513          	addi	a0,a0,1056 # 5420 <CSWTCH.15+0x5b4>
    2908:	6f9010ef          	jal	4800 <print>
    290c:	f0dff06f          	j	2818 <interact_with_tile+0xde0>
    2910:	00005537          	lui	a0,0x5
    2914:	70c50513          	addi	a0,a0,1804 # 570c <__global_pointer+0x18c>
    2918:	6e9010ef          	jal	4800 <print>
    291c:	00005537          	lui	a0,0x5
    2920:	17050513          	addi	a0,a0,368 # 5170 <CSWTCH.15+0x304>
    2924:	6dd010ef          	jal	4800 <print>
    2928:	00c0006f          	j	2934 <interact_with_tile+0xefc>
    292c:	00257513          	andi	a0,a0,2
    2930:	dc051463          	bnez	a0,1ef8 <interact_with_tile+0x4c0>
    2934:	7dd000ef          	jal	3910 <get_sw>
    2938:	00157793          	andi	a5,a0,1
    293c:	fe0788e3          	beqz	a5,292c <interact_with_tile+0xef4>
    2940:	00006537          	lui	a0,0x6
    2944:	9c450513          	addi	a0,a0,-1596 # 59c4 <__global_pointer+0x444>
    2948:	6b9010ef          	jal	4800 <print>
    294c:	00048513          	mv	a0,s1
    2950:	00c00593          	li	a1,12
    2954:	15c010ef          	jal	3ab0 <add_to_inventory>
    2958:	da0ff06f          	j	1ef8 <interact_with_tile+0x4c0>
    295c:	00100913          	li	s2,1
    2960:	c05ff06f          	j	2564 <interact_with_tile+0xb2c>
    2964:	00005537          	lui	a0,0x5
    2968:	47450513          	addi	a0,a0,1140 # 5474 <CSWTCH.15+0x608>
    296c:	695010ef          	jal	4800 <print>
    2970:	00005537          	lui	a0,0x5
    2974:	40050513          	addi	a0,a0,1024 # 5400 <CSWTCH.15+0x594>
    2978:	689010ef          	jal	4800 <print>
    297c:	03c00513          	li	a0,60
    2980:	6b9010ef          	jal	4838 <print_dec>
    2984:	00005537          	lui	a0,0x5
    2988:	42050513          	addi	a0,a0,1056 # 5420 <CSWTCH.15+0x5b4>
    298c:	675010ef          	jal	4800 <print>
    2990:	81dff06f          	j	21ac <interact_with_tile+0x774>
    2994:	00005537          	lui	a0,0x5
    2998:	48050513          	addi	a0,a0,1152 # 5480 <CSWTCH.15+0x614>
    299c:	665010ef          	jal	4800 <print>
    29a0:	00005537          	lui	a0,0x5
    29a4:	40050513          	addi	a0,a0,1024 # 5400 <CSWTCH.15+0x594>
    29a8:	659010ef          	jal	4800 <print>
    29ac:	05a00513          	li	a0,90
    29b0:	689010ef          	jal	4838 <print_dec>
    29b4:	00005537          	lui	a0,0x5
    29b8:	42050513          	addi	a0,a0,1056 # 5420 <CSWTCH.15+0x5b4>
    29bc:	645010ef          	jal	4800 <print>
    29c0:	e59ff06f          	j	2818 <interact_with_tile+0xde0>
    29c4:	00005537          	lui	a0,0x5
    29c8:	47c50513          	addi	a0,a0,1148 # 547c <CSWTCH.15+0x610>
    29cc:	635010ef          	jal	4800 <print>
    29d0:	00005537          	lui	a0,0x5
    29d4:	40050513          	addi	a0,a0,1024 # 5400 <CSWTCH.15+0x594>
    29d8:	629010ef          	jal	4800 <print>
    29dc:	05000513          	li	a0,80
    29e0:	659010ef          	jal	4838 <print_dec>
    29e4:	00005537          	lui	a0,0x5
    29e8:	42050513          	addi	a0,a0,1056 # 5420 <CSWTCH.15+0x5b4>
    29ec:	615010ef          	jal	4800 <print>
    29f0:	e29ff06f          	j	2818 <interact_with_tile+0xde0>
    29f4:	00010793          	mv	a5,sp
    29f8:	dc5ff06f          	j	27bc <interact_with_tile+0xd84>
    29fc:	00010793          	mv	a5,sp
    2a00:	d3dff06f          	j	273c <interact_with_tile+0xd04>
    2a04:	00010793          	mv	a5,sp
    2a08:	d15ff06f          	j	271c <interact_with_tile+0xce4>
    2a0c:	00200913          	li	s2,2
    2a10:	b55ff06f          	j	2564 <interact_with_tile+0xb2c>
    2a14:	00300993          	li	s3,3
    2a18:	e85ff06f          	j	289c <interact_with_tile+0xe64>
    2a1c:	00200993          	li	s3,2
    2a20:	e7dff06f          	j	289c <interact_with_tile+0xe64>
    2a24:	00005537          	lui	a0,0x5
    2a28:	2f050513          	addi	a0,a0,752 # 52f0 <CSWTCH.15+0x484>
    2a2c:	5d5010ef          	jal	4800 <print>
    2a30:	00400693          	li	a3,4
    2a34:	000057b7          	lui	a5,0x5
    2a38:	da07a703          	lw	a4,-608(a5) # 4da0 <timer_event>
    2a3c:	fe070ee3          	beqz	a4,2a38 <interact_with_tile+0x1000>
    2a40:	da07a023          	sw	zero,-608(a5)
    2a44:	fff68693          	addi	a3,a3,-1
    2a48:	b40680e3          	beqz	a3,2588 <interact_with_tile+0xb50>
    2a4c:	fedff06f          	j	2a38 <interact_with_tile+0x1000>
    2a50:	00300913          	li	s2,3
    2a54:	b11ff06f          	j	2564 <interact_with_tile+0xb2c>
    2a58:	00005537          	lui	a0,0x5
    2a5c:	2f050513          	addi	a0,a0,752 # 52f0 <CSWTCH.15+0x484>
    2a60:	5a1010ef          	jal	4800 <print>
    2a64:	000057b7          	lui	a5,0x5
    2a68:	da07a703          	lw	a4,-608(a5) # 4da0 <timer_event>
    2a6c:	fe070ee3          	beqz	a4,2a68 <interact_with_tile+0x1030>
    2a70:	da07a023          	sw	zero,-608(a5)
    2a74:	fff90913          	addi	s2,s2,-1
    2a78:	b00908e3          	beqz	s2,2588 <interact_with_tile+0xb50>
    2a7c:	fedff06f          	j	2a68 <interact_with_tile+0x1030>
    2a80:	00200913          	li	s2,2
    2a84:	c1dff06f          	j	26a0 <interact_with_tile+0xc68>
    2a88:	00100913          	li	s2,1
    2a8c:	c15ff06f          	j	26a0 <interact_with_tile+0xc68>
    2a90:	00300913          	li	s2,3
    2a94:	c0dff06f          	j	26a0 <interact_with_tile+0xc68>
    2a98:	00005537          	lui	a0,0x5
    2a9c:	2f050513          	addi	a0,a0,752 # 52f0 <CSWTCH.15+0x484>
    2aa0:	561010ef          	jal	4800 <print>
    2aa4:	00400713          	li	a4,4
    2aa8:	000057b7          	lui	a5,0x5
    2aac:	da07a683          	lw	a3,-608(a5) # 4da0 <timer_event>
    2ab0:	fe068ee3          	beqz	a3,2aac <interact_with_tile+0x1074>
    2ab4:	da07a023          	sw	zero,-608(a5)
    2ab8:	fff70713          	addi	a4,a4,-1
    2abc:	c00704e3          	beqz	a4,26c4 <interact_with_tile+0xc8c>
    2ac0:	fedff06f          	j	2aac <interact_with_tile+0x1074>

00002ac4 <handle_input>:
    2ac4:	ff010113          	addi	sp,sp,-16
    2ac8:	00812423          	sw	s0,8(sp)
    2acc:	00912223          	sw	s1,4(sp)
    2ad0:	01212023          	sw	s2,0(sp)
    2ad4:	00112623          	sw	ra,12(sp)
    2ad8:	20057913          	andi	s2,a0,512
    2adc:	0005a783          	lw	a5,0(a1)
    2ae0:	0045a703          	lw	a4,4(a1)
    2ae4:	00050413          	mv	s0,a0
    2ae8:	00058493          	mv	s1,a1
    2aec:	00060813          	mv	a6,a2
    2af0:	20091063          	bnez	s2,2cf0 <handle_input+0x22c>
    2af4:	00157513          	andi	a0,a0,1
    2af8:	00247693          	andi	a3,s0,2
    2afc:	00a787b3          	add	a5,a5,a0
    2b00:	00050593          	mv	a1,a0
    2b04:	00447613          	andi	a2,s0,4
    2b08:	00847513          	andi	a0,s0,8
    2b0c:	06068c63          	beqz	a3,2b84 <handle_input+0xc0>
    2b10:	fff78793          	addi	a5,a5,-1
    2b14:	20060c63          	beqz	a2,2d2c <handle_input+0x268>
    2b18:	00153513          	seqz	a0,a0
    2b1c:	00a70733          	add	a4,a4,a0
    2b20:	00900693          	li	a3,9
    2b24:	06f6e863          	bltu	a3,a5,2b94 <handle_input+0xd0>
    2b28:	06e6e663          	bltu	a3,a4,2b94 <handle_input+0xd0>
    2b2c:	19000593          	li	a1,400
    2b30:	02b706b3          	mul	a3,a4,a1
    2b34:	00279613          	slli	a2,a5,0x2
    2b38:	00f60633          	add	a2,a2,a5
    2b3c:	00361613          	slli	a2,a2,0x3
    2b40:	01000513          	li	a0,16
    2b44:	00d806b3          	add	a3,a6,a3
    2b48:	00c686b3          	add	a3,a3,a2
    2b4c:	0006a683          	lw	a3,0(a3)
    2b50:	04a68263          	beq	a3,a0,2b94 <handle_input+0xd0>
    2b54:	02b785b3          	mul	a1,a5,a1
    2b58:	00271613          	slli	a2,a4,0x2
    2b5c:	00e60633          	add	a2,a2,a4
    2b60:	00361613          	slli	a2,a2,0x3
    2b64:	00f00513          	li	a0,15
    2b68:	00b806b3          	add	a3,a6,a1
    2b6c:	00c686b3          	add	a3,a3,a2
    2b70:	0006a683          	lw	a3,0(a3)
    2b74:	02a68063          	beq	a3,a0,2b94 <handle_input+0xd0>
    2b78:	00f4a023          	sw	a5,0(s1)
    2b7c:	00e4a223          	sw	a4,4(s1)
    2b80:	03c0006f          	j	2bbc <handle_input+0xf8>
    2b84:	f8061ae3          	bnez	a2,2b18 <handle_input+0x54>
    2b88:	1a050c63          	beqz	a0,2d40 <handle_input+0x27c>
    2b8c:	fff70713          	addi	a4,a4,-1
    2b90:	f91ff06f          	j	2b20 <handle_input+0x5c>
    2b94:	00006537          	lui	a0,0x6
    2b98:	b3850513          	addi	a0,a0,-1224 # 5b38 <__global_pointer+0x5b8>
    2b9c:	465010ef          	jal	4800 <print>
    2ba0:	00400693          	li	a3,4
    2ba4:	000057b7          	lui	a5,0x5
    2ba8:	da07a703          	lw	a4,-608(a5) # 4da0 <timer_event>
    2bac:	fe070ee3          	beqz	a4,2ba8 <handle_input+0xe4>
    2bb0:	da07a023          	sw	zero,-608(a5)
    2bb4:	fff68693          	addi	a3,a3,-1
    2bb8:	fe0698e3          	bnez	a3,2ba8 <handle_input+0xe4>
    2bbc:	04047793          	andi	a5,s0,64
    2bc0:	04078c63          	beqz	a5,2c18 <handle_input+0x154>
    2bc4:	0104a703          	lw	a4,16(s1)
    2bc8:	00800793          	li	a5,8
    2bcc:	16f70e63          	beq	a4,a5,2d48 <handle_input+0x284>
    2bd0:	0144a703          	lw	a4,20(s1)
    2bd4:	1cf70463          	beq	a4,a5,2d9c <handle_input+0x2d8>
    2bd8:	0184a703          	lw	a4,24(s1)
    2bdc:	1cf70463          	beq	a4,a5,2da4 <handle_input+0x2e0>
    2be0:	01c4a703          	lw	a4,28(s1)
    2be4:	1cf70863          	beq	a4,a5,2db4 <handle_input+0x2f0>
    2be8:	0204a703          	lw	a4,32(s1)
    2bec:	1cf70c63          	beq	a4,a5,2dc4 <handle_input+0x300>
    2bf0:	00006537          	lui	a0,0x6
    2bf4:	b8850513          	addi	a0,a0,-1144 # 5b88 <__global_pointer+0x608>
    2bf8:	409010ef          	jal	4800 <print>
    2bfc:	00400693          	li	a3,4
    2c00:	000057b7          	lui	a5,0x5
    2c04:	da07a703          	lw	a4,-608(a5) # 4da0 <timer_event>
    2c08:	fe070ee3          	beqz	a4,2c04 <handle_input+0x140>
    2c0c:	da07a023          	sw	zero,-608(a5)
    2c10:	fff68693          	addi	a3,a3,-1
    2c14:	fe0698e3          	bnez	a3,2c04 <handle_input+0x140>
    2c18:	08047413          	andi	s0,s0,128
    2c1c:	04040c63          	beqz	s0,2c74 <handle_input+0x1b0>
    2c20:	0104a703          	lw	a4,16(s1)
    2c24:	00700793          	li	a5,7
    2c28:	06f70463          	beq	a4,a5,2c90 <handle_input+0x1cc>
    2c2c:	0144a703          	lw	a4,20(s1)
    2c30:	04f70e63          	beq	a4,a5,2c8c <handle_input+0x1c8>
    2c34:	0184a703          	lw	a4,24(s1)
    2c38:	16f70a63          	beq	a4,a5,2dac <handle_input+0x2e8>
    2c3c:	01c4a703          	lw	a4,28(s1)
    2c40:	16f70e63          	beq	a4,a5,2dbc <handle_input+0x2f8>
    2c44:	0204a703          	lw	a4,32(s1)
    2c48:	18f70263          	beq	a4,a5,2dcc <handle_input+0x308>
    2c4c:	00006537          	lui	a0,0x6
    2c50:	ba850513          	addi	a0,a0,-1112 # 5ba8 <__global_pointer+0x628>
    2c54:	3ad010ef          	jal	4800 <print>
    2c58:	00400693          	li	a3,4
    2c5c:	000057b7          	lui	a5,0x5
    2c60:	da07a703          	lw	a4,-608(a5) # 4da0 <timer_event>
    2c64:	fe070ee3          	beqz	a4,2c60 <handle_input+0x19c>
    2c68:	da07a023          	sw	zero,-608(a5)
    2c6c:	fff68693          	addi	a3,a3,-1
    2c70:	fe0698e3          	bnez	a3,2c60 <handle_input+0x19c>
    2c74:	00c12083          	lw	ra,12(sp)
    2c78:	00812403          	lw	s0,8(sp)
    2c7c:	00412483          	lw	s1,4(sp)
    2c80:	00012903          	lw	s2,0(sp)
    2c84:	01010113          	addi	sp,sp,16
    2c88:	00008067          	ret
    2c8c:	00100913          	li	s2,1
    2c90:	0084a703          	lw	a4,8(s1)
    2c94:	00291793          	slli	a5,s2,0x2
    2c98:	00f487b3          	add	a5,s1,a5
    2c9c:	0007a823          	sw	zero,16(a5)
    2ca0:	03270793          	addi	a5,a4,50
    2ca4:	06300713          	li	a4,99
    2ca8:	08f74863          	blt	a4,a5,2d38 <handle_input+0x274>
    2cac:	00006537          	lui	a0,0x6
    2cb0:	00f4a423          	sw	a5,8(s1)
    2cb4:	bc450513          	addi	a0,a0,-1084 # 5bc4 <__global_pointer+0x644>
    2cb8:	349010ef          	jal	4800 <print>
    2cbc:	00400693          	li	a3,4
    2cc0:	000057b7          	lui	a5,0x5
    2cc4:	da07a703          	lw	a4,-608(a5) # 4da0 <timer_event>
    2cc8:	fe070ee3          	beqz	a4,2cc4 <handle_input+0x200>
    2ccc:	da07a023          	sw	zero,-608(a5)
    2cd0:	fff68693          	addi	a3,a3,-1
    2cd4:	fe0698e3          	bnez	a3,2cc4 <handle_input+0x200>
    2cd8:	00c12083          	lw	ra,12(sp)
    2cdc:	00812403          	lw	s0,8(sp)
    2ce0:	00412483          	lw	s1,4(sp)
    2ce4:	00012903          	lw	s2,0(sp)
    2ce8:	01010113          	addi	sp,sp,16
    2cec:	00008067          	ret
    2cf0:	19000593          	li	a1,400
    2cf4:	02b705b3          	mul	a1,a4,a1
    2cf8:	00279713          	slli	a4,a5,0x2
    2cfc:	00812403          	lw	s0,8(sp)
    2d00:	00f707b3          	add	a5,a4,a5
    2d04:	00c12083          	lw	ra,12(sp)
    2d08:	00012903          	lw	s2,0(sp)
    2d0c:	00379793          	slli	a5,a5,0x3
    2d10:	00050693          	mv	a3,a0
    2d14:	00048513          	mv	a0,s1
    2d18:	00412483          	lw	s1,4(sp)
    2d1c:	00f585b3          	add	a1,a1,a5
    2d20:	00b605b3          	add	a1,a2,a1
    2d24:	01010113          	addi	sp,sp,16
    2d28:	d11fe06f          	j	1a38 <interact_with_tile>
    2d2c:	00a03533          	snez	a0,a0
    2d30:	40a70733          	sub	a4,a4,a0
    2d34:	dedff06f          	j	2b20 <handle_input+0x5c>
    2d38:	00070793          	mv	a5,a4
    2d3c:	f71ff06f          	j	2cac <handle_input+0x1e8>
    2d40:	e6058ee3          	beqz	a1,2bbc <handle_input+0xf8>
    2d44:	dddff06f          	j	2b20 <handle_input+0x5c>
    2d48:	00000793          	li	a5,0
    2d4c:	0244a703          	lw	a4,36(s1)
    2d50:	00279793          	slli	a5,a5,0x2
    2d54:	00f487b3          	add	a5,s1,a5
    2d58:	0007a823          	sw	zero,16(a5)
    2d5c:	03270793          	addi	a5,a4,50
    2d60:	06300713          	li	a4,99
    2d64:	00f75463          	bge	a4,a5,2d6c <handle_input+0x2a8>
    2d68:	00070793          	mv	a5,a4
    2d6c:	00006537          	lui	a0,0x6
    2d70:	02f4a223          	sw	a5,36(s1)
    2d74:	b5c50513          	addi	a0,a0,-1188 # 5b5c <__global_pointer+0x5dc>
    2d78:	289010ef          	jal	4800 <print>
    2d7c:	00400693          	li	a3,4
    2d80:	000057b7          	lui	a5,0x5
    2d84:	da07a703          	lw	a4,-608(a5) # 4da0 <timer_event>
    2d88:	fe070ee3          	beqz	a4,2d84 <handle_input+0x2c0>
    2d8c:	da07a023          	sw	zero,-608(a5)
    2d90:	fff68693          	addi	a3,a3,-1
    2d94:	e80682e3          	beqz	a3,2c18 <handle_input+0x154>
    2d98:	fedff06f          	j	2d84 <handle_input+0x2c0>
    2d9c:	00100793          	li	a5,1
    2da0:	fadff06f          	j	2d4c <handle_input+0x288>
    2da4:	00200793          	li	a5,2
    2da8:	fa5ff06f          	j	2d4c <handle_input+0x288>
    2dac:	00200913          	li	s2,2
    2db0:	ee1ff06f          	j	2c90 <handle_input+0x1cc>
    2db4:	00300793          	li	a5,3
    2db8:	f95ff06f          	j	2d4c <handle_input+0x288>
    2dbc:	00300913          	li	s2,3
    2dc0:	ed1ff06f          	j	2c90 <handle_input+0x1cc>
    2dc4:	00400793          	li	a5,4
    2dc8:	f85ff06f          	j	2d4c <handle_input+0x288>
    2dcc:	00400913          	li	s2,4
    2dd0:	ec1ff06f          	j	2c90 <handle_input+0x1cc>

00002dd4 <start_game>:
    2dd4:	fffff2b7          	lui	t0,0xfffff
    2dd8:	f4010113          	addi	sp,sp,-192
    2ddc:	0a812c23          	sw	s0,184(sp)
    2de0:	0a112e23          	sw	ra,188(sp)
    2de4:	0a912a23          	sw	s1,180(sp)
    2de8:	0b212823          	sw	s2,176(sp)
    2dec:	0b412423          	sw	s4,168(sp)
    2df0:	0b512223          	sw	s5,164(sp)
    2df4:	0b312623          	sw	s3,172(sp)
    2df8:	00510133          	add	sp,sp,t0
    2dfc:	0a010413          	addi	s0,sp,160
    2e00:	3bd000ef          	jal	39bc <labinit>
    2e04:	06040513          	addi	a0,s0,96
    2e08:	00a00593          	li	a1,10
    2e0c:	750010ef          	jal	455c <ct>
    2e10:	08840513          	addi	a0,s0,136
    2e14:	00900593          	li	a1,9
    2e18:	744010ef          	jal	455c <ct>
    2e1c:	0b040513          	addi	a0,s0,176
    2e20:	00800593          	li	a1,8
    2e24:	738010ef          	jal	455c <ct>
    2e28:	0d840513          	addi	a0,s0,216
    2e2c:	00800593          	li	a1,8
    2e30:	72c010ef          	jal	455c <ct>
    2e34:	10040513          	addi	a0,s0,256
    2e38:	00800593          	li	a1,8
    2e3c:	720010ef          	jal	455c <ct>
    2e40:	12840513          	addi	a0,s0,296
    2e44:	00a00593          	li	a1,10
    2e48:	714010ef          	jal	455c <ct>
    2e4c:	15040513          	addi	a0,s0,336
    2e50:	00800593          	li	a1,8
    2e54:	708010ef          	jal	455c <ct>
    2e58:	17840513          	addi	a0,s0,376
    2e5c:	00800593          	li	a1,8
    2e60:	6fc010ef          	jal	455c <ct>
    2e64:	1a040513          	addi	a0,s0,416
    2e68:	00f00593          	li	a1,15
    2e6c:	6f0010ef          	jal	455c <ct>
    2e70:	1c840513          	addi	a0,s0,456
    2e74:	00a00593          	li	a1,10
    2e78:	6e4010ef          	jal	455c <ct>
    2e7c:	1f040513          	addi	a0,s0,496
    2e80:	00b00593          	li	a1,11
    2e84:	6d8010ef          	jal	455c <ct>
    2e88:	21840513          	addi	a0,s0,536
    2e8c:	00800593          	li	a1,8
    2e90:	6cc010ef          	jal	455c <ct>
    2e94:	24040513          	addi	a0,s0,576
    2e98:	00800593          	li	a1,8
    2e9c:	6c0010ef          	jal	455c <ct>
    2ea0:	26840513          	addi	a0,s0,616
    2ea4:	00800593          	li	a1,8
    2ea8:	6b4010ef          	jal	455c <ct>
    2eac:	29040513          	addi	a0,s0,656
    2eb0:	00800593          	li	a1,8
    2eb4:	6a8010ef          	jal	455c <ct>
    2eb8:	2b840513          	addi	a0,s0,696
    2ebc:	00800593          	li	a1,8
    2ec0:	69c010ef          	jal	455c <ct>
    2ec4:	2e040513          	addi	a0,s0,736
    2ec8:	00a00593          	li	a1,10
    2ecc:	690010ef          	jal	455c <ct>
    2ed0:	30840513          	addi	a0,s0,776
    2ed4:	00800593          	li	a1,8
    2ed8:	684010ef          	jal	455c <ct>
    2edc:	33040513          	addi	a0,s0,816
    2ee0:	00f00593          	li	a1,15
    2ee4:	678010ef          	jal	455c <ct>
    2ee8:	35840513          	addi	a0,s0,856
    2eec:	00e00593          	li	a1,14
    2ef0:	66c010ef          	jal	455c <ct>
    2ef4:	38040513          	addi	a0,s0,896
    2ef8:	01000593          	li	a1,16
    2efc:	660010ef          	jal	455c <ct>
    2f00:	3a840513          	addi	a0,s0,936
    2f04:	01000593          	li	a1,16
    2f08:	654010ef          	jal	455c <ct>
    2f0c:	3d040513          	addi	a0,s0,976
    2f10:	01000593          	li	a1,16
    2f14:	648010ef          	jal	455c <ct>
    2f18:	3f840513          	addi	a0,s0,1016
    2f1c:	00800593          	li	a1,8
    2f20:	63c010ef          	jal	455c <ct>
    2f24:	42040513          	addi	a0,s0,1056
    2f28:	00800593          	li	a1,8
    2f2c:	630010ef          	jal	455c <ct>
    2f30:	44840513          	addi	a0,s0,1096
    2f34:	00800593          	li	a1,8
    2f38:	624010ef          	jal	455c <ct>
    2f3c:	47040513          	addi	a0,s0,1136
    2f40:	00800593          	li	a1,8
    2f44:	618010ef          	jal	455c <ct>
    2f48:	49840513          	addi	a0,s0,1176
    2f4c:	00800593          	li	a1,8
    2f50:	60c010ef          	jal	455c <ct>
    2f54:	4c040513          	addi	a0,s0,1216
    2f58:	00f00593          	li	a1,15
    2f5c:	600010ef          	jal	455c <ct>
    2f60:	4e840513          	addi	a0,s0,1256
    2f64:	00e00593          	li	a1,14
    2f68:	5f4010ef          	jal	455c <ct>
    2f6c:	51040513          	addi	a0,s0,1296
    2f70:	00100593          	li	a1,1
    2f74:	5e8010ef          	jal	455c <ct>
    2f78:	53840513          	addi	a0,s0,1336
    2f7c:	00200593          	li	a1,2
    2f80:	5dc010ef          	jal	455c <ct>
    2f84:	56040513          	addi	a0,s0,1376
    2f88:	01000593          	li	a1,16
    2f8c:	5d0010ef          	jal	455c <ct>
    2f90:	58840513          	addi	a0,s0,1416
    2f94:	00800593          	li	a1,8
    2f98:	5c4010ef          	jal	455c <ct>
    2f9c:	5b040513          	addi	a0,s0,1456
    2fa0:	00800593          	li	a1,8
    2fa4:	5b8010ef          	jal	455c <ct>
    2fa8:	5d840513          	addi	a0,s0,1496
    2fac:	00800593          	li	a1,8
    2fb0:	5ac010ef          	jal	455c <ct>
    2fb4:	60040513          	addi	a0,s0,1536
    2fb8:	00b00593          	li	a1,11
    2fbc:	5a0010ef          	jal	455c <ct>
    2fc0:	62840513          	addi	a0,s0,1576
    2fc4:	00a00593          	li	a1,10
    2fc8:	594010ef          	jal	455c <ct>
    2fcc:	65040513          	addi	a0,s0,1616
    2fd0:	00f00593          	li	a1,15
    2fd4:	588010ef          	jal	455c <ct>
    2fd8:	67840513          	addi	a0,s0,1656
    2fdc:	00800593          	li	a1,8
    2fe0:	57c010ef          	jal	455c <ct>
    2fe4:	6a040513          	addi	a0,s0,1696
    2fe8:	00300593          	li	a1,3
    2fec:	570010ef          	jal	455c <ct>
    2ff0:	6c840513          	addi	a0,s0,1736
    2ff4:	00000593          	li	a1,0
    2ff8:	564010ef          	jal	455c <ct>
    2ffc:	6f040513          	addi	a0,s0,1776
    3000:	00600593          	li	a1,6
    3004:	558010ef          	jal	455c <ct>
    3008:	71840513          	addi	a0,s0,1816
    300c:	00700593          	li	a1,7
    3010:	54c010ef          	jal	455c <ct>
    3014:	74040513          	addi	a0,s0,1856
    3018:	00800593          	li	a1,8
    301c:	540010ef          	jal	455c <ct>
    3020:	76840513          	addi	a0,s0,1896
    3024:	00800593          	li	a1,8
    3028:	534010ef          	jal	455c <ct>
    302c:	79040513          	addi	a0,s0,1936
    3030:	00800593          	li	a1,8
    3034:	528010ef          	jal	455c <ct>
    3038:	7b840513          	addi	a0,s0,1976
    303c:	00800593          	li	a1,8
    3040:	51c010ef          	jal	455c <ct>
    3044:	7e040513          	addi	a0,s0,2016
    3048:	00f00593          	li	a1,15
    304c:	000014b7          	lui	s1,0x1
    3050:	50c010ef          	jal	455c <ct>
    3054:	8a848793          	addi	a5,s1,-1880 # 8a8 <update_status+0x38>
    3058:	00f10533          	add	a0,sp,a5
    305c:	00900593          	li	a1,9
    3060:	4fc010ef          	jal	455c <ct>
    3064:	8d048793          	addi	a5,s1,-1840
    3068:	00f10533          	add	a0,sp,a5
    306c:	00400593          	li	a1,4
    3070:	4ec010ef          	jal	455c <ct>
    3074:	8f848793          	addi	a5,s1,-1800
    3078:	00f10533          	add	a0,sp,a5
    307c:	00500593          	li	a1,5
    3080:	4dc010ef          	jal	455c <ct>
    3084:	92048793          	addi	a5,s1,-1760
    3088:	00f10533          	add	a0,sp,a5
    308c:	01000593          	li	a1,16
    3090:	4cc010ef          	jal	455c <ct>
    3094:	94848793          	addi	a5,s1,-1720
    3098:	00f10533          	add	a0,sp,a5
    309c:	00800593          	li	a1,8
    30a0:	4bc010ef          	jal	455c <ct>
    30a4:	97048793          	addi	a5,s1,-1680
    30a8:	00f10533          	add	a0,sp,a5
    30ac:	00800593          	li	a1,8
    30b0:	4ac010ef          	jal	455c <ct>
    30b4:	99848793          	addi	a5,s1,-1640
    30b8:	00f10533          	add	a0,sp,a5
    30bc:	00900593          	li	a1,9
    30c0:	49c010ef          	jal	455c <ct>
    30c4:	9c048793          	addi	a5,s1,-1600
    30c8:	00f10533          	add	a0,sp,a5
    30cc:	00800593          	li	a1,8
    30d0:	48c010ef          	jal	455c <ct>
    30d4:	9e848793          	addi	a5,s1,-1560
    30d8:	00f10533          	add	a0,sp,a5
    30dc:	00800593          	li	a1,8
    30e0:	47c010ef          	jal	455c <ct>
    30e4:	a1048793          	addi	a5,s1,-1520
    30e8:	00f10533          	add	a0,sp,a5
    30ec:	00f00593          	li	a1,15
    30f0:	46c010ef          	jal	455c <ct>
    30f4:	a3848793          	addi	a5,s1,-1480
    30f8:	00f10533          	add	a0,sp,a5
    30fc:	00800593          	li	a1,8
    3100:	45c010ef          	jal	455c <ct>
    3104:	a6048793          	addi	a5,s1,-1440
    3108:	00f10533          	add	a0,sp,a5
    310c:	01000593          	li	a1,16
    3110:	44c010ef          	jal	455c <ct>
    3114:	a8848793          	addi	a5,s1,-1400
    3118:	00f10533          	add	a0,sp,a5
    311c:	01000593          	li	a1,16
    3120:	43c010ef          	jal	455c <ct>
    3124:	ab048793          	addi	a5,s1,-1360
    3128:	00f10533          	add	a0,sp,a5
    312c:	01000593          	li	a1,16
    3130:	42c010ef          	jal	455c <ct>
    3134:	ad848793          	addi	a5,s1,-1320
    3138:	00f10533          	add	a0,sp,a5
    313c:	00b00593          	li	a1,11
    3140:	41c010ef          	jal	455c <ct>
    3144:	b0048793          	addi	a5,s1,-1280
    3148:	00f10533          	add	a0,sp,a5
    314c:	00800593          	li	a1,8
    3150:	40c010ef          	jal	455c <ct>
    3154:	b2848793          	addi	a5,s1,-1240
    3158:	00f10533          	add	a0,sp,a5
    315c:	00800593          	li	a1,8
    3160:	3fc010ef          	jal	455c <ct>
    3164:	b5048793          	addi	a5,s1,-1200
    3168:	00f10533          	add	a0,sp,a5
    316c:	00800593          	li	a1,8
    3170:	3ec010ef          	jal	455c <ct>
    3174:	b7848793          	addi	a5,s1,-1160
    3178:	00f10533          	add	a0,sp,a5
    317c:	00800593          	li	a1,8
    3180:	3dc010ef          	jal	455c <ct>
    3184:	ba048793          	addi	a5,s1,-1120
    3188:	00f10533          	add	a0,sp,a5
    318c:	00b00593          	li	a1,11
    3190:	3cc010ef          	jal	455c <ct>
    3194:	bc848793          	addi	a5,s1,-1080
    3198:	00f10533          	add	a0,sp,a5
    319c:	00800593          	li	a1,8
    31a0:	3bc010ef          	jal	455c <ct>
    31a4:	bf048793          	addi	a5,s1,-1040
    31a8:	00f10533          	add	a0,sp,a5
    31ac:	00800593          	li	a1,8
    31b0:	3ac010ef          	jal	455c <ct>
    31b4:	c1848793          	addi	a5,s1,-1000
    31b8:	00f10533          	add	a0,sp,a5
    31bc:	00800593          	li	a1,8
    31c0:	39c010ef          	jal	455c <ct>
    31c4:	c4048793          	addi	a5,s1,-960
    31c8:	00f10533          	add	a0,sp,a5
    31cc:	00900593          	li	a1,9
    31d0:	38c010ef          	jal	455c <ct>
    31d4:	c6848793          	addi	a5,s1,-920
    31d8:	00f10533          	add	a0,sp,a5
    31dc:	00800593          	li	a1,8
    31e0:	37c010ef          	jal	455c <ct>
    31e4:	c9048793          	addi	a5,s1,-880
    31e8:	00f10533          	add	a0,sp,a5
    31ec:	00800593          	li	a1,8
    31f0:	36c010ef          	jal	455c <ct>
    31f4:	cb848793          	addi	a5,s1,-840
    31f8:	00f10533          	add	a0,sp,a5
    31fc:	00e00593          	li	a1,14
    3200:	35c010ef          	jal	455c <ct>
    3204:	ce048793          	addi	a5,s1,-800
    3208:	00f10533          	add	a0,sp,a5
    320c:	00800593          	li	a1,8
    3210:	34c010ef          	jal	455c <ct>
    3214:	d0848793          	addi	a5,s1,-760
    3218:	00f10533          	add	a0,sp,a5
    321c:	00800593          	li	a1,8
    3220:	33c010ef          	jal	455c <ct>
    3224:	d3048793          	addi	a5,s1,-720
    3228:	00f10533          	add	a0,sp,a5
    322c:	00f00593          	li	a1,15
    3230:	32c010ef          	jal	455c <ct>
    3234:	d5848793          	addi	a5,s1,-680
    3238:	00f10533          	add	a0,sp,a5
    323c:	00800593          	li	a1,8
    3240:	31c010ef          	jal	455c <ct>
    3244:	d8048793          	addi	a5,s1,-640
    3248:	00f10533          	add	a0,sp,a5
    324c:	00d00593          	li	a1,13
    3250:	30c010ef          	jal	455c <ct>
    3254:	da848793          	addi	a5,s1,-600
    3258:	00f10533          	add	a0,sp,a5
    325c:	00800593          	li	a1,8
    3260:	2fc010ef          	jal	455c <ct>
    3264:	dd048793          	addi	a5,s1,-560
    3268:	00f10533          	add	a0,sp,a5
    326c:	00800593          	li	a1,8
    3270:	2ec010ef          	jal	455c <ct>
    3274:	df848793          	addi	a5,s1,-520
    3278:	00f10533          	add	a0,sp,a5
    327c:	00f00593          	li	a1,15
    3280:	2dc010ef          	jal	455c <ct>
    3284:	e2048793          	addi	a5,s1,-480
    3288:	00f10533          	add	a0,sp,a5
    328c:	00f00593          	li	a1,15
    3290:	2cc010ef          	jal	455c <ct>
    3294:	e4848793          	addi	a5,s1,-440
    3298:	00f10533          	add	a0,sp,a5
    329c:	00800593          	li	a1,8
    32a0:	2bc010ef          	jal	455c <ct>
    32a4:	e7048793          	addi	a5,s1,-400
    32a8:	00f10533          	add	a0,sp,a5
    32ac:	00f00593          	li	a1,15
    32b0:	2ac010ef          	jal	455c <ct>
    32b4:	e9848793          	addi	a5,s1,-360
    32b8:	00f10533          	add	a0,sp,a5
    32bc:	00f00593          	li	a1,15
    32c0:	29c010ef          	jal	455c <ct>
    32c4:	ec048793          	addi	a5,s1,-320
    32c8:	00f10533          	add	a0,sp,a5
    32cc:	00f00593          	li	a1,15
    32d0:	28c010ef          	jal	455c <ct>
    32d4:	ee848793          	addi	a5,s1,-280
    32d8:	00f10533          	add	a0,sp,a5
    32dc:	00a00593          	li	a1,10
    32e0:	27c010ef          	jal	455c <ct>
    32e4:	f1048793          	addi	a5,s1,-240
    32e8:	00f10533          	add	a0,sp,a5
    32ec:	00c00593          	li	a1,12
    32f0:	26c010ef          	jal	455c <ct>
    32f4:	f3848793          	addi	a5,s1,-200
    32f8:	00f10533          	add	a0,sp,a5
    32fc:	00800593          	li	a1,8
    3300:	25c010ef          	jal	455c <ct>
    3304:	f6048793          	addi	a5,s1,-160
    3308:	00f10533          	add	a0,sp,a5
    330c:	00800593          	li	a1,8
    3310:	24c010ef          	jal	455c <ct>
    3314:	f8848793          	addi	a5,s1,-120
    3318:	00f10533          	add	a0,sp,a5
    331c:	00f00593          	li	a1,15
    3320:	23c010ef          	jal	455c <ct>
    3324:	fb048793          	addi	a5,s1,-80
    3328:	00f10533          	add	a0,sp,a5
    332c:	00a00593          	li	a1,10
    3330:	22c010ef          	jal	455c <ct>
    3334:	fd848793          	addi	a5,s1,-40
    3338:	00f10533          	add	a0,sp,a5
    333c:	00800593          	li	a1,8
    3340:	21c010ef          	jal	455c <ct>
    3344:	00910533          	add	a0,sp,s1
    3348:	00800593          	li	a1,8
    334c:	210010ef          	jal	455c <ct>
    3350:	02848793          	addi	a5,s1,40
    3354:	00f10533          	add	a0,sp,a5
    3358:	00e00593          	li	a1,14
    335c:	200010ef          	jal	455c <ct>
    3360:	05048793          	addi	a5,s1,80
    3364:	00f10533          	add	a0,sp,a5
    3368:	00f00593          	li	a1,15
    336c:	1f0010ef          	jal	455c <ct>
    3370:	07848793          	addi	a5,s1,120
    3374:	00f10533          	add	a0,sp,a5
    3378:	00a00593          	li	a1,10
    337c:	1e0010ef          	jal	455c <ct>
    3380:	fc040513          	addi	a0,s0,-64
    3384:	548000ef          	jal	38cc <create_player>
    3388:	fc442e03          	lw	t3,-60(s0)
    338c:	19000a13          	li	s4,400
    3390:	fc042903          	lw	s2,-64(s0)
    3394:	034e0733          	mul	a4,t3,s4
    3398:	fc842383          	lw	t2,-56(s0)
    339c:	00291793          	slli	a5,s2,0x2
    33a0:	012787b3          	add	a5,a5,s2
    33a4:	00379793          	slli	a5,a5,0x3
    33a8:	fcc42283          	lw	t0,-52(s0)
    33ac:	fd042f83          	lw	t6,-48(s0)
    33b0:	fd442f03          	lw	t5,-44(s0)
    33b4:	fd842e83          	lw	t4,-40(s0)
    33b8:	10010493          	addi	s1,sp,256
    33bc:	00e787b3          	add	a5,a5,a4
    33c0:	00f407b3          	add	a5,s0,a5
    33c4:	0807a703          	lw	a4,128(a5)
    33c8:	0687a583          	lw	a1,104(a5)
    33cc:	06c7a503          	lw	a0,108(a5)
    33d0:	0707a303          	lw	t1,112(a5)
    33d4:	0747a883          	lw	a7,116(a5)
    33d8:	0787a803          	lw	a6,120(a5)
    33dc:	07c7a683          	lw	a3,124(a5)
    33e0:	0647a603          	lw	a2,100(a5)
    33e4:	0607aa83          	lw	s5,96(a5)
    33e8:	0847a783          	lw	a5,132(a5)
    33ec:	00e42423          	sw	a4,8(s0)
    33f0:	fec42623          	sw	a2,-20(s0)
    33f4:	feb42823          	sw	a1,-16(s0)
    33f8:	fea42a23          	sw	a0,-12(s0)
    33fc:	fe642c23          	sw	t1,-8(s0)
    3400:	ff142e23          	sw	a7,-4(s0)
    3404:	01042023          	sw	a6,0(s0)
    3408:	00d42223          	sw	a3,4(s0)
    340c:	f9242823          	sw	s2,-112(s0)
    3410:	00f42623          	sw	a5,12(s0)
    3414:	f9c42a23          	sw	t3,-108(s0)
    3418:	f8742c23          	sw	t2,-104(s0)
    341c:	ff542423          	sw	s5,-24(s0)
    3420:	f7542023          	sw	s5,-160(s0)
    3424:	fe442e03          	lw	t3,-28(s0)
    3428:	f6c42223          	sw	a2,-156(s0)
    342c:	f8f42223          	sw	a5,-124(s0)
    3430:	fdc42783          	lw	a5,-36(s0)
    3434:	03010913          	addi	s2,sp,48
    3438:	f6b42423          	sw	a1,-152(s0)
    343c:	faf42623          	sw	a5,-84(s0)
    3440:	fe042783          	lw	a5,-32(s0)
    3444:	f6a42623          	sw	a0,-148(s0)
    3448:	f8e42023          	sw	a4,-128(s0)
    344c:	faf42823          	sw	a5,-80(s0)
    3450:	00048613          	mv	a2,s1
    3454:	00010593          	mv	a1,sp
    3458:	00090513          	mv	a0,s2
    345c:	f6642823          	sw	t1,-144(s0)
    3460:	f7142a23          	sw	a7,-140(s0)
    3464:	f7042c23          	sw	a6,-136(s0)
    3468:	f6d42e23          	sw	a3,-132(s0)
    346c:	f8542e23          	sw	t0,-100(s0)
    3470:	fbf42023          	sw	t6,-96(s0)
    3474:	fbe42223          	sw	t5,-92(s0)
    3478:	fbd42423          	sw	t4,-88(s0)
    347c:	fbc42a23          	sw	t3,-76(s0)
    3480:	d2cfd0ef          	jal	9ac <display_frame>
    3484:	000057b7          	lui	a5,0x5
    3488:	da47a703          	lw	a4,-604(a5) # 4da4 <switch_event>
    348c:	2c071a63          	bnez	a4,3760 <start_game+0x98c>
    3490:	000057b7          	lui	a5,0x5
    3494:	da07a703          	lw	a4,-608(a5) # 4da0 <timer_event>
    3498:	18071663          	bnez	a4,3624 <start_game+0x850>
    349c:	00005437          	lui	s0,0x5
    34a0:	d9c42783          	lw	a5,-612(s0) # 4d9c <button_event>
    34a4:	22079463          	bnez	a5,36cc <start_game+0x8f8>
    34a8:	00001637          	lui	a2,0x1
    34ac:	8dc60613          	addi	a2,a2,-1828 # 8dc <update_status+0x6c>
    34b0:	78012683          	lw	a3,1920(sp)
    34b4:	78412703          	lw	a4,1924(sp)
    34b8:	07812e03          	lw	t3,120(sp)
    34bc:	07c12303          	lw	t1,124(sp)
    34c0:	08012883          	lw	a7,128(sp)
    34c4:	77412803          	lw	a6,1908(sp)
    34c8:	77812503          	lw	a0,1912(sp)
    34cc:	77c12583          	lw	a1,1916(sp)
    34d0:	00260633          	add	a2,a2,sp
    34d4:	00062603          	lw	a2,0(a2)
    34d8:	0a010793          	addi	a5,sp,160
    34dc:	04d7a823          	sw	a3,80(a5)
    34e0:	04e7aa23          	sw	a4,84(a5)
    34e4:	03c7a423          	sw	t3,40(a5)
    34e8:	0267a623          	sw	t1,44(a5)
    34ec:	0317a823          	sw	a7,48(a5)
    34f0:	0507a223          	sw	a6,68(a5)
    34f4:	04a7a423          	sw	a0,72(a5)
    34f8:	04b7a623          	sw	a1,76(a5)
    34fc:	00900693          	li	a3,9
    3500:	fd07a703          	lw	a4,-48(a5)
    3504:	fd47a783          	lw	a5,-44(a5)
    3508:	0ed61863          	bne	a2,a3,35f8 <start_game+0x824>
    350c:	ff670513          	addi	a0,a4,-10
    3510:	00600713          	li	a4,6
    3514:	00a73533          	sltu	a0,a4,a0
    3518:	40a00533          	neg	a0,a0
    351c:	ffe57513          	andi	a0,a0,-2
    3520:	ff678793          	addi	a5,a5,-10
    3524:	00350513          	addi	a0,a0,3
    3528:	00f76663          	bltu	a4,a5,3534 <start_game+0x760>
    352c:	00151513          	slli	a0,a0,0x1
    3530:	00150513          	addi	a0,a0,1
    3534:	0c812783          	lw	a5,200(sp)
    3538:	00600713          	li	a4,6
    353c:	ff678793          	addi	a5,a5,-10
    3540:	00f76663          	bltu	a4,a5,354c <start_game+0x778>
    3544:	00151513          	slli	a0,a0,0x1
    3548:	00150513          	addi	a0,a0,1
    354c:	0cc12783          	lw	a5,204(sp)
    3550:	00600713          	li	a4,6
    3554:	ff678793          	addi	a5,a5,-10
    3558:	00f76663          	bltu	a4,a5,3564 <start_game+0x790>
    355c:	00151513          	slli	a0,a0,0x1
    3560:	00150513          	addi	a0,a0,1
    3564:	0d012783          	lw	a5,208(sp)
    3568:	00600713          	li	a4,6
    356c:	ff678793          	addi	a5,a5,-10
    3570:	00f76663          	bltu	a4,a5,357c <start_game+0x7a8>
    3574:	00151513          	slli	a0,a0,0x1
    3578:	00150513          	addi	a0,a0,1
    357c:	0e412783          	lw	a5,228(sp)
    3580:	00600713          	li	a4,6
    3584:	ff678793          	addi	a5,a5,-10
    3588:	00f76663          	bltu	a4,a5,3594 <start_game+0x7c0>
    358c:	00151513          	slli	a0,a0,0x1
    3590:	00150513          	addi	a0,a0,1
    3594:	0e812783          	lw	a5,232(sp)
    3598:	00600713          	li	a4,6
    359c:	ff678793          	addi	a5,a5,-10
    35a0:	00f76663          	bltu	a4,a5,35ac <start_game+0x7d8>
    35a4:	00151513          	slli	a0,a0,0x1
    35a8:	00150513          	addi	a0,a0,1
    35ac:	0ec12783          	lw	a5,236(sp)
    35b0:	00600713          	li	a4,6
    35b4:	ff678793          	addi	a5,a5,-10
    35b8:	00f76663          	bltu	a4,a5,35c4 <start_game+0x7f0>
    35bc:	00151513          	slli	a0,a0,0x1
    35c0:	00150513          	addi	a0,a0,1
    35c4:	0f012783          	lw	a5,240(sp)
    35c8:	00600713          	li	a4,6
    35cc:	ff678793          	addi	a5,a5,-10
    35d0:	00f76663          	bltu	a4,a5,35dc <start_game+0x808>
    35d4:	00151513          	slli	a0,a0,0x1
    35d8:	00150513          	addi	a0,a0,1
    35dc:	0f412783          	lw	a5,244(sp)
    35e0:	00600713          	li	a4,6
    35e4:	ff678793          	addi	a5,a5,-10
    35e8:	00f76663          	bltu	a4,a5,35f4 <start_game+0x820>
    35ec:	00151513          	slli	a0,a0,0x1
    35f0:	00150513          	addi	a0,a0,1
    35f4:	3a4000ef          	jal	3998 <set_leds>
    35f8:	000012b7          	lui	t0,0x1
    35fc:	00510133          	add	sp,sp,t0
    3600:	0bc12083          	lw	ra,188(sp)
    3604:	0b812403          	lw	s0,184(sp)
    3608:	0b412483          	lw	s1,180(sp)
    360c:	0b012903          	lw	s2,176(sp)
    3610:	0ac12983          	lw	s3,172(sp)
    3614:	0a812a03          	lw	s4,168(sp)
    3618:	0a412a83          	lw	s5,164(sp)
    361c:	0c010113          	addi	sp,sp,192
    3620:	00008067          	ret
    3624:	0ac12683          	lw	a3,172(sp)
    3628:	da07a023          	sw	zero,-608(a5)
    362c:	00100793          	li	a5,1
    3630:	0a010713          	addi	a4,sp,160
    3634:	26f68463          	beq	a3,a5,389c <start_game+0xac8>
    3638:	22068863          	beqz	a3,3868 <start_game+0xa94>
    363c:	fcc72583          	lw	a1,-52(a4)
    3640:	08412683          	lw	a3,132(sp)
    3644:	06812603          	lw	a2,104(sp)
    3648:	fff68693          	addi	a3,a3,-1
    364c:	fff60613          	addi	a2,a2,-1
    3650:	08d12223          	sw	a3,132(sp)
    3654:	06c12423          	sw	a2,104(sp)
    3658:	22b05a63          	blez	a1,388c <start_game+0xab8>
    365c:	24d05863          	blez	a3,38ac <start_game+0xad8>
    3660:	24c05e63          	blez	a2,38bc <start_game+0xae8>
    3664:	06012f03          	lw	t5,96(sp)
    3668:	06412e83          	lw	t4,100(sp)
    366c:	06812e03          	lw	t3,104(sp)
    3670:	06c12303          	lw	t1,108(sp)
    3674:	07012883          	lw	a7,112(sp)
    3678:	07412803          	lw	a6,116(sp)
    367c:	07812583          	lw	a1,120(sp)
    3680:	07c12603          	lw	a2,124(sp)
    3684:	08012683          	lw	a3,128(sp)
    3688:	08412703          	lw	a4,132(sp)
    368c:	0a010793          	addi	a5,sp,160
    3690:	f9e7a823          	sw	t5,-112(a5)
    3694:	f9d7aa23          	sw	t4,-108(a5)
    3698:	f9c7ac23          	sw	t3,-104(a5)
    369c:	f867ae23          	sw	t1,-100(a5)
    36a0:	fb17a023          	sw	a7,-96(a5)
    36a4:	fb07a223          	sw	a6,-92(a5)
    36a8:	fab7a423          	sw	a1,-88(a5)
    36ac:	fac7a623          	sw	a2,-84(a5)
    36b0:	fad7a823          	sw	a3,-80(a5)
    36b4:	fae7aa23          	sw	a4,-76(a5)
    36b8:	03010513          	addi	a0,sp,48
    36bc:	828fd0ef          	jal	6e4 <update_display>
    36c0:	00005437          	lui	s0,0x5
    36c4:	d9c42783          	lw	a5,-612(s0) # 4d9c <button_event>
    36c8:	de0780e3          	beqz	a5,34a8 <start_game+0x6d4>
    36cc:	07c12603          	lw	a2,124(sp)
    36d0:	08012683          	lw	a3,128(sp)
    36d4:	08412703          	lw	a4,132(sp)
    36d8:	06012f03          	lw	t5,96(sp)
    36dc:	06412e83          	lw	t4,100(sp)
    36e0:	06812e03          	lw	t3,104(sp)
    36e4:	06c12303          	lw	t1,108(sp)
    36e8:	07012883          	lw	a7,112(sp)
    36ec:	07412803          	lw	a6,116(sp)
    36f0:	07812583          	lw	a1,120(sp)
    36f4:	0a010793          	addi	a5,sp,160
    36f8:	fac7a623          	sw	a2,-84(a5)
    36fc:	fad7a823          	sw	a3,-80(a5)
    3700:	fae7aa23          	sw	a4,-76(a5)
    3704:	f9e7a823          	sw	t5,-112(a5)
    3708:	f9d7aa23          	sw	t4,-108(a5)
    370c:	f9c7ac23          	sw	t3,-104(a5)
    3710:	f867ae23          	sw	t1,-100(a5)
    3714:	fb17a023          	sw	a7,-96(a5)
    3718:	fb07a223          	sw	a6,-92(a5)
    371c:	fab7a423          	sw	a1,-88(a5)
    3720:	03010513          	addi	a0,sp,48
    3724:	fc1fc0ef          	jal	6e4 <update_display>
    3728:	00005637          	lui	a2,0x5
    372c:	d9462703          	lw	a4,-620(a2) # 4d94 <current_display>
    3730:	555557b7          	lui	a5,0x55555
    3734:	55678793          	addi	a5,a5,1366 # 55555556 <_stack_end+0x5544f0fe>
    3738:	00170713          	addi	a4,a4,1
    373c:	02f717b3          	mulh	a5,a4,a5
    3740:	41f75693          	srai	a3,a4,0x1f
    3744:	d8042e23          	sw	zero,-612(s0)
    3748:	40d787b3          	sub	a5,a5,a3
    374c:	00179693          	slli	a3,a5,0x1
    3750:	00f687b3          	add	a5,a3,a5
    3754:	40f70733          	sub	a4,a4,a5
    3758:	d8e62a23          	sw	a4,-620(a2)
    375c:	d4dff06f          	j	34a8 <start_game+0x6d4>
    3760:	da07a223          	sw	zero,-604(a5)
    3764:	1ac000ef          	jal	3910 <get_sw>
    3768:	06010593          	addi	a1,sp,96
    376c:	00048613          	mv	a2,s1
    3770:	b54ff0ef          	jal	2ac4 <handle_input>
    3774:	fc442f83          	lw	t6,-60(s0)
    3778:	fc042703          	lw	a4,-64(s0)
    377c:	fc842a83          	lw	s5,-56(s0)
    3780:	034f8a33          	mul	s4,t6,s4
    3784:	00271793          	slli	a5,a4,0x2
    3788:	00e787b3          	add	a5,a5,a4
    378c:	00379793          	slli	a5,a5,0x3
    3790:	00048613          	mv	a2,s1
    3794:	fd842383          	lw	t2,-40(s0)
    3798:	fdc42283          	lw	t0,-36(s0)
    379c:	00010593          	mv	a1,sp
    37a0:	00090513          	mv	a0,s2
    37a4:	014787b3          	add	a5,a5,s4
    37a8:	00f407b3          	add	a5,s0,a5
    37ac:	0707ae03          	lw	t3,112(a5)
    37b0:	0747a303          	lw	t1,116(a5)
    37b4:	0787a883          	lw	a7,120(a5)
    37b8:	07c7a803          	lw	a6,124(a5)
    37bc:	0807a683          	lw	a3,128(a5)
    37c0:	0607aa03          	lw	s4,96(a5)
    37c4:	0647a483          	lw	s1,100(a5)
    37c8:	0687af03          	lw	t5,104(a5)
    37cc:	06c7ae83          	lw	t4,108(a5)
    37d0:	0847a783          	lw	a5,132(a5)
    37d4:	ff442423          	sw	s4,-24(s0)
    37d8:	f9f42a23          	sw	t6,-108(s0)
    37dc:	00f42623          	sw	a5,12(s0)
    37e0:	fe942623          	sw	s1,-20(s0)
    37e4:	ffe42823          	sw	t5,-16(s0)
    37e8:	ffd42a23          	sw	t4,-12(s0)
    37ec:	ffc42c23          	sw	t3,-8(s0)
    37f0:	fe642e23          	sw	t1,-4(s0)
    37f4:	01142023          	sw	a7,0(s0)
    37f8:	01042223          	sw	a6,4(s0)
    37fc:	00d42423          	sw	a3,8(s0)
    3800:	f8e42823          	sw	a4,-112(s0)
    3804:	f9542c23          	sw	s5,-104(s0)
    3808:	f7442023          	sw	s4,-160(s0)
    380c:	f6942223          	sw	s1,-156(s0)
    3810:	f7e42423          	sw	t5,-152(s0)
    3814:	fe442f83          	lw	t6,-28(s0)
    3818:	f7d42623          	sw	t4,-148(s0)
    381c:	f8f42223          	sw	a5,-124(s0)
    3820:	fcc42783          	lw	a5,-52(s0)
    3824:	f7c42823          	sw	t3,-144(s0)
    3828:	f6642a23          	sw	t1,-140(s0)
    382c:	f8f42e23          	sw	a5,-100(s0)
    3830:	fd042783          	lw	a5,-48(s0)
    3834:	f7142c23          	sw	a7,-136(s0)
    3838:	f7042e23          	sw	a6,-132(s0)
    383c:	faf42023          	sw	a5,-96(s0)
    3840:	fd442783          	lw	a5,-44(s0)
    3844:	f8d42023          	sw	a3,-128(s0)
    3848:	fa742423          	sw	t2,-88(s0)
    384c:	faf42223          	sw	a5,-92(s0)
    3850:	fe042783          	lw	a5,-32(s0)
    3854:	fa542623          	sw	t0,-84(s0)
    3858:	fbf42a23          	sw	t6,-76(s0)
    385c:	faf42823          	sw	a5,-80(s0)
    3860:	94cfd0ef          	jal	9ac <display_frame>
    3864:	c2dff06f          	j	3490 <start_game+0x6bc>
    3868:	fe472683          	lw	a3,-28(a4)
    386c:	fc872603          	lw	a2,-56(a4)
    3870:	06300793          	li	a5,99
    3874:	fff68693          	addi	a3,a3,-1
    3878:	fff60613          	addi	a2,a2,-1
    387c:	fed72223          	sw	a3,-28(a4)
    3880:	fcc72423          	sw	a2,-56(a4)
    3884:	fcf72623          	sw	a5,-52(a4)
    3888:	dd5ff06f          	j	365c <start_game+0x888>
    388c:	00005537          	lui	a0,0x5
    3890:	f1450513          	addi	a0,a0,-236 # 4f14 <CSWTCH.15+0xa8>
    3894:	76d000ef          	jal	4800 <print>
    3898:	0000006f          	j	3898 <start_game+0xac4>
    389c:	fcc72583          	lw	a1,-52(a4)
    38a0:	fff58593          	addi	a1,a1,-1
    38a4:	fcb72623          	sw	a1,-52(a4)
    38a8:	d99ff06f          	j	3640 <start_game+0x86c>
    38ac:	00005537          	lui	a0,0x5
    38b0:	f3c50513          	addi	a0,a0,-196 # 4f3c <CSWTCH.15+0xd0>
    38b4:	74d000ef          	jal	4800 <print>
    38b8:	0000006f          	j	38b8 <start_game+0xae4>
    38bc:	00005537          	lui	a0,0x5
    38c0:	f6450513          	addi	a0,a0,-156 # 4f64 <CSWTCH.15+0xf8>
    38c4:	73d000ef          	jal	4800 <print>
    38c8:	0000006f          	j	38c8 <start_game+0xaf4>

000038cc <create_player>:
    38cc:	06300713          	li	a4,99
    38d0:	00300693          	li	a3,3
    38d4:	00052023          	sw	zero,0(a0)
    38d8:	00052823          	sw	zero,16(a0)
    38dc:	00052a23          	sw	zero,20(a0)
    38e0:	00052c23          	sw	zero,24(a0)
    38e4:	00052e23          	sw	zero,28(a0)
    38e8:	02052023          	sw	zero,32(a0)
    38ec:	00d52223          	sw	a3,4(a0)
    38f0:	00e52423          	sw	a4,8(a0)
    38f4:	00e52623          	sw	a4,12(a0)
    38f8:	02e52223          	sw	a4,36(a0)
    38fc:	00008067          	ret

00003900 <get_btn>:
    3900:	040007b7          	lui	a5,0x4000
    3904:	0d07a503          	lw	a0,208(a5) # 40000d0 <_stack_end+0x3ef9c78>
    3908:	00157513          	andi	a0,a0,1
    390c:	00008067          	ret

00003910 <get_sw>:
    3910:	040007b7          	lui	a5,0x4000
    3914:	0107a503          	lw	a0,16(a5) # 4000010 <_stack_end+0x3ef9bb8>
    3918:	3ff57513          	andi	a0,a0,1023
    391c:	00008067          	ret

00003920 <set_displays>:
    3920:	00500793          	li	a5,5
    3924:	06a7e463          	bltu	a5,a0,398c <set_displays+0x6c>
    3928:	ff010113          	addi	sp,sp,-16
    392c:	00451513          	slli	a0,a0,0x4
    3930:	00a12623          	sw	a0,12(sp)
    3934:	fff58593          	addi	a1,a1,-1
    3938:	06300793          	li	a5,99
    393c:	04000693          	li	a3,64
    3940:	02b7f063          	bgeu	a5,a1,3960 <set_displays+0x40>
    3944:	00c12783          	lw	a5,12(sp)
    3948:	04000737          	lui	a4,0x4000
    394c:	05070713          	addi	a4,a4,80 # 4000050 <_stack_end+0x3ef9bf8>
    3950:	00e787b3          	add	a5,a5,a4
    3954:	00d7a023          	sw	a3,0(a5)
    3958:	01010113          	addi	sp,sp,16
    395c:	00008067          	ret
    3960:	000057b7          	lui	a5,0x5
    3964:	e6c78793          	addi	a5,a5,-404 # 4e6c <CSWTCH.15>
    3968:	00b787b3          	add	a5,a5,a1
    396c:	00078683          	lb	a3,0(a5)
    3970:	00c12783          	lw	a5,12(sp)
    3974:	04000737          	lui	a4,0x4000
    3978:	05070713          	addi	a4,a4,80 # 4000050 <_stack_end+0x3ef9bf8>
    397c:	00e787b3          	add	a5,a5,a4
    3980:	00d7a023          	sw	a3,0(a5)
    3984:	01010113          	addi	sp,sp,16
    3988:	00008067          	ret
    398c:	00006537          	lui	a0,0x6
    3990:	bf050513          	addi	a0,a0,-1040 # 5bf0 <__global_pointer+0x670>
    3994:	66d0006f          	j	4800 <print>

00003998 <set_leds>:
    3998:	000057b7          	lui	a5,0x5
    399c:	d907a783          	lw	a5,-624(a5) # 4d90 <led_start>
    39a0:	00a7a023          	sw	a0,0(a5)
    39a4:	00008067          	ret

000039a8 <get_leds>:
    39a8:	000057b7          	lui	a5,0x5
    39ac:	d907a783          	lw	a5,-624(a5) # 4d90 <led_start>
    39b0:	0007a503          	lw	a0,0(a5)
    39b4:	3ff57513          	andi	a0,a0,1023
    39b8:	00008067          	ret

000039bc <labinit>:
    39bc:	000057b7          	lui	a5,0x5
    39c0:	d847a683          	lw	a3,-636(a5) # 4d84 <timer_periodl>
    39c4:	000057b7          	lui	a5,0x5
    39c8:	d807a703          	lw	a4,-640(a5) # 4d80 <timer_periodh>
    39cc:	000057b7          	lui	a5,0x5
    39d0:	d887a783          	lw	a5,-632(a5) # 4d88 <timer_control>
    39d4:	6c000613          	li	a2,1728
    39d8:	00c6a023          	sw	a2,0(a3)
    39dc:	02d00693          	li	a3,45
    39e0:	00d72023          	sw	a3,0(a4)
    39e4:	00700693          	li	a3,7
    39e8:	00d7a023          	sw	a3,0(a5)
    39ec:	04000737          	lui	a4,0x4000
    39f0:	00100693          	li	a3,1
    39f4:	00070793          	mv	a5,a4
    39f8:	0cd72c23          	sw	a3,216(a4) # 40000d8 <_stack_end+0x3ef9c80>
    39fc:	3ff00713          	li	a4,1023
    3a00:	00e7ac23          	sw	a4,24(a5)
    3a04:	f6cfc06f          	j	170 <enable_interrupt>

00003a08 <handle_interrupt>:
    3a08:	01000793          	li	a5,16
    3a0c:	06f50063          	beq	a0,a5,3a6c <handle_interrupt+0x64>
    3a10:	01100793          	li	a5,17
    3a14:	02f50a63          	beq	a0,a5,3a48 <handle_interrupt+0x40>
    3a18:	01200793          	li	a5,18
    3a1c:	04f51663          	bne	a0,a5,3a68 <handle_interrupt+0x60>
    3a20:	040007b7          	lui	a5,0x4000
    3a24:	0c07ae23          	sw	zero,220(a5) # 40000dc <_stack_end+0x3ef9c84>
    3a28:	000057b7          	lui	a5,0x5
    3a2c:	d987a703          	lw	a4,-616(a5) # 4d98 <button_toggle>
    3a30:	02070863          	beqz	a4,3a60 <handle_interrupt+0x58>
    3a34:	00005737          	lui	a4,0x5
    3a38:	00100693          	li	a3,1
    3a3c:	d807ac23          	sw	zero,-616(a5)
    3a40:	d8d72e23          	sw	a3,-612(a4) # 4d9c <button_event>
    3a44:	00008067          	ret
    3a48:	040007b7          	lui	a5,0x4000
    3a4c:	0007ae23          	sw	zero,28(a5) # 400001c <_stack_end+0x3ef9bc4>
    3a50:	00100713          	li	a4,1
    3a54:	000057b7          	lui	a5,0x5
    3a58:	dae7a223          	sw	a4,-604(a5) # 4da4 <switch_event>
    3a5c:	00008067          	ret
    3a60:	00100713          	li	a4,1
    3a64:	d8e7ac23          	sw	a4,-616(a5)
    3a68:	00008067          	ret
    3a6c:	000057b7          	lui	a5,0x5
    3a70:	d8c7a683          	lw	a3,-628(a5) # 4d8c <timer_status>
    3a74:	000057b7          	lui	a5,0x5
    3a78:	00900613          	li	a2,9
    3a7c:	0006a703          	lw	a4,0(a3)
    3a80:	ffe77713          	andi	a4,a4,-2
    3a84:	00e6a023          	sw	a4,0(a3)
    3a88:	da87a703          	lw	a4,-600(a5) # 4da8 <timeoutcount>
    3a8c:	00170713          	addi	a4,a4,1
    3a90:	dae7a423          	sw	a4,-600(a5)
    3a94:	da87a703          	lw	a4,-600(a5)
    3a98:	fce658e3          	bge	a2,a4,3a68 <handle_interrupt+0x60>
    3a9c:	da07a423          	sw	zero,-600(a5)
    3aa0:	00100713          	li	a4,1
    3aa4:	000057b7          	lui	a5,0x5
    3aa8:	dae7a023          	sw	a4,-608(a5) # 4da0 <timer_event>
    3aac:	00008067          	ret

00003ab0 <add_to_inventory>:
    3ab0:	01052783          	lw	a5,16(a0)
    3ab4:	ef010113          	addi	sp,sp,-272
    3ab8:	10812423          	sw	s0,264(sp)
    3abc:	10112623          	sw	ra,268(sp)
    3ac0:	00010023          	sb	zero,0(sp)
    3ac4:	00058413          	mv	s0,a1
    3ac8:	04078063          	beqz	a5,3b08 <add_to_inventory+0x58>
    3acc:	01452783          	lw	a5,20(a0)
    3ad0:	08078e63          	beqz	a5,3b6c <add_to_inventory+0xbc>
    3ad4:	01852783          	lw	a5,24(a0)
    3ad8:	08078e63          	beqz	a5,3b74 <add_to_inventory+0xc4>
    3adc:	01c52783          	lw	a5,28(a0)
    3ae0:	08078e63          	beqz	a5,3b7c <add_to_inventory+0xcc>
    3ae4:	02052783          	lw	a5,32(a0)
    3ae8:	08078e63          	beqz	a5,3b84 <add_to_inventory+0xd4>
    3aec:	00006537          	lui	a0,0x6
    3af0:	c3450513          	addi	a0,a0,-972 # 5c34 <__global_pointer+0x6b4>
    3af4:	50d000ef          	jal	4800 <print>
    3af8:	10c12083          	lw	ra,268(sp)
    3afc:	10812403          	lw	s0,264(sp)
    3b00:	11010113          	addi	sp,sp,272
    3b04:	00008067          	ret
    3b08:	00000793          	li	a5,0
    3b0c:	00279793          	slli	a5,a5,0x2
    3b10:	00f50533          	add	a0,a0,a5
    3b14:	000065b7          	lui	a1,0x6
    3b18:	00852823          	sw	s0,16(a0)
    3b1c:	c0858593          	addi	a1,a1,-1016 # 5c08 <__global_pointer+0x688>
    3b20:	00010513          	mv	a0,sp
    3b24:	a79fc0ef          	jal	59c <append_str>
    3b28:	000057b7          	lui	a5,0x5
    3b2c:	00241593          	slli	a1,s0,0x2
    3b30:	cb478793          	addi	a5,a5,-844 # 4cb4 <COLLECTIBLE_NAMES>
    3b34:	00b787b3          	add	a5,a5,a1
    3b38:	0007a583          	lw	a1,0(a5)
    3b3c:	00010513          	mv	a0,sp
    3b40:	a5dfc0ef          	jal	59c <append_str>
    3b44:	000065b7          	lui	a1,0x6
    3b48:	00010513          	mv	a0,sp
    3b4c:	c1c58593          	addi	a1,a1,-996 # 5c1c <__global_pointer+0x69c>
    3b50:	a4dfc0ef          	jal	59c <append_str>
    3b54:	00010513          	mv	a0,sp
    3b58:	4a9000ef          	jal	4800 <print>
    3b5c:	10c12083          	lw	ra,268(sp)
    3b60:	10812403          	lw	s0,264(sp)
    3b64:	11010113          	addi	sp,sp,272
    3b68:	00008067          	ret
    3b6c:	00100793          	li	a5,1
    3b70:	f9dff06f          	j	3b0c <add_to_inventory+0x5c>
    3b74:	00200793          	li	a5,2
    3b78:	f95ff06f          	j	3b0c <add_to_inventory+0x5c>
    3b7c:	00300793          	li	a5,3
    3b80:	f8dff06f          	j	3b0c <add_to_inventory+0x5c>
    3b84:	00400793          	li	a5,4
    3b88:	f85ff06f          	j	3b0c <add_to_inventory+0x5c>

00003b8c <remove_from_inventory>:
    3b8c:	ee010113          	addi	sp,sp,-288
    3b90:	10112e23          	sw	ra,284(sp)
    3b94:	00010823          	sb	zero,16(sp)
    3b98:	00400793          	li	a5,4
    3b9c:	0eb7ee63          	bltu	a5,a1,3c98 <remove_from_inventory+0x10c>
    3ba0:	00259793          	slli	a5,a1,0x2
    3ba4:	10912a23          	sw	s1,276(sp)
    3ba8:	00f504b3          	add	s1,a0,a5
    3bac:	0104a783          	lw	a5,16(s1)
    3bb0:	10812c23          	sw	s0,280(sp)
    3bb4:	00158413          	addi	s0,a1,1
    3bb8:	04079c63          	bnez	a5,3c10 <remove_from_inventory+0x84>
    3bbc:	000065b7          	lui	a1,0x6
    3bc0:	01010513          	addi	a0,sp,16
    3bc4:	c8858593          	addi	a1,a1,-888 # 5c88 <__global_pointer+0x708>
    3bc8:	9d5fc0ef          	jal	59c <append_str>
    3bcc:	00040513          	mv	a0,s0
    3bd0:	00410593          	addi	a1,sp,4
    3bd4:	db0fc0ef          	jal	184 <int_to_str>
    3bd8:	00410593          	addi	a1,sp,4
    3bdc:	01010513          	addi	a0,sp,16
    3be0:	9bdfc0ef          	jal	59c <append_str>
    3be4:	000065b7          	lui	a1,0x6
    3be8:	01010513          	addi	a0,sp,16
    3bec:	c9858593          	addi	a1,a1,-872 # 5c98 <__global_pointer+0x718>
    3bf0:	9adfc0ef          	jal	59c <append_str>
    3bf4:	01010513          	addi	a0,sp,16
    3bf8:	409000ef          	jal	4800 <print>
    3bfc:	11c12083          	lw	ra,284(sp)
    3c00:	11812403          	lw	s0,280(sp)
    3c04:	11412483          	lw	s1,276(sp)
    3c08:	12010113          	addi	sp,sp,288
    3c0c:	00008067          	ret
    3c10:	000065b7          	lui	a1,0x6
    3c14:	01010513          	addi	a0,sp,16
    3c18:	c6458593          	addi	a1,a1,-924 # 5c64 <__global_pointer+0x6e4>
    3c1c:	981fc0ef          	jal	59c <append_str>
    3c20:	0104a703          	lw	a4,16(s1)
    3c24:	000057b7          	lui	a5,0x5
    3c28:	cb478793          	addi	a5,a5,-844 # 4cb4 <COLLECTIBLE_NAMES>
    3c2c:	00271713          	slli	a4,a4,0x2
    3c30:	00e787b3          	add	a5,a5,a4
    3c34:	0007a583          	lw	a1,0(a5)
    3c38:	01010513          	addi	a0,sp,16
    3c3c:	961fc0ef          	jal	59c <append_str>
    3c40:	000065b7          	lui	a1,0x6
    3c44:	01010513          	addi	a0,sp,16
    3c48:	c7058593          	addi	a1,a1,-912 # 5c70 <__global_pointer+0x6f0>
    3c4c:	951fc0ef          	jal	59c <append_str>
    3c50:	00040513          	mv	a0,s0
    3c54:	00410593          	addi	a1,sp,4
    3c58:	d2cfc0ef          	jal	184 <int_to_str>
    3c5c:	00410593          	addi	a1,sp,4
    3c60:	01010513          	addi	a0,sp,16
    3c64:	939fc0ef          	jal	59c <append_str>
    3c68:	000055b7          	lui	a1,0x5
    3c6c:	01010513          	addi	a0,sp,16
    3c70:	04c58593          	addi	a1,a1,76 # 504c <CSWTCH.15+0x1e0>
    3c74:	929fc0ef          	jal	59c <append_str>
    3c78:	01010513          	addi	a0,sp,16
    3c7c:	385000ef          	jal	4800 <print>
    3c80:	11c12083          	lw	ra,284(sp)
    3c84:	11812403          	lw	s0,280(sp)
    3c88:	0004a823          	sw	zero,16(s1)
    3c8c:	11412483          	lw	s1,276(sp)
    3c90:	12010113          	addi	sp,sp,288
    3c94:	00008067          	ret
    3c98:	00006537          	lui	a0,0x6
    3c9c:	cac50513          	addi	a0,a0,-852 # 5cac <__global_pointer+0x72c>
    3ca0:	361000ef          	jal	4800 <print>
    3ca4:	11c12083          	lw	ra,284(sp)
    3ca8:	12010113          	addi	sp,sp,288
    3cac:	00008067          	ret

00003cb0 <add_to_storage>:
    3cb0:	00c52783          	lw	a5,12(a0)
    3cb4:	ef010113          	addi	sp,sp,-272
    3cb8:	10812423          	sw	s0,264(sp)
    3cbc:	10112623          	sw	ra,268(sp)
    3cc0:	00010023          	sb	zero,0(sp)
    3cc4:	00058413          	mv	s0,a1
    3cc8:	04078063          	beqz	a5,3d08 <add_to_storage+0x58>
    3ccc:	01052783          	lw	a5,16(a0)
    3cd0:	08078e63          	beqz	a5,3d6c <add_to_storage+0xbc>
    3cd4:	01452783          	lw	a5,20(a0)
    3cd8:	08078e63          	beqz	a5,3d74 <add_to_storage+0xc4>
    3cdc:	01852783          	lw	a5,24(a0)
    3ce0:	08078e63          	beqz	a5,3d7c <add_to_storage+0xcc>
    3ce4:	01c52783          	lw	a5,28(a0)
    3ce8:	08078e63          	beqz	a5,3d84 <add_to_storage+0xd4>
    3cec:	00006537          	lui	a0,0x6
    3cf0:	ce050513          	addi	a0,a0,-800 # 5ce0 <__global_pointer+0x760>
    3cf4:	30d000ef          	jal	4800 <print>
    3cf8:	10c12083          	lw	ra,268(sp)
    3cfc:	10812403          	lw	s0,264(sp)
    3d00:	11010113          	addi	sp,sp,272
    3d04:	00008067          	ret
    3d08:	00000793          	li	a5,0
    3d0c:	00279793          	slli	a5,a5,0x2
    3d10:	00f50533          	add	a0,a0,a5
    3d14:	000065b7          	lui	a1,0x6
    3d18:	00852623          	sw	s0,12(a0)
    3d1c:	cc858593          	addi	a1,a1,-824 # 5cc8 <__global_pointer+0x748>
    3d20:	00010513          	mv	a0,sp
    3d24:	879fc0ef          	jal	59c <append_str>
    3d28:	000057b7          	lui	a5,0x5
    3d2c:	00241593          	slli	a1,s0,0x2
    3d30:	cb478793          	addi	a5,a5,-844 # 4cb4 <COLLECTIBLE_NAMES>
    3d34:	00b787b3          	add	a5,a5,a1
    3d38:	0007a583          	lw	a1,0(a5)
    3d3c:	00010513          	mv	a0,sp
    3d40:	85dfc0ef          	jal	59c <append_str>
    3d44:	000065b7          	lui	a1,0x6
    3d48:	00010513          	mv	a0,sp
    3d4c:	cd058593          	addi	a1,a1,-816 # 5cd0 <__global_pointer+0x750>
    3d50:	84dfc0ef          	jal	59c <append_str>
    3d54:	00010513          	mv	a0,sp
    3d58:	2a9000ef          	jal	4800 <print>
    3d5c:	10c12083          	lw	ra,268(sp)
    3d60:	10812403          	lw	s0,264(sp)
    3d64:	11010113          	addi	sp,sp,272
    3d68:	00008067          	ret
    3d6c:	00100793          	li	a5,1
    3d70:	f9dff06f          	j	3d0c <add_to_storage+0x5c>
    3d74:	00200793          	li	a5,2
    3d78:	f95ff06f          	j	3d0c <add_to_storage+0x5c>
    3d7c:	00300793          	li	a5,3
    3d80:	f8dff06f          	j	3d0c <add_to_storage+0x5c>
    3d84:	00400793          	li	a5,4
    3d88:	f85ff06f          	j	3d0c <add_to_storage+0x5c>

00003d8c <add_fuel_enginebay>:
    3d8c:	00c52783          	lw	a5,12(a0)
    3d90:	ef010113          	addi	sp,sp,-272
    3d94:	10112623          	sw	ra,268(sp)
    3d98:	00010023          	sb	zero,0(sp)
    3d9c:	00078e63          	beqz	a5,3db8 <add_fuel_enginebay+0x2c>
    3da0:	00006537          	lui	a0,0x6
    3da4:	d2050513          	addi	a0,a0,-736 # 5d20 <__global_pointer+0x7a0>
    3da8:	259000ef          	jal	4800 <print>
    3dac:	10c12083          	lw	ra,268(sp)
    3db0:	11010113          	addi	sp,sp,272
    3db4:	00008067          	ret
    3db8:	10812423          	sw	s0,264(sp)
    3dbc:	00058413          	mv	s0,a1
    3dc0:	000065b7          	lui	a1,0x6
    3dc4:	00852623          	sw	s0,12(a0)
    3dc8:	cc858593          	addi	a1,a1,-824 # 5cc8 <__global_pointer+0x748>
    3dcc:	00010513          	mv	a0,sp
    3dd0:	fccfc0ef          	jal	59c <append_str>
    3dd4:	000057b7          	lui	a5,0x5
    3dd8:	00241593          	slli	a1,s0,0x2
    3ddc:	cb478793          	addi	a5,a5,-844 # 4cb4 <COLLECTIBLE_NAMES>
    3de0:	00b787b3          	add	a5,a5,a1
    3de4:	0007a583          	lw	a1,0(a5)
    3de8:	00010513          	mv	a0,sp
    3dec:	fb0fc0ef          	jal	59c <append_str>
    3df0:	000065b7          	lui	a1,0x6
    3df4:	00010513          	mv	a0,sp
    3df8:	d0c58593          	addi	a1,a1,-756 # 5d0c <__global_pointer+0x78c>
    3dfc:	fa0fc0ef          	jal	59c <append_str>
    3e00:	00010513          	mv	a0,sp
    3e04:	1fd000ef          	jal	4800 <print>
    3e08:	10c12083          	lw	ra,268(sp)
    3e0c:	10812403          	lw	s0,264(sp)
    3e10:	11010113          	addi	sp,sp,272
    3e14:	00008067          	ret

00003e18 <remove_from_storage>:
    3e18:	ee010113          	addi	sp,sp,-288
    3e1c:	10112e23          	sw	ra,284(sp)
    3e20:	00010823          	sb	zero,16(sp)
    3e24:	00400793          	li	a5,4
    3e28:	0eb7ee63          	bltu	a5,a1,3f24 <remove_from_storage+0x10c>
    3e2c:	00259793          	slli	a5,a1,0x2
    3e30:	10912a23          	sw	s1,276(sp)
    3e34:	00f504b3          	add	s1,a0,a5
    3e38:	00c4a783          	lw	a5,12(s1)
    3e3c:	10812c23          	sw	s0,280(sp)
    3e40:	00158413          	addi	s0,a1,1
    3e44:	04079c63          	bnez	a5,3e9c <remove_from_storage+0x84>
    3e48:	000065b7          	lui	a1,0x6
    3e4c:	01010513          	addi	a0,sp,16
    3e50:	d6458593          	addi	a1,a1,-668 # 5d64 <__global_pointer+0x7e4>
    3e54:	f48fc0ef          	jal	59c <append_str>
    3e58:	00040513          	mv	a0,s0
    3e5c:	00410593          	addi	a1,sp,4
    3e60:	b24fc0ef          	jal	184 <int_to_str>
    3e64:	00410593          	addi	a1,sp,4
    3e68:	01010513          	addi	a0,sp,16
    3e6c:	f30fc0ef          	jal	59c <append_str>
    3e70:	000065b7          	lui	a1,0x6
    3e74:	01010513          	addi	a0,sp,16
    3e78:	c9858593          	addi	a1,a1,-872 # 5c98 <__global_pointer+0x718>
    3e7c:	f20fc0ef          	jal	59c <append_str>
    3e80:	01010513          	addi	a0,sp,16
    3e84:	17d000ef          	jal	4800 <print>
    3e88:	11c12083          	lw	ra,284(sp)
    3e8c:	11812403          	lw	s0,280(sp)
    3e90:	11412483          	lw	s1,276(sp)
    3e94:	12010113          	addi	sp,sp,288
    3e98:	00008067          	ret
    3e9c:	000065b7          	lui	a1,0x6
    3ea0:	01010513          	addi	a0,sp,16
    3ea4:	c6458593          	addi	a1,a1,-924 # 5c64 <__global_pointer+0x6e4>
    3ea8:	ef4fc0ef          	jal	59c <append_str>
    3eac:	00c4a703          	lw	a4,12(s1)
    3eb0:	000057b7          	lui	a5,0x5
    3eb4:	cb478793          	addi	a5,a5,-844 # 4cb4 <COLLECTIBLE_NAMES>
    3eb8:	00271713          	slli	a4,a4,0x2
    3ebc:	00e787b3          	add	a5,a5,a4
    3ec0:	0007a583          	lw	a1,0(a5)
    3ec4:	01010513          	addi	a0,sp,16
    3ec8:	ed4fc0ef          	jal	59c <append_str>
    3ecc:	000065b7          	lui	a1,0x6
    3ed0:	01010513          	addi	a0,sp,16
    3ed4:	d5058593          	addi	a1,a1,-688 # 5d50 <__global_pointer+0x7d0>
    3ed8:	ec4fc0ef          	jal	59c <append_str>
    3edc:	00040513          	mv	a0,s0
    3ee0:	00410593          	addi	a1,sp,4
    3ee4:	aa0fc0ef          	jal	184 <int_to_str>
    3ee8:	00410593          	addi	a1,sp,4
    3eec:	01010513          	addi	a0,sp,16
    3ef0:	eacfc0ef          	jal	59c <append_str>
    3ef4:	000055b7          	lui	a1,0x5
    3ef8:	01010513          	addi	a0,sp,16
    3efc:	04c58593          	addi	a1,a1,76 # 504c <CSWTCH.15+0x1e0>
    3f00:	e9cfc0ef          	jal	59c <append_str>
    3f04:	01010513          	addi	a0,sp,16
    3f08:	0f9000ef          	jal	4800 <print>
    3f0c:	11c12083          	lw	ra,284(sp)
    3f10:	11812403          	lw	s0,280(sp)
    3f14:	0004a623          	sw	zero,12(s1)
    3f18:	11412483          	lw	s1,276(sp)
    3f1c:	12010113          	addi	sp,sp,288
    3f20:	00008067          	ret
    3f24:	00006537          	lui	a0,0x6
    3f28:	d7450513          	addi	a0,a0,-652 # 5d74 <__global_pointer+0x7f4>
    3f2c:	0d5000ef          	jal	4800 <print>
    3f30:	11c12083          	lw	ra,284(sp)
    3f34:	12010113          	addi	sp,sp,288
    3f38:	00008067          	ret

00003f3c <check_storage>:
    3f3c:	ee010113          	addi	sp,sp,-288
    3f40:	10812c23          	sw	s0,280(sp)
    3f44:	00058413          	mv	s0,a1
    3f48:	0085a583          	lw	a1,8(a1)
    3f4c:	01010513          	addi	a0,sp,16
    3f50:	10112e23          	sw	ra,284(sp)
    3f54:	10912a23          	sw	s1,276(sp)
    3f58:	00010823          	sb	zero,16(sp)
    3f5c:	000054b7          	lui	s1,0x5
    3f60:	e3cfc0ef          	jal	59c <append_str>
    3f64:	04c48593          	addi	a1,s1,76 # 504c <CSWTCH.15+0x1e0>
    3f68:	01010513          	addi	a0,sp,16
    3f6c:	e30fc0ef          	jal	59c <append_str>
    3f70:	01010513          	addi	a0,sp,16
    3f74:	08d000ef          	jal	4800 <print>
    3f78:	00006537          	lui	a0,0x6
    3f7c:	d8c50513          	addi	a0,a0,-628 # 5d8c <__global_pointer+0x80c>
    3f80:	081000ef          	jal	4800 <print>
    3f84:	00c42783          	lw	a5,12(s0)
    3f88:	00900713          	li	a4,9
    3f8c:	ff978793          	addi	a5,a5,-7
    3f90:	04f77c63          	bgeu	a4,a5,3fe8 <check_storage+0xac>
    3f94:	01042783          	lw	a5,16(s0)
    3f98:	00900713          	li	a4,9
    3f9c:	ff978793          	addi	a5,a5,-7
    3fa0:	0cf77463          	bgeu	a4,a5,4068 <check_storage+0x12c>
    3fa4:	01442783          	lw	a5,20(s0)
    3fa8:	00900713          	li	a4,9
    3fac:	ff978793          	addi	a5,a5,-7
    3fb0:	12f77c63          	bgeu	a4,a5,40e8 <check_storage+0x1ac>
    3fb4:	01842783          	lw	a5,24(s0)
    3fb8:	00900713          	li	a4,9
    3fbc:	ff978793          	addi	a5,a5,-7
    3fc0:	1af77463          	bgeu	a4,a5,4168 <check_storage+0x22c>
    3fc4:	01c42783          	lw	a5,28(s0)
    3fc8:	00900713          	li	a4,9
    3fcc:	ff978793          	addi	a5,a5,-7
    3fd0:	20f77c63          	bgeu	a4,a5,41e8 <check_storage+0x2ac>
    3fd4:	11c12083          	lw	ra,284(sp)
    3fd8:	11812403          	lw	s0,280(sp)
    3fdc:	11412483          	lw	s1,276(sp)
    3fe0:	12010113          	addi	sp,sp,288
    3fe4:	00008067          	ret
    3fe8:	000055b7          	lui	a1,0x5
    3fec:	01458593          	addi	a1,a1,20 # 5014 <CSWTCH.15+0x1a8>
    3ff0:	01010513          	addi	a0,sp,16
    3ff4:	00010823          	sb	zero,16(sp)
    3ff8:	da4fc0ef          	jal	59c <append_str>
    3ffc:	00410593          	addi	a1,sp,4
    4000:	00100513          	li	a0,1
    4004:	980fc0ef          	jal	184 <int_to_str>
    4008:	00410593          	addi	a1,sp,4
    400c:	01010513          	addi	a0,sp,16
    4010:	d8cfc0ef          	jal	59c <append_str>
    4014:	000055b7          	lui	a1,0x5
    4018:	01010513          	addi	a0,sp,16
    401c:	01c58593          	addi	a1,a1,28 # 501c <CSWTCH.15+0x1b0>
    4020:	d7cfc0ef          	jal	59c <append_str>
    4024:	00c42703          	lw	a4,12(s0)
    4028:	000057b7          	lui	a5,0x5
    402c:	cb478793          	addi	a5,a5,-844 # 4cb4 <COLLECTIBLE_NAMES>
    4030:	00271713          	slli	a4,a4,0x2
    4034:	00e787b3          	add	a5,a5,a4
    4038:	0007a583          	lw	a1,0(a5)
    403c:	01010513          	addi	a0,sp,16
    4040:	d5cfc0ef          	jal	59c <append_str>
    4044:	04c48593          	addi	a1,s1,76
    4048:	01010513          	addi	a0,sp,16
    404c:	d50fc0ef          	jal	59c <append_str>
    4050:	01010513          	addi	a0,sp,16
    4054:	7ac000ef          	jal	4800 <print>
    4058:	01042783          	lw	a5,16(s0)
    405c:	00900713          	li	a4,9
    4060:	ff978793          	addi	a5,a5,-7
    4064:	f4f760e3          	bltu	a4,a5,3fa4 <check_storage+0x68>
    4068:	000055b7          	lui	a1,0x5
    406c:	01458593          	addi	a1,a1,20 # 5014 <CSWTCH.15+0x1a8>
    4070:	01010513          	addi	a0,sp,16
    4074:	00010823          	sb	zero,16(sp)
    4078:	d24fc0ef          	jal	59c <append_str>
    407c:	00410593          	addi	a1,sp,4
    4080:	00200513          	li	a0,2
    4084:	900fc0ef          	jal	184 <int_to_str>
    4088:	00410593          	addi	a1,sp,4
    408c:	01010513          	addi	a0,sp,16
    4090:	d0cfc0ef          	jal	59c <append_str>
    4094:	000055b7          	lui	a1,0x5
    4098:	01010513          	addi	a0,sp,16
    409c:	01c58593          	addi	a1,a1,28 # 501c <CSWTCH.15+0x1b0>
    40a0:	cfcfc0ef          	jal	59c <append_str>
    40a4:	01042703          	lw	a4,16(s0)
    40a8:	000057b7          	lui	a5,0x5
    40ac:	cb478793          	addi	a5,a5,-844 # 4cb4 <COLLECTIBLE_NAMES>
    40b0:	00271713          	slli	a4,a4,0x2
    40b4:	00e787b3          	add	a5,a5,a4
    40b8:	0007a583          	lw	a1,0(a5)
    40bc:	01010513          	addi	a0,sp,16
    40c0:	cdcfc0ef          	jal	59c <append_str>
    40c4:	04c48593          	addi	a1,s1,76
    40c8:	01010513          	addi	a0,sp,16
    40cc:	cd0fc0ef          	jal	59c <append_str>
    40d0:	01010513          	addi	a0,sp,16
    40d4:	72c000ef          	jal	4800 <print>
    40d8:	01442783          	lw	a5,20(s0)
    40dc:	00900713          	li	a4,9
    40e0:	ff978793          	addi	a5,a5,-7
    40e4:	ecf768e3          	bltu	a4,a5,3fb4 <check_storage+0x78>
    40e8:	000055b7          	lui	a1,0x5
    40ec:	01458593          	addi	a1,a1,20 # 5014 <CSWTCH.15+0x1a8>
    40f0:	01010513          	addi	a0,sp,16
    40f4:	00010823          	sb	zero,16(sp)
    40f8:	ca4fc0ef          	jal	59c <append_str>
    40fc:	00410593          	addi	a1,sp,4
    4100:	00300513          	li	a0,3
    4104:	880fc0ef          	jal	184 <int_to_str>
    4108:	00410593          	addi	a1,sp,4
    410c:	01010513          	addi	a0,sp,16
    4110:	c8cfc0ef          	jal	59c <append_str>
    4114:	000055b7          	lui	a1,0x5
    4118:	01010513          	addi	a0,sp,16
    411c:	01c58593          	addi	a1,a1,28 # 501c <CSWTCH.15+0x1b0>
    4120:	c7cfc0ef          	jal	59c <append_str>
    4124:	01442703          	lw	a4,20(s0)
    4128:	000057b7          	lui	a5,0x5
    412c:	cb478793          	addi	a5,a5,-844 # 4cb4 <COLLECTIBLE_NAMES>
    4130:	00271713          	slli	a4,a4,0x2
    4134:	00e787b3          	add	a5,a5,a4
    4138:	0007a583          	lw	a1,0(a5)
    413c:	01010513          	addi	a0,sp,16
    4140:	c5cfc0ef          	jal	59c <append_str>
    4144:	04c48593          	addi	a1,s1,76
    4148:	01010513          	addi	a0,sp,16
    414c:	c50fc0ef          	jal	59c <append_str>
    4150:	01010513          	addi	a0,sp,16
    4154:	6ac000ef          	jal	4800 <print>
    4158:	01842783          	lw	a5,24(s0)
    415c:	00900713          	li	a4,9
    4160:	ff978793          	addi	a5,a5,-7
    4164:	e6f760e3          	bltu	a4,a5,3fc4 <check_storage+0x88>
    4168:	000055b7          	lui	a1,0x5
    416c:	01458593          	addi	a1,a1,20 # 5014 <CSWTCH.15+0x1a8>
    4170:	01010513          	addi	a0,sp,16
    4174:	00010823          	sb	zero,16(sp)
    4178:	c24fc0ef          	jal	59c <append_str>
    417c:	00410593          	addi	a1,sp,4
    4180:	00400513          	li	a0,4
    4184:	800fc0ef          	jal	184 <int_to_str>
    4188:	00410593          	addi	a1,sp,4
    418c:	01010513          	addi	a0,sp,16
    4190:	c0cfc0ef          	jal	59c <append_str>
    4194:	000055b7          	lui	a1,0x5
    4198:	01010513          	addi	a0,sp,16
    419c:	01c58593          	addi	a1,a1,28 # 501c <CSWTCH.15+0x1b0>
    41a0:	bfcfc0ef          	jal	59c <append_str>
    41a4:	01842703          	lw	a4,24(s0)
    41a8:	000057b7          	lui	a5,0x5
    41ac:	cb478793          	addi	a5,a5,-844 # 4cb4 <COLLECTIBLE_NAMES>
    41b0:	00271713          	slli	a4,a4,0x2
    41b4:	00e787b3          	add	a5,a5,a4
    41b8:	0007a583          	lw	a1,0(a5)
    41bc:	01010513          	addi	a0,sp,16
    41c0:	bdcfc0ef          	jal	59c <append_str>
    41c4:	04c48593          	addi	a1,s1,76
    41c8:	01010513          	addi	a0,sp,16
    41cc:	bd0fc0ef          	jal	59c <append_str>
    41d0:	01010513          	addi	a0,sp,16
    41d4:	62c000ef          	jal	4800 <print>
    41d8:	01c42783          	lw	a5,28(s0)
    41dc:	00900713          	li	a4,9
    41e0:	ff978793          	addi	a5,a5,-7
    41e4:	def768e3          	bltu	a4,a5,3fd4 <check_storage+0x98>
    41e8:	000055b7          	lui	a1,0x5
    41ec:	01010513          	addi	a0,sp,16
    41f0:	01458593          	addi	a1,a1,20 # 5014 <CSWTCH.15+0x1a8>
    41f4:	00010823          	sb	zero,16(sp)
    41f8:	ba4fc0ef          	jal	59c <append_str>
    41fc:	00410593          	addi	a1,sp,4
    4200:	00500513          	li	a0,5
    4204:	f81fb0ef          	jal	184 <int_to_str>
    4208:	00410593          	addi	a1,sp,4
    420c:	01010513          	addi	a0,sp,16
    4210:	b8cfc0ef          	jal	59c <append_str>
    4214:	000055b7          	lui	a1,0x5
    4218:	01010513          	addi	a0,sp,16
    421c:	01c58593          	addi	a1,a1,28 # 501c <CSWTCH.15+0x1b0>
    4220:	b7cfc0ef          	jal	59c <append_str>
    4224:	01c42703          	lw	a4,28(s0)
    4228:	000057b7          	lui	a5,0x5
    422c:	cb478793          	addi	a5,a5,-844 # 4cb4 <COLLECTIBLE_NAMES>
    4230:	00271713          	slli	a4,a4,0x2
    4234:	00e787b3          	add	a5,a5,a4
    4238:	0007a583          	lw	a1,0(a5)
    423c:	01010513          	addi	a0,sp,16
    4240:	b5cfc0ef          	jal	59c <append_str>
    4244:	04c48593          	addi	a1,s1,76
    4248:	01010513          	addi	a0,sp,16
    424c:	b50fc0ef          	jal	59c <append_str>
    4250:	01010513          	addi	a0,sp,16
    4254:	5ac000ef          	jal	4800 <print>
    4258:	11c12083          	lw	ra,284(sp)
    425c:	11812403          	lw	s0,280(sp)
    4260:	11412483          	lw	s1,276(sp)
    4264:	12010113          	addi	sp,sp,288
    4268:	00008067          	ret

0000426c <main>:
    426c:	00006537          	lui	a0,0x6
    4270:	ff010113          	addi	sp,sp,-16
    4274:	fa450513          	addi	a0,a0,-92 # 5fa4 <__global_pointer+0xa24>
    4278:	00112623          	sw	ra,12(sp)
    427c:	00812423          	sw	s0,8(sp)
    4280:	580000ef          	jal	4800 <print>
    4284:	b0001073          	csrw	mcycle,zero
    4288:	00006537          	lui	a0,0x6
    428c:	fb050513          	addi	a0,a0,-80 # 5fb0 <__global_pointer+0xa30>
    4290:	570000ef          	jal	4800 <print>
    4294:	b0002473          	csrr	s0,mcycle
    4298:	00040513          	mv	a0,s0
    429c:	59c000ef          	jal	4838 <print_dec>
    42a0:	00005537          	lui	a0,0x5
    42a4:	04c50513          	addi	a0,a0,76 # 504c <CSWTCH.15+0x1e0>
    42a8:	558000ef          	jal	4800 <print>
    42ac:	00c12083          	lw	ra,12(sp)
    42b0:	00812403          	lw	s0,8(sp)
    42b4:	00000513          	li	a0,0
    42b8:	01010113          	addi	sp,sp,16
    42bc:	00008067          	ret

000042c0 <storage>:
    42c0:	00006737          	lui	a4,0x6
    42c4:	00100593          	li	a1,1
    42c8:	fd070713          	addi	a4,a4,-48 # 5fd0 <__global_pointer+0xa50>
    42cc:	00700613          	li	a2,7
    42d0:	00900693          	li	a3,9
    42d4:	fd010113          	addi	sp,sp,-48
    42d8:	00052023          	sw	zero,0(a0)
    42dc:	00052a23          	sw	zero,20(a0)
    42e0:	00052c23          	sw	zero,24(a0)
    42e4:	00052e23          	sw	zero,28(a0)
    42e8:	02052023          	sw	zero,32(a0)
    42ec:	02052223          	sw	zero,36(a0)
    42f0:	00b52223          	sw	a1,4(a0)
    42f4:	00e52423          	sw	a4,8(a0)
    42f8:	00c52623          	sw	a2,12(a0)
    42fc:	00d52823          	sw	a3,16(a0)
    4300:	03010113          	addi	sp,sp,48
    4304:	00008067          	ret

00004308 <chambers>:
    4308:	00006737          	lui	a4,0x6
    430c:	00100693          	li	a3,1
    4310:	04070713          	addi	a4,a4,64 # 6040 <__global_pointer+0xac0>
    4314:	02052223          	sw	zero,36(a0)
    4318:	00d52023          	sw	a3,0(a0)
    431c:	00e52423          	sw	a4,8(a0)
    4320:	00008067          	ret

00004324 <cockpit>:
    4324:	00006737          	lui	a4,0x6
    4328:	00200613          	li	a2,2
    432c:	00100693          	li	a3,1
    4330:	08070713          	addi	a4,a4,128 # 6080 <__global_pointer+0xb00>
    4334:	02052223          	sw	zero,36(a0)
    4338:	00c52023          	sw	a2,0(a0)
    433c:	00d52223          	sw	a3,4(a0)
    4340:	00e52423          	sw	a4,8(a0)
    4344:	00008067          	ret

00004348 <cafeteria>:
    4348:	00006737          	lui	a4,0x6
    434c:	00300613          	li	a2,3
    4350:	0d070713          	addi	a4,a4,208 # 60d0 <__global_pointer+0xb50>
    4354:	00700693          	li	a3,7
    4358:	02052223          	sw	zero,36(a0)
    435c:	00c52023          	sw	a2,0(a0)
    4360:	00e52423          	sw	a4,8(a0)
    4364:	02d52023          	sw	a3,32(a0)
    4368:	00008067          	ret

0000436c <engine_bay>:
    436c:	fd010113          	addi	sp,sp,-48
    4370:	00c12683          	lw	a3,12(sp)
    4374:	00006737          	lui	a4,0x6
    4378:	00400613          	li	a2,4
    437c:	10470713          	addi	a4,a4,260 # 6104 <__global_pointer+0xb84>
    4380:	00052623          	sw	zero,12(a0)
    4384:	00052823          	sw	zero,16(a0)
    4388:	00052a23          	sw	zero,20(a0)
    438c:	00052c23          	sw	zero,24(a0)
    4390:	00052e23          	sw	zero,28(a0)
    4394:	02052023          	sw	zero,32(a0)
    4398:	02052223          	sw	zero,36(a0)
    439c:	00c52023          	sw	a2,0(a0)
    43a0:	00d52223          	sw	a3,4(a0)
    43a4:	00e52423          	sw	a4,8(a0)
    43a8:	03010113          	addi	sp,sp,48
    43ac:	00008067          	ret

000043b0 <laboratory>:
    43b0:	00006737          	lui	a4,0x6
    43b4:	00500693          	li	a3,5
    43b8:	14470713          	addi	a4,a4,324 # 6144 <__global_pointer+0xbc4>
    43bc:	02052223          	sw	zero,36(a0)
    43c0:	00d52023          	sw	a3,0(a0)
    43c4:	00e52423          	sw	a4,8(a0)
    43c8:	00008067          	ret

000043cc <airlock>:
    43cc:	00006737          	lui	a4,0x6
    43d0:	00600693          	li	a3,6
    43d4:	17870713          	addi	a4,a4,376 # 6178 <__global_pointer+0xbf8>
    43d8:	02052223          	sw	zero,36(a0)
    43dc:	00d52023          	sw	a3,0(a0)
    43e0:	00e52423          	sw	a4,8(a0)
    43e4:	00008067          	ret

000043e8 <landing_site>:
    43e8:	00006737          	lui	a4,0x6
    43ec:	00100693          	li	a3,1
    43f0:	00700593          	li	a1,7
    43f4:	1c870713          	addi	a4,a4,456 # 61c8 <__global_pointer+0xc48>
    43f8:	00b00613          	li	a2,11
    43fc:	00b52023          	sw	a1,0(a0)
    4400:	00e52423          	sw	a4,8(a0)
    4404:	00c52623          	sw	a2,12(a0)
    4408:	00d52223          	sw	a3,4(a0)
    440c:	02d52223          	sw	a3,36(a0)
    4410:	00008067          	ret

00004414 <wasteland>:
    4414:	00006737          	lui	a4,0x6
    4418:	00800613          	li	a2,8
    441c:	20870713          	addi	a4,a4,520 # 6208 <__global_pointer+0xc88>
    4420:	00100693          	li	a3,1
    4424:	00c52023          	sw	a2,0(a0)
    4428:	00e52423          	sw	a4,8(a0)
    442c:	02d52223          	sw	a3,36(a0)
    4430:	00008067          	ret

00004434 <loose_soil>:
    4434:	00006737          	lui	a4,0x6
    4438:	00900613          	li	a2,9
    443c:	22c70713          	addi	a4,a4,556 # 622c <__global_pointer+0xcac>
    4440:	00100693          	li	a3,1
    4444:	00c52023          	sw	a2,0(a0)
    4448:	00e52423          	sw	a4,8(a0)
    444c:	02d52223          	sw	a3,36(a0)
    4450:	00008067          	ret

00004454 <pond>:
    4454:	00006737          	lui	a4,0x6
    4458:	26c70693          	addi	a3,a4,620 # 626c <__global_pointer+0xcec>
    445c:	00a00613          	li	a2,10
    4460:	00100713          	li	a4,1
    4464:	00c52023          	sw	a2,0(a0)
    4468:	00d52423          	sw	a3,8(a0)
    446c:	00e52623          	sw	a4,12(a0)
    4470:	02e52023          	sw	a4,32(a0)
    4474:	02e52223          	sw	a4,36(a0)
    4478:	00008067          	ret

0000447c <sharp_rocks>:
    447c:	00006737          	lui	a4,0x6
    4480:	00b00613          	li	a2,11
    4484:	28c70713          	addi	a4,a4,652 # 628c <__global_pointer+0xd0c>
    4488:	00100693          	li	a3,1
    448c:	00c52023          	sw	a2,0(a0)
    4490:	00e52423          	sw	a4,8(a0)
    4494:	02d52223          	sw	a3,36(a0)
    4498:	00008067          	ret

0000449c <cave>:
    449c:	00006737          	lui	a4,0x6
    44a0:	00400693          	li	a3,4
    44a4:	00c00593          	li	a1,12
    44a8:	2e870713          	addi	a4,a4,744 # 62e8 <__global_pointer+0xd68>
    44ac:	00100613          	li	a2,1
    44b0:	00b52023          	sw	a1,0(a0)
    44b4:	00e52423          	sw	a4,8(a0)
    44b8:	02c52223          	sw	a2,36(a0)
    44bc:	00d52623          	sw	a3,12(a0)
    44c0:	02d52023          	sw	a3,32(a0)
    44c4:	00008067          	ret

000044c8 <crater>:
    44c8:	00006737          	lui	a4,0x6
    44cc:	00200693          	li	a3,2
    44d0:	00d00593          	li	a1,13
    44d4:	31c70713          	addi	a4,a4,796 # 631c <__global_pointer+0xd9c>
    44d8:	00100613          	li	a2,1
    44dc:	00b52023          	sw	a1,0(a0)
    44e0:	00e52423          	sw	a4,8(a0)
    44e4:	02c52223          	sw	a2,36(a0)
    44e8:	00d52623          	sw	a3,12(a0)
    44ec:	02d52023          	sw	a3,32(a0)
    44f0:	00008067          	ret

000044f4 <canyon>:
    44f4:	00006737          	lui	a4,0x6
    44f8:	00300693          	li	a3,3
    44fc:	00e00593          	li	a1,14
    4500:	34070713          	addi	a4,a4,832 # 6340 <__global_pointer+0xdc0>
    4504:	00100613          	li	a2,1
    4508:	00b52023          	sw	a1,0(a0)
    450c:	00e52423          	sw	a4,8(a0)
    4510:	02c52223          	sw	a2,36(a0)
    4514:	00d52623          	sw	a3,12(a0)
    4518:	02d52023          	sw	a3,32(a0)
    451c:	00008067          	ret

00004520 <mountain>:
    4520:	00006737          	lui	a4,0x6
    4524:	00f00613          	li	a2,15
    4528:	37070713          	addi	a4,a4,880 # 6370 <__global_pointer+0xdf0>
    452c:	00100693          	li	a3,1
    4530:	00c52023          	sw	a2,0(a0)
    4534:	00e52423          	sw	a4,8(a0)
    4538:	02d52223          	sw	a3,36(a0)
    453c:	00008067          	ret

00004540 <empty>:
    4540:	00006737          	lui	a4,0x6
    4544:	01000693          	li	a3,16
    4548:	3a470713          	addi	a4,a4,932 # 63a4 <__global_pointer+0xe24>
    454c:	02052223          	sw	zero,36(a0)
    4550:	00d52023          	sw	a3,0(a0)
    4554:	00e52423          	sw	a4,8(a0)
    4558:	00008067          	ret

0000455c <ct>:
    455c:	01000793          	li	a5,16
    4560:	26b7e063          	bltu	a5,a1,47c0 <ct+0x264>
    4564:	000057b7          	lui	a5,0x5
    4568:	ed078793          	addi	a5,a5,-304 # 4ed0 <CSWTCH.15+0x64>
    456c:	00259593          	slli	a1,a1,0x2
    4570:	00f585b3          	add	a1,a1,a5
    4574:	0005a783          	lw	a5,0(a1)
    4578:	00078067          	jr	a5
    457c:	000067b7          	lui	a5,0x6
    4580:	3a478793          	addi	a5,a5,932 # 63a4 <__global_pointer+0xe24>
    4584:	01000713          	li	a4,16
    4588:	02052223          	sw	zero,36(a0)
    458c:	00f52423          	sw	a5,8(a0)
    4590:	00e52023          	sw	a4,0(a0)
    4594:	00008067          	ret
    4598:	000067b7          	lui	a5,0x6
    459c:	fd078793          	addi	a5,a5,-48 # 5fd0 <__global_pointer+0xa50>
    45a0:	00700613          	li	a2,7
    45a4:	00900693          	li	a3,9
    45a8:	00100713          	li	a4,1
    45ac:	00052023          	sw	zero,0(a0)
    45b0:	00052a23          	sw	zero,20(a0)
    45b4:	00052c23          	sw	zero,24(a0)
    45b8:	00052e23          	sw	zero,28(a0)
    45bc:	02052023          	sw	zero,32(a0)
    45c0:	02052223          	sw	zero,36(a0)
    45c4:	00f52423          	sw	a5,8(a0)
    45c8:	00c52623          	sw	a2,12(a0)
    45cc:	00d52823          	sw	a3,16(a0)
    45d0:	00e52223          	sw	a4,4(a0)
    45d4:	00008067          	ret
    45d8:	000067b7          	lui	a5,0x6
    45dc:	04078793          	addi	a5,a5,64 # 6040 <__global_pointer+0xac0>
    45e0:	00100713          	li	a4,1
    45e4:	02052223          	sw	zero,36(a0)
    45e8:	00f52423          	sw	a5,8(a0)
    45ec:	00e52023          	sw	a4,0(a0)
    45f0:	00008067          	ret
    45f4:	000067b7          	lui	a5,0x6
    45f8:	08078793          	addi	a5,a5,128 # 6080 <__global_pointer+0xb00>
    45fc:	00200693          	li	a3,2
    4600:	00100713          	li	a4,1
    4604:	02052223          	sw	zero,36(a0)
    4608:	00f52423          	sw	a5,8(a0)
    460c:	00d52023          	sw	a3,0(a0)
    4610:	00e52223          	sw	a4,4(a0)
    4614:	00008067          	ret
    4618:	000067b7          	lui	a5,0x6
    461c:	0d078793          	addi	a5,a5,208 # 60d0 <__global_pointer+0xb50>
    4620:	00300693          	li	a3,3
    4624:	00700713          	li	a4,7
    4628:	02052223          	sw	zero,36(a0)
    462c:	00f52423          	sw	a5,8(a0)
    4630:	00d52023          	sw	a3,0(a0)
    4634:	02e52023          	sw	a4,32(a0)
    4638:	00008067          	ret
    463c:	fd010113          	addi	sp,sp,-48
    4640:	00c12683          	lw	a3,12(sp)
    4644:	000067b7          	lui	a5,0x6
    4648:	10478793          	addi	a5,a5,260 # 6104 <__global_pointer+0xb84>
    464c:	00400713          	li	a4,4
    4650:	00052623          	sw	zero,12(a0)
    4654:	00052823          	sw	zero,16(a0)
    4658:	00052a23          	sw	zero,20(a0)
    465c:	00052c23          	sw	zero,24(a0)
    4660:	00052e23          	sw	zero,28(a0)
    4664:	02052023          	sw	zero,32(a0)
    4668:	02052223          	sw	zero,36(a0)
    466c:	00f52423          	sw	a5,8(a0)
    4670:	00d52223          	sw	a3,4(a0)
    4674:	00e52023          	sw	a4,0(a0)
    4678:	03010113          	addi	sp,sp,48
    467c:	00008067          	ret
    4680:	000067b7          	lui	a5,0x6
    4684:	14478793          	addi	a5,a5,324 # 6144 <__global_pointer+0xbc4>
    4688:	00500713          	li	a4,5
    468c:	02052223          	sw	zero,36(a0)
    4690:	00f52423          	sw	a5,8(a0)
    4694:	00e52023          	sw	a4,0(a0)
    4698:	00008067          	ret
    469c:	000067b7          	lui	a5,0x6
    46a0:	17878793          	addi	a5,a5,376 # 6178 <__global_pointer+0xbf8>
    46a4:	00600713          	li	a4,6
    46a8:	02052223          	sw	zero,36(a0)
    46ac:	00f52423          	sw	a5,8(a0)
    46b0:	00e52023          	sw	a4,0(a0)
    46b4:	00008067          	ret
    46b8:	000067b7          	lui	a5,0x6
    46bc:	00100713          	li	a4,1
    46c0:	1c878793          	addi	a5,a5,456 # 61c8 <__global_pointer+0xc48>
    46c4:	00700613          	li	a2,7
    46c8:	00b00693          	li	a3,11
    46cc:	00f52423          	sw	a5,8(a0)
    46d0:	00c52023          	sw	a2,0(a0)
    46d4:	00e52223          	sw	a4,4(a0)
    46d8:	02e52223          	sw	a4,36(a0)
    46dc:	00d52623          	sw	a3,12(a0)
    46e0:	00008067          	ret
    46e4:	000067b7          	lui	a5,0x6
    46e8:	22c78793          	addi	a5,a5,556 # 622c <__global_pointer+0xcac>
    46ec:	00900693          	li	a3,9
    46f0:	00100713          	li	a4,1
    46f4:	00f52423          	sw	a5,8(a0)
    46f8:	00d52023          	sw	a3,0(a0)
    46fc:	02e52223          	sw	a4,36(a0)
    4700:	00008067          	ret
    4704:	00006737          	lui	a4,0x6
    4708:	00100793          	li	a5,1
    470c:	26c70713          	addi	a4,a4,620 # 626c <__global_pointer+0xcec>
    4710:	00a00693          	li	a3,10
    4714:	00e52423          	sw	a4,8(a0)
    4718:	00d52023          	sw	a3,0(a0)
    471c:	00f52623          	sw	a5,12(a0)
    4720:	02f52023          	sw	a5,32(a0)
    4724:	02f52223          	sw	a5,36(a0)
    4728:	00008067          	ret
    472c:	000067b7          	lui	a5,0x6
    4730:	28c78793          	addi	a5,a5,652 # 628c <__global_pointer+0xd0c>
    4734:	00b00693          	li	a3,11
    4738:	00100713          	li	a4,1
    473c:	00f52423          	sw	a5,8(a0)
    4740:	00d52023          	sw	a3,0(a0)
    4744:	02e52223          	sw	a4,36(a0)
    4748:	00008067          	ret
    474c:	000067b7          	lui	a5,0x6
    4750:	2e878793          	addi	a5,a5,744 # 62e8 <__global_pointer+0xd68>
    4754:	00c00613          	li	a2,12
    4758:	00400713          	li	a4,4
    475c:	00100693          	li	a3,1
    4760:	00f52423          	sw	a5,8(a0)
    4764:	00c52023          	sw	a2,0(a0)
    4768:	00e52623          	sw	a4,12(a0)
    476c:	02e52023          	sw	a4,32(a0)
    4770:	02d52223          	sw	a3,36(a0)
    4774:	00008067          	ret
    4778:	000067b7          	lui	a5,0x6
    477c:	31c78793          	addi	a5,a5,796 # 631c <__global_pointer+0xd9c>
    4780:	00d00613          	li	a2,13
    4784:	00200713          	li	a4,2
    4788:	fd5ff06f          	j	475c <ct+0x200>
    478c:	000067b7          	lui	a5,0x6
    4790:	34078793          	addi	a5,a5,832 # 6340 <__global_pointer+0xdc0>
    4794:	00e00613          	li	a2,14
    4798:	00300713          	li	a4,3
    479c:	fc1ff06f          	j	475c <ct+0x200>
    47a0:	000067b7          	lui	a5,0x6
    47a4:	37078793          	addi	a5,a5,880 # 6370 <__global_pointer+0xdf0>
    47a8:	00f00693          	li	a3,15
    47ac:	00100713          	li	a4,1
    47b0:	00f52423          	sw	a5,8(a0)
    47b4:	00d52023          	sw	a3,0(a0)
    47b8:	02e52223          	sw	a4,36(a0)
    47bc:	00008067          	ret
    47c0:	000067b7          	lui	a5,0x6
    47c4:	20878793          	addi	a5,a5,520 # 6208 <__global_pointer+0xc88>
    47c8:	00800693          	li	a3,8
    47cc:	00100713          	li	a4,1
    47d0:	00f52423          	sw	a5,8(a0)
    47d4:	00d52023          	sw	a3,0(a0)
    47d8:	02e52223          	sw	a4,36(a0)
    47dc:	00008067          	ret

000047e0 <printc>:
    47e0:	04000737          	lui	a4,0x4000
    47e4:	04470713          	addi	a4,a4,68 # 4000044 <_stack_end+0x3ef9bec>
    47e8:	000106b7          	lui	a3,0x10
    47ec:	00072783          	lw	a5,0(a4)
    47f0:	fed7eee3          	bltu	a5,a3,47ec <printc+0xc>
    47f4:	040007b7          	lui	a5,0x4000
    47f8:	04a7a023          	sw	a0,64(a5) # 4000040 <_stack_end+0x3ef9be8>
    47fc:	00008067          	ret

00004800 <print>:
    4800:	00054603          	lbu	a2,0(a0)
    4804:	02060863          	beqz	a2,4834 <print+0x34>
    4808:	04000737          	lui	a4,0x4000
    480c:	00070593          	mv	a1,a4
    4810:	04058593          	addi	a1,a1,64
    4814:	04470713          	addi	a4,a4,68 # 4000044 <_stack_end+0x3ef9bec>
    4818:	000106b7          	lui	a3,0x10
    481c:	00072783          	lw	a5,0(a4)
    4820:	fed7eee3          	bltu	a5,a3,481c <print+0x1c>
    4824:	00c5a023          	sw	a2,0(a1)
    4828:	00154603          	lbu	a2,1(a0)
    482c:	00150513          	addi	a0,a0,1
    4830:	fe0616e3          	bnez	a2,481c <print+0x1c>
    4834:	00008067          	ret

00004838 <print_dec>:
    4838:	3b9ad637          	lui	a2,0x3b9ad
    483c:	ccccd737          	lui	a4,0xccccd
    4840:	a0060613          	addi	a2,a2,-1536 # 3b9aca00 <_stack_end+0x3b8a65a8>
    4844:	ccd70713          	addi	a4,a4,-819 # cccccccd <_stack_end+0xccbc6875>
    4848:	00a00593          	li	a1,10
    484c:	02c57e63          	bgeu	a0,a2,4888 <print_dec+0x50>
    4850:	02e637b3          	mulhu	a5,a2,a4
    4854:	fff58593          	addi	a1,a1,-1
    4858:	02c57533          	remu	a0,a0,a2
    485c:	0037d613          	srli	a2,a5,0x3
    4860:	fe0596e3          	bnez	a1,484c <print_dec+0x14>
    4864:	04000737          	lui	a4,0x4000
    4868:	04470713          	addi	a4,a4,68 # 4000044 <_stack_end+0x3ef9bec>
    486c:	000106b7          	lui	a3,0x10
    4870:	00072783          	lw	a5,0(a4)
    4874:	fed7eee3          	bltu	a5,a3,4870 <print_dec+0x38>
    4878:	040007b7          	lui	a5,0x4000
    487c:	03000713          	li	a4,48
    4880:	04e7a023          	sw	a4,64(a5) # 4000040 <_stack_end+0x3ef9be8>
    4884:	00008067          	ret
    4888:	04000737          	lui	a4,0x4000
    488c:	00070313          	mv	t1,a4
    4890:	ccccd8b7          	lui	a7,0xccccd
    4894:	04470713          	addi	a4,a4,68 # 4000044 <_stack_end+0x3ef9bec>
    4898:	04030313          	addi	t1,t1,64 # 80000040 <_stack_end+0x7fef9be8>
    489c:	ccd88893          	addi	a7,a7,-819 # cccccccd <_stack_end+0xccbc6875>
    48a0:	000106b7          	lui	a3,0x10
    48a4:	02c55833          	divu	a6,a0,a2
    48a8:	03080813          	addi	a6,a6,48
    48ac:	0ff87813          	zext.b	a6,a6
    48b0:	00072783          	lw	a5,0(a4)
    48b4:	fed7eee3          	bltu	a5,a3,48b0 <print_dec+0x78>
    48b8:	031637b3          	mulhu	a5,a2,a7
    48bc:	01032023          	sw	a6,0(t1)
    48c0:	fff58593          	addi	a1,a1,-1
    48c4:	02c57533          	remu	a0,a0,a2
    48c8:	0037d613          	srli	a2,a5,0x3
    48cc:	fc059ce3          	bnez	a1,48a4 <print_dec+0x6c>
    48d0:	00008067          	ret

000048d4 <print_hex32>:
    48d4:	04000737          	lui	a4,0x4000
    48d8:	04470713          	addi	a4,a4,68 # 4000044 <_stack_end+0x3ef9bec>
    48dc:	000106b7          	lui	a3,0x10
    48e0:	00072783          	lw	a5,0(a4)
    48e4:	fed7eee3          	bltu	a5,a3,48e0 <print_hex32+0xc>
    48e8:	040007b7          	lui	a5,0x4000
    48ec:	03000693          	li	a3,48
    48f0:	04d7a023          	sw	a3,64(a5) # 4000040 <_stack_end+0x3ef9be8>
    48f4:	04478713          	addi	a4,a5,68
    48f8:	000106b7          	lui	a3,0x10
    48fc:	00072783          	lw	a5,0(a4)
    4900:	fed7eee3          	bltu	a5,a3,48fc <print_hex32+0x28>
    4904:	04000837          	lui	a6,0x4000
    4908:	04080813          	addi	a6,a6,64 # 4000040 <_stack_end+0x3ef9be8>
    490c:	07800793          	li	a5,120
    4910:	04000737          	lui	a4,0x4000
    4914:	00f82023          	sw	a5,0(a6)
    4918:	04470713          	addi	a4,a4,68 # 4000044 <_stack_end+0x3ef9bec>
    491c:	01c00613          	li	a2,28
    4920:	00900313          	li	t1,9
    4924:	000106b7          	lui	a3,0x10
    4928:	ffc00893          	li	a7,-4
    492c:	00c557b3          	srl	a5,a0,a2
    4930:	00f7f793          	andi	a5,a5,15
    4934:	03778593          	addi	a1,a5,55
    4938:	00f36463          	bltu	t1,a5,4940 <print_hex32+0x6c>
    493c:	03078593          	addi	a1,a5,48
    4940:	00072783          	lw	a5,0(a4)
    4944:	fed7eee3          	bltu	a5,a3,4940 <print_hex32+0x6c>
    4948:	00b82023          	sw	a1,0(a6)
    494c:	ffc60613          	addi	a2,a2,-4
    4950:	fd161ee3          	bne	a2,a7,492c <print_hex32+0x58>
    4954:	00008067          	ret

00004958 <handle_exception>:
    4958:	00200793          	li	a5,2
    495c:	18f80863          	beq	a6,a5,4aec <handle_exception+0x194>
    4960:	00b00793          	li	a5,11
    4964:	10f80e63          	beq	a6,a5,4a80 <handle_exception+0x128>
    4968:	14081463          	bnez	a6,4ab0 <handle_exception+0x158>
    496c:	04000737          	lui	a4,0x4000
    4970:	00070813          	mv	a6,a4
    4974:	00006637          	lui	a2,0x6
    4978:	3d060613          	addi	a2,a2,976 # 63d0 <__global_pointer+0xe50>
    497c:	04470713          	addi	a4,a4,68 # 4000044 <_stack_end+0x3ef9bec>
    4980:	04080813          	addi	a6,a6,64
    4984:	00a00593          	li	a1,10
    4988:	000106b7          	lui	a3,0x10
    498c:	00072783          	lw	a5,0(a4)
    4990:	fed7eee3          	bltu	a5,a3,498c <handle_exception+0x34>
    4994:	00b82023          	sw	a1,0(a6)
    4998:	00164583          	lbu	a1,1(a2)
    499c:	00160613          	addi	a2,a2,1
    49a0:	fe0596e3          	bnez	a1,498c <handle_exception+0x34>
    49a4:	04000737          	lui	a4,0x4000
    49a8:	00070813          	mv	a6,a4
    49ac:	00006637          	lui	a2,0x6
    49b0:	44460613          	addi	a2,a2,1092 # 6444 <__global_pointer+0xec4>
    49b4:	04470713          	addi	a4,a4,68 # 4000044 <_stack_end+0x3ef9bec>
    49b8:	04080813          	addi	a6,a6,64
    49bc:	04500593          	li	a1,69
    49c0:	000106b7          	lui	a3,0x10
    49c4:	00072783          	lw	a5,0(a4)
    49c8:	fed7eee3          	bltu	a5,a3,49c4 <handle_exception+0x6c>
    49cc:	00b82023          	sw	a1,0(a6)
    49d0:	00164583          	lbu	a1,1(a2)
    49d4:	00160613          	addi	a2,a2,1
    49d8:	fe0596e3          	bnez	a1,49c4 <handle_exception+0x6c>
    49dc:	04000737          	lui	a4,0x4000
    49e0:	04470713          	addi	a4,a4,68 # 4000044 <_stack_end+0x3ef9bec>
    49e4:	000106b7          	lui	a3,0x10
    49e8:	00072783          	lw	a5,0(a4)
    49ec:	fed7eee3          	bltu	a5,a3,49e8 <handle_exception+0x90>
    49f0:	040007b7          	lui	a5,0x4000
    49f4:	03000693          	li	a3,48
    49f8:	04d7a023          	sw	a3,64(a5) # 4000040 <_stack_end+0x3ef9be8>
    49fc:	04478713          	addi	a4,a5,68
    4a00:	000106b7          	lui	a3,0x10
    4a04:	00072783          	lw	a5,0(a4)
    4a08:	fed7eee3          	bltu	a5,a3,4a04 <handle_exception+0xac>
    4a0c:	04000837          	lui	a6,0x4000
    4a10:	04080813          	addi	a6,a6,64 # 4000040 <_stack_end+0x3ef9be8>
    4a14:	07800793          	li	a5,120
    4a18:	04000737          	lui	a4,0x4000
    4a1c:	00f82023          	sw	a5,0(a6)
    4a20:	04470713          	addi	a4,a4,68 # 4000044 <_stack_end+0x3ef9bec>
    4a24:	01c00613          	li	a2,28
    4a28:	00900313          	li	t1,9
    4a2c:	000106b7          	lui	a3,0x10
    4a30:	ffc00893          	li	a7,-4
    4a34:	00c557b3          	srl	a5,a0,a2
    4a38:	00f7f793          	andi	a5,a5,15
    4a3c:	03778593          	addi	a1,a5,55
    4a40:	00f36463          	bltu	t1,a5,4a48 <handle_exception+0xf0>
    4a44:	03078593          	addi	a1,a5,48
    4a48:	00072783          	lw	a5,0(a4)
    4a4c:	fed7eee3          	bltu	a5,a3,4a48 <handle_exception+0xf0>
    4a50:	00b82023          	sw	a1,0(a6)
    4a54:	ffc60613          	addi	a2,a2,-4
    4a58:	fd161ee3          	bne	a2,a7,4a34 <handle_exception+0xdc>
    4a5c:	04000737          	lui	a4,0x4000
    4a60:	04470713          	addi	a4,a4,68 # 4000044 <_stack_end+0x3ef9bec>
    4a64:	000106b7          	lui	a3,0x10
    4a68:	00072783          	lw	a5,0(a4)
    4a6c:	fed7eee3          	bltu	a5,a3,4a68 <handle_exception+0x110>
    4a70:	040007b7          	lui	a5,0x4000
    4a74:	00a00713          	li	a4,10
    4a78:	04e7a023          	sw	a4,64(a5) # 4000040 <_stack_end+0x3ef9be8>
    4a7c:	0000006f          	j	4a7c <handle_exception+0x124>
    4a80:	00400793          	li	a5,4
    4a84:	0af88263          	beq	a7,a5,4b28 <handle_exception+0x1d0>
    4a88:	0d089c63          	bne	a7,a6,4b60 <handle_exception+0x208>
    4a8c:	04000737          	lui	a4,0x4000
    4a90:	04470713          	addi	a4,a4,68 # 4000044 <_stack_end+0x3ef9bec>
    4a94:	000106b7          	lui	a3,0x10
    4a98:	00072783          	lw	a5,0(a4)
    4a9c:	fed7eee3          	bltu	a5,a3,4a98 <handle_exception+0x140>
    4aa0:	040007b7          	lui	a5,0x4000
    4aa4:	0ff57513          	zext.b	a0,a0
    4aa8:	04a7a023          	sw	a0,64(a5) # 4000040 <_stack_end+0x3ef9be8>
    4aac:	00008067          	ret
    4ab0:	04000737          	lui	a4,0x4000
    4ab4:	00070813          	mv	a6,a4
    4ab8:	00006637          	lui	a2,0x6
    4abc:	42460613          	addi	a2,a2,1060 # 6424 <__global_pointer+0xea4>
    4ac0:	04470713          	addi	a4,a4,68 # 4000044 <_stack_end+0x3ef9bec>
    4ac4:	04080813          	addi	a6,a6,64
    4ac8:	00a00593          	li	a1,10
    4acc:	000106b7          	lui	a3,0x10
    4ad0:	00072783          	lw	a5,0(a4)
    4ad4:	fed7eee3          	bltu	a5,a3,4ad0 <handle_exception+0x178>
    4ad8:	00b82023          	sw	a1,0(a6)
    4adc:	00164583          	lbu	a1,1(a2)
    4ae0:	00160613          	addi	a2,a2,1
    4ae4:	fe0596e3          	bnez	a1,4ad0 <handle_exception+0x178>
    4ae8:	ebdff06f          	j	49a4 <handle_exception+0x4c>
    4aec:	04000737          	lui	a4,0x4000
    4af0:	00070813          	mv	a6,a4
    4af4:	00006637          	lui	a2,0x6
    4af8:	40060613          	addi	a2,a2,1024 # 6400 <__global_pointer+0xe80>
    4afc:	04470713          	addi	a4,a4,68 # 4000044 <_stack_end+0x3ef9bec>
    4b00:	04080813          	addi	a6,a6,64
    4b04:	00a00593          	li	a1,10
    4b08:	000106b7          	lui	a3,0x10
    4b0c:	00072783          	lw	a5,0(a4)
    4b10:	fed7eee3          	bltu	a5,a3,4b0c <handle_exception+0x1b4>
    4b14:	00b82023          	sw	a1,0(a6)
    4b18:	00164583          	lbu	a1,1(a2)
    4b1c:	00160613          	addi	a2,a2,1
    4b20:	fe0596e3          	bnez	a1,4b0c <handle_exception+0x1b4>
    4b24:	e81ff06f          	j	49a4 <handle_exception+0x4c>
    4b28:	00054603          	lbu	a2,0(a0)
    4b2c:	02060a63          	beqz	a2,4b60 <handle_exception+0x208>
    4b30:	04000737          	lui	a4,0x4000
    4b34:	00070593          	mv	a1,a4
    4b38:	04058593          	addi	a1,a1,64
    4b3c:	04470713          	addi	a4,a4,68 # 4000044 <_stack_end+0x3ef9bec>
    4b40:	000106b7          	lui	a3,0x10
    4b44:	00072783          	lw	a5,0(a4)
    4b48:	fed7eee3          	bltu	a5,a3,4b44 <handle_exception+0x1ec>
    4b4c:	00c5a023          	sw	a2,0(a1)
    4b50:	00154603          	lbu	a2,1(a0)
    4b54:	00150513          	addi	a0,a0,1
    4b58:	fe0616e3          	bnez	a2,4b44 <handle_exception+0x1ec>
    4b5c:	00008067          	ret
    4b60:	00008067          	ret

00004b64 <nextprime>:
    4b64:	00200713          	li	a4,2
    4b68:	00050793          	mv	a5,a0
    4b6c:	02a74063          	blt	a4,a0,4b8c <nextprime+0x28>
    4b70:	00100513          	li	a0,1
    4b74:	00f05a63          	blez	a5,4b88 <nextprime+0x24>
    4b78:	fff78793          	addi	a5,a5,-1
    4b7c:	00f037b3          	snez	a5,a5
    4b80:	00e78533          	add	a0,a5,a4
    4b84:	00008067          	ret
    4b88:	00008067          	ret
    4b8c:	00150793          	addi	a5,a0,1
    4b90:	0017e513          	ori	a0,a5,1
    4b94:	40155693          	srai	a3,a0,0x1
    4b98:	00268693          	addi	a3,a3,2 # 10002 <__global_pointer+0xaa82>
    4b9c:	00300793          	li	a5,3
    4ba0:	02f56733          	rem	a4,a0,a5
    4ba4:	00178793          	addi	a5,a5,1
    4ba8:	00070663          	beqz	a4,4bb4 <nextprime+0x50>
    4bac:	fef69ae3          	bne	a3,a5,4ba0 <nextprime+0x3c>
    4bb0:	00008067          	ret
    4bb4:	00250513          	addi	a0,a0,2
    4bb8:	fddff06f          	j	4b94 <nextprime+0x30>

00004bbc <strlen>:
    4bbc:	00357793          	andi	a5,a0,3
    4bc0:	872a                	mv	a4,a0
    4bc2:	ef9d                	bnez	a5,4c00 <strlen+0x44>
    4bc4:	7f7f86b7          	lui	a3,0x7f7f8
    4bc8:	f7f68693          	addi	a3,a3,-129 # 7f7f7f7f <_stack_end+0x7f6f1b27>
    4bcc:	55fd                	li	a1,-1
    4bce:	4310                	lw	a2,0(a4)
    4bd0:	0711                	addi	a4,a4,4
    4bd2:	00d677b3          	and	a5,a2,a3
    4bd6:	97b6                	add	a5,a5,a3
    4bd8:	8fd1                	or	a5,a5,a2
    4bda:	8fd5                	or	a5,a5,a3
    4bdc:	feb789e3          	beq	a5,a1,4bce <strlen+0x12>
    4be0:	ffc74683          	lbu	a3,-4(a4)
    4be4:	40a707b3          	sub	a5,a4,a0
    4be8:	ca8d                	beqz	a3,4c1a <strlen+0x5e>
    4bea:	ffd74683          	lbu	a3,-3(a4)
    4bee:	c29d                	beqz	a3,4c14 <strlen+0x58>
    4bf0:	ffe74503          	lbu	a0,-2(a4)
    4bf4:	00a03533          	snez	a0,a0
    4bf8:	953e                	add	a0,a0,a5
    4bfa:	1579                	addi	a0,a0,-2
    4bfc:	8082                	ret
    4bfe:	d2f9                	beqz	a3,4bc4 <strlen+0x8>
    4c00:	00074783          	lbu	a5,0(a4)
    4c04:	0705                	addi	a4,a4,1
    4c06:	00377693          	andi	a3,a4,3
    4c0a:	fbf5                	bnez	a5,4bfe <strlen+0x42>
    4c0c:	8f09                	sub	a4,a4,a0
    4c0e:	fff70513          	addi	a0,a4,-1
    4c12:	8082                	ret
    4c14:	ffd78513          	addi	a0,a5,-3
    4c18:	8082                	ret
    4c1a:	ffc78513          	addi	a0,a5,-4
    4c1e:	8082                	ret

Disassembly of section .data:

00004c20 <welcome_msg>:
    4c20:	3d3d                	jal	4a5e <handle_exception+0x106>
    4c22:	3d3d                	jal	4a60 <handle_exception+0x108>
    4c24:	3d3d                	jal	4a62 <handle_exception+0x10a>
    4c26:	3d3d                	jal	4a64 <handle_exception+0x10c>
    4c28:	3d3d                	jal	4a66 <handle_exception+0x10e>
    4c2a:	3d3d                	jal	4a68 <handle_exception+0x110>
    4c2c:	3d3d                	jal	4a6a <handle_exception+0x112>
    4c2e:	3d3d                	jal	4a6c <handle_exception+0x114>
    4c30:	3d3d                	jal	4a6e <handle_exception+0x116>
    4c32:	3d3d                	jal	4a70 <handle_exception+0x118>
    4c34:	3d3d                	jal	4a72 <handle_exception+0x11a>
    4c36:	3d3d                	jal	4a74 <handle_exception+0x11c>
    4c38:	3d3d                	jal	4a76 <handle_exception+0x11e>
    4c3a:	3d3d                	jal	4a78 <handle_exception+0x120>
    4c3c:	3d3d                	jal	4a7a <handle_exception+0x122>
    4c3e:	3d3d                	jal	4a7c <handle_exception+0x124>
    4c40:	3d3d                	jal	4a7e <handle_exception+0x126>
    4c42:	3d3d                	jal	4a80 <handle_exception+0x128>
    4c44:	3d3d                	jal	4a82 <handle_exception+0x12a>
    4c46:	3d3d                	jal	4a84 <handle_exception+0x12c>
    4c48:	3d3d                	jal	4a86 <handle_exception+0x12e>
    4c4a:	3d3d                	jal	4a88 <handle_exception+0x130>
    4c4c:	3d3d                	jal	4a8a <handle_exception+0x132>
    4c4e:	3d3d                	jal	4a8c <handle_exception+0x134>
    4c50:	3d0a                	fld	fs10,160(sp)
    4c52:	3d3d                	jal	4a90 <handle_exception+0x138>
    4c54:	3d3d                	jal	4a92 <handle_exception+0x13a>
    4c56:	5220                	lw	s0,96(a2)
    4c58:	5349                	li	t1,-14
    4c5a:	20562d43          	fmadd.s	fs10,fa2,ft5,ft4,rdn
    4c5e:	6f42                	flw	ft10,16(sp)
    4c60:	552d746f          	jal	s0,dc1b2 <__global_pointer+0xd6c32>
    4c64:	2070                	fld	fa2,192(s0)
    4c66:	7250                	flw	fa2,36(a2)
    4c68:	7365636f          	jal	t1,5b39e <__global_pointer+0x55e1e>
    4c6c:	6f4e2073          	csrs	0x6f4,t3
    4c70:	6f432077          	.insn	4, 0x6f432077
    4c74:	706d                	c.lui	zero,0xffffb
    4c76:	656c                	flw	fa1,76(a0)
    4c78:	6574                	flw	fa3,76(a0)
    4c7a:	3d20                	fld	fs0,120(a0)
    4c7c:	3d3d                	jal	4aba <handle_exception+0x162>
    4c7e:	3d3d                	jal	4abc <handle_exception+0x164>
    4c80:	0a3d                	addi	s4,s4,15
    4c82:	3d3d                	jal	4ac0 <handle_exception+0x168>
    4c84:	3d3d                	jal	4ac2 <handle_exception+0x16a>
    4c86:	3d3d                	jal	4ac4 <handle_exception+0x16c>
    4c88:	3d3d                	jal	4ac6 <handle_exception+0x16e>
    4c8a:	3d3d                	jal	4ac8 <handle_exception+0x170>
    4c8c:	3d3d                	jal	4aca <handle_exception+0x172>
    4c8e:	3d3d                	jal	4acc <handle_exception+0x174>
    4c90:	3d3d                	jal	4ace <handle_exception+0x176>
    4c92:	3d3d                	jal	4ad0 <handle_exception+0x178>
    4c94:	3d3d                	jal	4ad2 <handle_exception+0x17a>
    4c96:	3d3d                	jal	4ad4 <handle_exception+0x17c>
    4c98:	3d3d                	jal	4ad6 <handle_exception+0x17e>
    4c9a:	3d3d                	jal	4ad8 <handle_exception+0x180>
    4c9c:	3d3d                	jal	4ada <handle_exception+0x182>
    4c9e:	3d3d                	jal	4adc <handle_exception+0x184>
    4ca0:	3d3d                	jal	4ade <handle_exception+0x186>
    4ca2:	3d3d                	jal	4ae0 <handle_exception+0x188>
    4ca4:	3d3d                	jal	4ae2 <handle_exception+0x18a>
    4ca6:	3d3d                	jal	4ae4 <handle_exception+0x18c>
    4ca8:	3d3d                	jal	4ae6 <handle_exception+0x18e>
    4caa:	3d3d                	jal	4ae8 <handle_exception+0x190>
    4cac:	3d3d                	jal	4aea <handle_exception+0x192>
    4cae:	3d3d                	jal	4aec <handle_exception+0x194>
    4cb0:	3d3d                	jal	4aee <handle_exception+0x196>
    4cb2:	000a                	c.slli	zero,0x2

00004cb4 <COLLECTIBLE_NAMES>:
    4cb4:	5db4                	lw	a3,120(a1)
    4cb6:	0000                	unimp
    4cb8:	5dc0                	lw	s0,60(a1)
    4cba:	0000                	unimp
    4cbc:	5dcc                	lw	a1,60(a1)
    4cbe:	0000                	unimp
    4cc0:	5de0                	lw	s0,124(a1)
    4cc2:	0000                	unimp
    4cc4:	5dec                	lw	a1,124(a1)
    4cc6:	0000                	unimp
    4cc8:	5df8                	lw	a4,124(a1)
    4cca:	0000                	unimp
    4ccc:	5e08                	lw	a0,56(a2)
    4cce:	0000                	unimp
    4cd0:	5e0c                	lw	a1,56(a2)
    4cd2:	0000                	unimp
    4cd4:	5e14                	lw	a3,56(a2)
    4cd6:	0000                	unimp
    4cd8:	5e24                	lw	s1,120(a2)
    4cda:	0000                	unimp
    4cdc:	5e2c                	lw	a1,120(a2)
    4cde:	0000                	unimp
    4ce0:	5e38                	lw	a4,120(a2)
    4ce2:	0000                	unimp
    4ce4:	5e40                	lw	s0,60(a2)
    4ce6:	0000                	unimp
    4ce8:	5e44                	lw	s1,60(a2)
    4cea:	0000                	unimp
    4cec:	5e50                	lw	a2,60(a2)
    4cee:	0000                	unimp
    4cf0:	5e5c                	lw	a5,60(a2)
    4cf2:	0000                	unimp
    4cf4:	5e64                	lw	s1,124(a2)
	...

00004cf8 <TILETYPE_MAP_NAMES>:
    4cf8:	5e70                	lw	a2,124(a2)
    4cfa:	0000                	unimp
    4cfc:	5e78                	lw	a4,124(a2)
    4cfe:	0000                	unimp
    4d00:	5e84                	lw	s1,56(a3)
    4d02:	0000                	unimp
    4d04:	5e8c                	lw	a1,56(a3)
    4d06:	0000                	unimp
    4d08:	5e94                	lw	a3,56(a3)
    4d0a:	0000                	unimp
    4d0c:	5e9c                	lw	a5,56(a3)
    4d0e:	0000                	unimp
    4d10:	5ea4                	lw	s1,120(a3)
    4d12:	0000                	unimp
    4d14:	5eac                	lw	a1,120(a3)
    4d16:	0000                	unimp
    4d18:	5eb4                	lw	a3,120(a3)
    4d1a:	0000                	unimp
    4d1c:	5ec0                	lw	s0,60(a3)
    4d1e:	0000                	unimp
    4d20:	5ec4                	lw	s1,60(a3)
    4d22:	0000                	unimp
    4d24:	5ecc                	lw	a1,60(a3)
    4d26:	0000                	unimp
    4d28:	5ed4                	lw	a3,60(a3)
    4d2a:	0000                	unimp
    4d2c:	5edc                	lw	a5,60(a3)
    4d2e:	0000                	unimp
    4d30:	5ee8                	lw	a0,124(a3)
    4d32:	0000                	unimp
    4d34:	5ef0                	lw	a2,124(a3)
    4d36:	0000                	unimp
    4d38:	5ef8                	lw	a4,124(a3)
	...

00004d3c <TILETYPE_NAMES>:
    4d3c:	5efc                	lw	a5,124(a3)
    4d3e:	0000                	unimp
    4d40:	5f04                	lw	s1,56(a4)
    4d42:	0000                	unimp
    4d44:	5f10                	lw	a2,56(a4)
    4d46:	0000                	unimp
    4d48:	5f18                	lw	a4,56(a4)
    4d4a:	0000                	unimp
    4d4c:	5f24                	lw	s1,120(a4)
    4d4e:	0000                	unimp
    4d50:	5f30                	lw	a2,120(a4)
    4d52:	0000                	unimp
    4d54:	5f3c                	lw	a5,120(a4)
    4d56:	0000                	unimp
    4d58:	5f44                	lw	s1,60(a4)
    4d5a:	0000                	unimp
    4d5c:	5f54                	lw	a3,60(a4)
    4d5e:	0000                	unimp
    4d60:	5f60                	lw	s0,124(a4)
    4d62:	0000                	unimp
    4d64:	5f6c                	lw	a1,124(a4)
    4d66:	0000                	unimp
    4d68:	5f74                	lw	a3,124(a4)
    4d6a:	0000                	unimp
    4d6c:	5f80                	lw	s0,56(a5)
    4d6e:	0000                	unimp
    4d70:	5f88                	lw	a0,56(a5)
    4d72:	0000                	unimp
    4d74:	5f90                	lw	a2,56(a5)
    4d76:	0000                	unimp
    4d78:	5f98                	lw	a4,56(a5)
    4d7a:	0000                	unimp
    4d7c:	5100                	lw	s0,32(a0)
	...

00004d80 <timer_periodh>:
    4d80:	002c                	addi	a1,sp,8
    4d82:	0400                	addi	s0,sp,512

00004d84 <timer_periodl>:
    4d84:	0028                	addi	a0,sp,8
    4d86:	0400                	addi	s0,sp,512

00004d88 <timer_control>:
    4d88:	0024                	addi	s1,sp,8
    4d8a:	0400                	addi	s0,sp,512

00004d8c <timer_status>:
    4d8c:	0020                	addi	s0,sp,8
    4d8e:	0400                	addi	s0,sp,512

00004d90 <led_start>:
    4d90:	0000                	unimp
    4d92:	0400                	addi	s0,sp,512

Disassembly of section .rodata:

00004dac <CSWTCH.15-0xc0>:
    4dac:	1af0                	addi	a2,sp,380
    4dae:	0000                	unimp
    4db0:	2140                	fld	fs0,128(a0)
    4db2:	0000                	unimp
    4db4:	1f78                	addi	a4,sp,956
    4db6:	0000                	unimp
    4db8:	1c0c                	addi	a1,sp,560
    4dba:	0000                	unimp
    4dbc:	2090                	fld	fa2,0(s1)
    4dbe:	0000                	unimp
    4dc0:	1fe0                	addi	s0,sp,1020
    4dc2:	0000                	unimp
    4dc4:	204c                	fld	fa1,128(s0)
    4dc6:	0000                	unimp
    4dc8:	1b80                	addi	s0,sp,496
    4dca:	0000                	unimp
    4dcc:	1e5c                	addi	a5,sp,820
    4dce:	0000                	unimp
    4dd0:	1e04                	addi	s1,sp,816
    4dd2:	0000                	unimp
    4dd4:	1f14                	addi	a3,sp,944
    4dd6:	0000                	unimp
    4dd8:	1c64                	addi	s1,sp,572
    4dda:	0000                	unimp
    4ddc:	1cbc                	addi	a5,sp,632
    4dde:	0000                	unimp
    4de0:	1d3c                	addi	a5,sp,696
    4de2:	0000                	unimp
    4de4:	1da0                	addi	s0,sp,760
    4de6:	0000                	unimp
    4de8:	1a78                	addi	a4,sp,316
    4dea:	0000                	unimp
    4dec:	21ec                	fld	fa1,192(a1)
    4dee:	0000                	unimp
    4df0:	21bc                	fld	fa5,64(a1)
    4df2:	0000                	unimp
    4df4:	218c                	fld	fa1,0(a1)
    4df6:	0000                	unimp
    4df8:	22a8                	fld	fa0,64(a3)
    4dfa:	0000                	unimp
    4dfc:	218c                	fld	fa1,0(a1)
    4dfe:	0000                	unimp
    4e00:	218c                	fld	fa1,0(a1)
    4e02:	0000                	unimp
    4e04:	218c                	fld	fa1,0(a1)
    4e06:	0000                	unimp
    4e08:	2278                	fld	fa4,192(a2)
    4e0a:	0000                	unimp
    4e0c:	218c                	fld	fa1,0(a1)
    4e0e:	0000                	unimp
    4e10:	218c                	fld	fa1,0(a1)
    4e12:	0000                	unimp
    4e14:	218c                	fld	fa1,0(a1)
    4e16:	0000                	unimp
    4e18:	218c                	fld	fa1,0(a1)
    4e1a:	0000                	unimp
    4e1c:	218c                	fld	fa1,0(a1)
    4e1e:	0000                	unimp
    4e20:	218c                	fld	fa1,0(a1)
    4e22:	0000                	unimp
    4e24:	218c                	fld	fa1,0(a1)
    4e26:	0000                	unimp
    4e28:	2248                	fld	fa0,128(a2)
    4e2a:	0000                	unimp
    4e2c:	218c                	fld	fa1,0(a1)
    4e2e:	0000                	unimp
    4e30:	218c                	fld	fa1,0(a1)
    4e32:	0000                	unimp
    4e34:	218c                	fld	fa1,0(a1)
    4e36:	0000                	unimp
    4e38:	218c                	fld	fa1,0(a1)
    4e3a:	0000                	unimp
    4e3c:	218c                	fld	fa1,0(a1)
    4e3e:	0000                	unimp
    4e40:	218c                	fld	fa1,0(a1)
    4e42:	0000                	unimp
    4e44:	218c                	fld	fa1,0(a1)
    4e46:	0000                	unimp
    4e48:	218c                	fld	fa1,0(a1)
    4e4a:	0000                	unimp
    4e4c:	218c                	fld	fa1,0(a1)
    4e4e:	0000                	unimp
    4e50:	218c                	fld	fa1,0(a1)
    4e52:	0000                	unimp
    4e54:	218c                	fld	fa1,0(a1)
    4e56:	0000                	unimp
    4e58:	218c                	fld	fa1,0(a1)
    4e5a:	0000                	unimp
    4e5c:	218c                	fld	fa1,0(a1)
    4e5e:	0000                	unimp
    4e60:	218c                	fld	fa1,0(a1)
    4e62:	0000                	unimp
    4e64:	218c                	fld	fa1,0(a1)
    4e66:	0000                	unimp
    4e68:	2218                	fld	fa4,0(a2)
	...

00004e6c <CSWTCH.15>:
    4e6c:	2479                	jal	50fa <CSWTCH.15+0x28e>
    4e6e:	1930                	addi	a2,sp,184
    4e70:	0212                	slli	tp,tp,0x4
    4e72:	0078                	addi	a4,sp,12
    4e74:	0e18                	addi	a4,sp,784
    4e76:	40092123          	sw	zero,1026(s2)
    4e7a:	4040                	lw	s0,4(s0)
    4e7c:	4040                	lw	s0,4(s0)
    4e7e:	4040                	lw	s0,4(s0)
    4e80:	4040                	lw	s0,4(s0)
    4e82:	4040                	lw	s0,4(s0)
    4e84:	4040                	lw	s0,4(s0)
    4e86:	4040                	lw	s0,4(s0)
    4e88:	4040                	lw	s0,4(s0)
    4e8a:	4040                	lw	s0,4(s0)
    4e8c:	4040                	lw	s0,4(s0)
    4e8e:	4040                	lw	s0,4(s0)
    4e90:	4040                	lw	s0,4(s0)
    4e92:	4040                	lw	s0,4(s0)
    4e94:	4040                	lw	s0,4(s0)
    4e96:	4040                	lw	s0,4(s0)
    4e98:	4040                	lw	s0,4(s0)
    4e9a:	4040                	lw	s0,4(s0)
    4e9c:	4040                	lw	s0,4(s0)
    4e9e:	4040                	lw	s0,4(s0)
    4ea0:	4040                	lw	s0,4(s0)
    4ea2:	4040                	lw	s0,4(s0)
    4ea4:	4040                	lw	s0,4(s0)
    4ea6:	4040                	lw	s0,4(s0)
    4ea8:	4040                	lw	s0,4(s0)
    4eaa:	4040                	lw	s0,4(s0)
    4eac:	4040                	lw	s0,4(s0)
    4eae:	4040                	lw	s0,4(s0)
    4eb0:	4040                	lw	s0,4(s0)
    4eb2:	4040                	lw	s0,4(s0)
    4eb4:	4040                	lw	s0,4(s0)
    4eb6:	4040                	lw	s0,4(s0)
    4eb8:	4040                	lw	s0,4(s0)
    4eba:	4040                	lw	s0,4(s0)
    4ebc:	4040                	lw	s0,4(s0)
    4ebe:	4040                	lw	s0,4(s0)
    4ec0:	4040                	lw	s0,4(s0)
    4ec2:	4040                	lw	s0,4(s0)
    4ec4:	4040                	lw	s0,4(s0)
    4ec6:	4040                	lw	s0,4(s0)
    4ec8:	4040                	lw	s0,4(s0)
    4eca:	4040                	lw	s0,4(s0)
    4ecc:	4040                	lw	s0,4(s0)
    4ece:	7f40                	flw	fs0,60(a4)
    4ed0:	4598                	lw	a4,8(a1)
    4ed2:	0000                	unimp
    4ed4:	45d8                	lw	a4,12(a1)
    4ed6:	0000                	unimp
    4ed8:	45f4                	lw	a3,76(a1)
    4eda:	0000                	unimp
    4edc:	4618                	lw	a4,8(a2)
    4ede:	0000                	unimp
    4ee0:	463c                	lw	a5,72(a2)
    4ee2:	0000                	unimp
    4ee4:	4680                	lw	s0,8(a3)
    4ee6:	0000                	unimp
    4ee8:	469c                	lw	a5,8(a3)
    4eea:	0000                	unimp
    4eec:	46b8                	lw	a4,72(a3)
    4eee:	0000                	unimp
    4ef0:	47c0                	lw	s0,12(a5)
    4ef2:	0000                	unimp
    4ef4:	46e4                	lw	s1,76(a3)
    4ef6:	0000                	unimp
    4ef8:	4704                	lw	s1,8(a4)
    4efa:	0000                	unimp
    4efc:	472c                	lw	a1,72(a4)
    4efe:	0000                	unimp
    4f00:	474c                	lw	a1,12(a4)
    4f02:	0000                	unimp
    4f04:	4778                	lw	a4,76(a4)
    4f06:	0000                	unimp
    4f08:	478c                	lw	a1,8(a5)
    4f0a:	0000                	unimp
    4f0c:	47a0                	lw	s0,72(a5)
    4f0e:	0000                	unimp
    4f10:	457c                	lw	a5,76(a0)
	...

Disassembly of section .rodata.str1.4:

00004f14 <.rodata.str1.4>:
    4f14:	6f59                	lui	t5,0x16
    4f16:	2075                	jal	4fc2 <CSWTCH.15+0x156>
    4f18:	6168                	flw	fa0,68(a0)
    4f1a:	6576                	flw	fa0,92(sp)
    4f1c:	7220                	flw	fs0,96(a2)
    4f1e:	6e75                	lui	t3,0x1d
    4f20:	6f20                	flw	fs0,88(a4)
    4f22:	7475                	lui	s0,0xffffd
    4f24:	6f20                	flw	fs0,88(a4)
    4f26:	2066                	fld	ft0,88(sp)
    4f28:	6779786f          	jal	a6,9cd9e <__global_pointer+0x9781e>
    4f2c:	6e65                	lui	t3,0x19
    4f2e:	2021                	jal	4f36 <CSWTCH.15+0xca>
    4f30:	656d6147          	.insn	4, 0x656d6147
    4f34:	6f20                	flw	fs0,88(a4)
    4f36:	6576                	flw	fa0,92(sp)
    4f38:	2e72                	fld	ft8,280(sp)
    4f3a:	000a                	c.slli	zero,0x2
    4f3c:	6f59                	lui	t5,0x16
    4f3e:	2075                	jal	4fea <CSWTCH.15+0x17e>
    4f40:	6168                	flw	fa0,68(a0)
    4f42:	6576                	flw	fa0,92(sp)
    4f44:	7220                	flw	fs0,96(a2)
    4f46:	6e75                	lui	t3,0x1d
    4f48:	6f20                	flw	fs0,88(a4)
    4f4a:	7475                	lui	s0,0xffffd
    4f4c:	6f20                	flw	fs0,88(a4)
    4f4e:	2066                	fld	ft0,88(sp)
    4f50:	65746177          	.insn	4, 0x65746177
    4f54:	2172                	fld	ft2,280(sp)
    4f56:	4720                	lw	s0,72(a4)
    4f58:	6d61                	lui	s10,0x18
    4f5a:	2065                	jal	5002 <CSWTCH.15+0x196>
    4f5c:	7265766f          	jal	a2,5c682 <__global_pointer+0x57102>
    4f60:	0a2e                	slli	s4,s4,0xb
    4f62:	0000                	unimp
    4f64:	6f59                	lui	t5,0x16
    4f66:	2075                	jal	5012 <CSWTCH.15+0x1a6>
    4f68:	6168                	flw	fa0,68(a0)
    4f6a:	6576                	flw	fa0,92(sp)
    4f6c:	7220                	flw	fs0,96(a2)
    4f6e:	6e75                	lui	t3,0x1d
    4f70:	6f20                	flw	fs0,88(a4)
    4f72:	7475                	lui	s0,0xffffd
    4f74:	6f20                	flw	fs0,88(a4)
    4f76:	2066                	fld	ft0,88(sp)
    4f78:	6f66                	flw	ft10,88(sp)
    4f7a:	2021646f          	jal	s0,1b17c <__global_pointer+0x15bfc>
    4f7e:	656d6147          	.insn	4, 0x656d6147
    4f82:	6f20                	flw	fs0,88(a4)
    4f84:	6576                	flw	fa0,92(sp)
    4f86:	2e72                	fld	ft8,280(sp)
    4f88:	000a                	c.slli	zero,0x2
    4f8a:	0000                	unimp
    4f8c:	207c                	fld	fa5,192(s0)
    4f8e:	6f50                	flw	fa2,28(a4)
    4f90:	69746973          	csrrsi	s2,0x697,8
    4f94:	203a6e6f          	jal	t3,ab996 <__global_pointer+0xa6416>
    4f98:	0028                	addi	a0,sp,8
    4f9a:	0000                	unimp
    4f9c:	202c                	fld	fa1,64(s0)
    4f9e:	0000                	unimp
    4fa0:	2029                	jal	4faa <CSWTCH.15+0x13e>
    4fa2:	2020                	fld	fs0,64(s0)
    4fa4:	2020                	fld	fs0,64(s0)
    4fa6:	2020                	fld	fs0,64(s0)
    4fa8:	2020                	fld	fs0,64(s0)
    4faa:	2020                	fld	fs0,64(s0)
    4fac:	2020                	fld	fs0,64(s0)
    4fae:	2020                	fld	fs0,64(s0)
    4fb0:	2020                	fld	fs0,64(s0)
    4fb2:	2020                	fld	fs0,64(s0)
    4fb4:	2020                	fld	fs0,64(s0)
    4fb6:	2020                	fld	fs0,64(s0)
    4fb8:	2020                	fld	fs0,64(s0)
    4fba:	2020                	fld	fs0,64(s0)
    4fbc:	2020                	fld	fs0,64(s0)
    4fbe:	2020                	fld	fs0,64(s0)
    4fc0:	000a                	c.slli	zero,0x2
    4fc2:	0000                	unimp
    4fc4:	207c                	fld	fa5,192(s0)
    4fc6:	6f4c                	flw	fa1,28(a4)
    4fc8:	69746163          	bltu	s0,s7,564a <__global_pointer+0xca>
    4fcc:	203a6e6f          	jal	t3,ab9ce <__global_pointer+0xa644e>
    4fd0:	0000                	unimp
    4fd2:	0000                	unimp
    4fd4:	2020                	fld	fs0,64(s0)
    4fd6:	2020                	fld	fs0,64(s0)
    4fd8:	2020                	fld	fs0,64(s0)
    4fda:	2020                	fld	fs0,64(s0)
    4fdc:	2020                	fld	fs0,64(s0)
    4fde:	2020                	fld	fs0,64(s0)
    4fe0:	2020                	fld	fs0,64(s0)
    4fe2:	2020                	fld	fs0,64(s0)
    4fe4:	2020                	fld	fs0,64(s0)
    4fe6:	2020                	fld	fs0,64(s0)
    4fe8:	2020                	fld	fs0,64(s0)
    4fea:	2020                	fld	fs0,64(s0)
    4fec:	2020                	fld	fs0,64(s0)
    4fee:	2020                	fld	fs0,64(s0)
    4ff0:	2020                	fld	fs0,64(s0)
    4ff2:	2020                	fld	fs0,64(s0)
    4ff4:	2020                	fld	fs0,64(s0)
    4ff6:	2020                	fld	fs0,64(s0)
    4ff8:	0a20                	addi	s0,sp,280
    4ffa:	0000                	unimp
    4ffc:	207c                	fld	fa5,192(s0)
    4ffe:	0000                	unimp
    5000:	ab9ff05b          	.insn	4, 0xab9ff05b
    5004:	20b5                	jal	5070 <CSWTCH.15+0x204>
    5006:	205d                	jal	50ac <CSWTCH.15+0x240>
    5008:	0000                	unimp
    500a:	0000                	unimp
    500c:	205d                	jal	50b2 <CSWTCH.15+0x246>
    500e:	0000                	unimp
    5010:	207c                	fld	fa5,192(s0)
    5012:	2020                	fld	fs0,64(s0)
    5014:	746f6c53          	.insn	4, 0x746f6c53
    5018:	0020                	addi	s0,sp,8
    501a:	0000                	unimp
    501c:	203a                	fld	ft0,392(sp)
    501e:	0000                	unimp
    5020:	6d45                	lui	s10,0x11
    5022:	7470                	flw	fa2,108(s0)
    5024:	0079                	c.nop	30
    5026:	0000                	unimp
    5028:	2020                	fld	fs0,64(s0)
    502a:	2020                	fld	fs0,64(s0)
    502c:	2020                	fld	fs0,64(s0)
    502e:	2020                	fld	fs0,64(s0)
    5030:	2020                	fld	fs0,64(s0)
    5032:	2020                	fld	fs0,64(s0)
    5034:	2020                	fld	fs0,64(s0)
    5036:	2020                	fld	fs0,64(s0)
    5038:	2020                	fld	fs0,64(s0)
    503a:	2020                	fld	fs0,64(s0)
    503c:	2020                	fld	fs0,64(s0)
    503e:	2020                	fld	fs0,64(s0)
    5040:	2020                	fld	fs0,64(s0)
    5042:	2020                	fld	fs0,64(s0)
    5044:	2020                	fld	fs0,64(s0)
    5046:	2020                	fld	fs0,64(s0)
    5048:	2020                	fld	fs0,64(s0)
    504a:	2020                	fld	fs0,64(s0)
    504c:	000a                	c.slli	zero,0x2
    504e:	0000                	unimp
    5050:	4a325b1b          	.insn	4, 0x4a325b1b
    5054:	0000                	unimp
    5056:	0000                	unimp
    5058:	00485b1b          	.insn	4, 0x00485b1b
    505c:	2d2d2d2b          	.insn	4, 0x2d2d2d2b
    5060:	2d2d                	jal	569a <__global_pointer+0x11a>
    5062:	2d2d                	jal	569c <__global_pointer+0x11c>
    5064:	2d2d                	jal	569e <__global_pointer+0x11e>
    5066:	2d2d                	jal	56a0 <__global_pointer+0x120>
    5068:	2d2d                	jal	56a2 <__global_pointer+0x122>
    506a:	2d2d                	jal	56a4 <__global_pointer+0x124>
    506c:	2d2d                	jal	56a6 <__global_pointer+0x126>
    506e:	2d2d                	jal	56a8 <__global_pointer+0x128>
    5070:	2d2d                	jal	56aa <__global_pointer+0x12a>
    5072:	2d2d                	jal	56ac <__global_pointer+0x12c>
    5074:	2d2d                	jal	56ae <__global_pointer+0x12e>
    5076:	2d2d                	jal	56b0 <__global_pointer+0x130>
    5078:	2d2d                	jal	56b2 <__global_pointer+0x132>
    507a:	2d2d                	jal	56b4 <__global_pointer+0x134>
    507c:	2d2d                	jal	56b6 <__global_pointer+0x136>
    507e:	2d2d                	jal	56b8 <__global_pointer+0x138>
    5080:	2d2d                	jal	56ba <__global_pointer+0x13a>
    5082:	2d2d                	jal	56bc <__global_pointer+0x13c>
    5084:	2d2d                	jal	56be <__global_pointer+0x13e>
    5086:	2d2d                	jal	56c0 <__global_pointer+0x140>
    5088:	2d2d                	jal	56c2 <__global_pointer+0x142>
    508a:	2d2d                	jal	56c4 <__global_pointer+0x144>
    508c:	2b2d                	jal	55c6 <__global_pointer+0x46>
    508e:	0a20                	addi	s0,sp,280
    5090:	0000                	unimp
    5092:	0000                	unimp
    5094:	207c                	fld	fa5,192(s0)
    5096:	2020                	fld	fs0,64(s0)
    5098:	2020                	fld	fs0,64(s0)
    509a:	2020                	fld	fs0,64(s0)
    509c:	2020                	fld	fs0,64(s0)
    509e:	2020                	fld	fs0,64(s0)
    50a0:	4d20                	lw	s0,88(a0)
    50a2:	5241                	li	tp,-16
    50a4:	55532053          	.insn	4, 0x55532053
    50a8:	5652                	lw	a2,52(sp)
    50aa:	5649                	li	a2,-14
    50ac:	4c41                	li	s8,16
    50ae:	4720                	lw	s0,72(a4)
    50b0:	4d41                	li	s10,16
    50b2:	2045                	jal	5152 <CSWTCH.15+0x2e6>
    50b4:	2020                	fld	fs0,64(s0)
    50b6:	2020                	fld	fs0,64(s0)
    50b8:	2020                	fld	fs0,64(s0)
    50ba:	2020                	fld	fs0,64(s0)
    50bc:	2020                	fld	fs0,64(s0)
    50be:	2020                	fld	fs0,64(s0)
    50c0:	2020                	fld	fs0,64(s0)
    50c2:	2020                	fld	fs0,64(s0)
    50c4:	7c20                	flw	fs0,120(s0)
    50c6:	0a20                	addi	s0,sp,280
    50c8:	0000                	unimp
    50ca:	0000                	unimp
    50cc:	207c                	fld	fa5,192(s0)
    50ce:	614d                	addi	sp,sp,176
    50d0:	3a70                	fld	fa2,240(a2)
    50d2:	2020                	fld	fs0,64(s0)
    50d4:	2020                	fld	fs0,64(s0)
    50d6:	2020                	fld	fs0,64(s0)
    50d8:	2020                	fld	fs0,64(s0)
    50da:	2020                	fld	fs0,64(s0)
    50dc:	2020                	fld	fs0,64(s0)
    50de:	2020                	fld	fs0,64(s0)
    50e0:	2020                	fld	fs0,64(s0)
    50e2:	2020                	fld	fs0,64(s0)
    50e4:	2020                	fld	fs0,64(s0)
    50e6:	2020                	fld	fs0,64(s0)
    50e8:	2020                	fld	fs0,64(s0)
    50ea:	2020                	fld	fs0,64(s0)
    50ec:	2020                	fld	fs0,64(s0)
    50ee:	2020                	fld	fs0,64(s0)
    50f0:	2020                	fld	fs0,64(s0)
    50f2:	2020                	fld	fs0,64(s0)
    50f4:	2020                	fld	fs0,64(s0)
    50f6:	2020                	fld	fs0,64(s0)
    50f8:	2020                	fld	fs0,64(s0)
    50fa:	2020                	fld	fs0,64(s0)
    50fc:	2020                	fld	fs0,64(s0)
    50fe:	0a20                	addi	s0,sp,280
    5100:	0000                	unimp
    5102:	0000                	unimp
    5104:	207c                	fld	fa5,192(s0)
    5106:	6e49                	lui	t3,0x12
    5108:	6576                	flw	fa0,92(sp)
    510a:	746e                	flw	fs0,248(sp)
    510c:	3a79726f          	jal	tp,9ccb2 <__global_pointer+0x97732>
    5110:	2020                	fld	fs0,64(s0)
    5112:	2020                	fld	fs0,64(s0)
    5114:	2020                	fld	fs0,64(s0)
    5116:	2020                	fld	fs0,64(s0)
    5118:	2020                	fld	fs0,64(s0)
    511a:	2020                	fld	fs0,64(s0)
    511c:	2020                	fld	fs0,64(s0)
    511e:	2020                	fld	fs0,64(s0)
    5120:	2020                	fld	fs0,64(s0)
    5122:	2020                	fld	fs0,64(s0)
    5124:	2020                	fld	fs0,64(s0)
    5126:	2020                	fld	fs0,64(s0)
    5128:	2020                	fld	fs0,64(s0)
    512a:	2020                	fld	fs0,64(s0)
    512c:	2020                	fld	fs0,64(s0)
    512e:	2020                	fld	fs0,64(s0)
    5130:	2020                	fld	fs0,64(s0)
    5132:	2020                	fld	fs0,64(s0)
    5134:	7c20                	flw	fs0,120(s0)
    5136:	0a20                	addi	s0,sp,280
    5138:	0000                	unimp
    513a:	0000                	unimp
    513c:	2d2d2d2b          	.insn	4, 0x2d2d2d2b
    5140:	2d2d                	jal	577a <__global_pointer+0x1fa>
    5142:	2d2d                	jal	577c <__global_pointer+0x1fc>
    5144:	2d2d                	jal	577e <__global_pointer+0x1fe>
    5146:	2d2d                	jal	5780 <__global_pointer+0x200>
    5148:	2d2d                	jal	5782 <__global_pointer+0x202>
    514a:	2d2d                	jal	5784 <__global_pointer+0x204>
    514c:	2d2d                	jal	5786 <__global_pointer+0x206>
    514e:	2d2d                	jal	5788 <__global_pointer+0x208>
    5150:	2d2d                	jal	578a <__global_pointer+0x20a>
    5152:	2d2d                	jal	578c <__global_pointer+0x20c>
    5154:	2d2d                	jal	578e <__global_pointer+0x20e>
    5156:	2d2d                	jal	5790 <__global_pointer+0x210>
    5158:	2d2d                	jal	5792 <__global_pointer+0x212>
    515a:	2d2d                	jal	5794 <__global_pointer+0x214>
    515c:	2d2d                	jal	5796 <__global_pointer+0x216>
    515e:	2d2d                	jal	5798 <__global_pointer+0x218>
    5160:	2d2d                	jal	579a <__global_pointer+0x21a>
    5162:	2d2d                	jal	579c <__global_pointer+0x21c>
    5164:	2d2d                	jal	579e <__global_pointer+0x21e>
    5166:	2d2d                	jal	57a0 <__global_pointer+0x220>
    5168:	2d2d                	jal	57a2 <__global_pointer+0x222>
    516a:	2d2d                	jal	57a4 <__global_pointer+0x224>
    516c:	2b2d                	jal	56a6 <__global_pointer+0x126>
    516e:	000a                	c.slli	zero,0x2
    5170:	7250                	flw	fa2,36(a2)
    5172:	7365                	lui	t1,0xffff9
    5174:	41452073          	csrs	0x414,a0
    5178:	66205453          	.insn	4, 0x66205453
    517c:	5920726f          	jal	tp,c70e <__global_pointer+0x718e>
    5180:	7365                	lui	t1,0xffff9
    5182:	202c                	fld	fa1,64(s0)
    5184:	54534557          	.insn	4, 0x54534557
    5188:	6620                	flw	fs0,72(a2)
    518a:	4e20726f          	jal	tp,c66c <__global_pointer+0x70ec>
    518e:	000a2e6f          	jal	t3,a718e <__global_pointer+0xa1c0e>
    5192:	0000                	unimp
    5194:	7250                	flw	fa2,36(a2)
    5196:	7365                	lui	t1,0xffff9
    5198:	4f4e2073          	csrs	0x4f4,t3
    519c:	5452                	lw	s0,52(sp)
    519e:	2048                	fld	fa0,128(s0)
    51a0:	6f74                	flw	fa3,92(a4)
    51a2:	6520                	flw	fs0,72(a0)
    51a4:	6978                	flw	fa4,84(a0)
    51a6:	2e74                	fld	fa3,216(a2)
    51a8:	000a                	c.slli	zero,0x2
    51aa:	0000                	unimp
    51ac:	726f7453          	.insn	4, 0x726f7453
    51b0:	6761                	lui	a4,0x18
    51b2:	2065                	jal	525a <CSWTCH.15+0x3ee>
    51b4:	654d                	lui	a0,0x13
    51b6:	756e                	flw	fa0,248(sp)
    51b8:	0a3a                	slli	s4,s4,0xe
    51ba:	0000                	unimp
    51bc:	4145                	li	sp,17
    51be:	203a5453          	.insn	4, 0x203a5453
    51c2:	6956                	flw	fs2,84(sp)
    51c4:	7765                	lui	a4,0xffff9
    51c6:	7320                	flw	fs0,96(a4)
    51c8:	6f74                	flw	fa3,92(a4)
    51ca:	6172                	flw	ft2,28(sp)
    51cc:	69206567          	.insn	4, 0x69206567
    51d0:	6574                	flw	fa3,76(a0)
    51d2:	736d                	lui	t1,0xffffb
    51d4:	000a                	c.slli	zero,0x2
    51d6:	0000                	unimp
    51d8:	54534557          	.insn	4, 0x54534557
    51dc:	203a                	fld	ft0,392(sp)
    51de:	7254                	flw	fa3,36(a2)
    51e0:	6e61                	lui	t3,0x18
    51e2:	72656673          	csrrsi	a2,mhpmevent6h,10
    51e6:	6920                	flw	fs0,80(a0)
    51e8:	6574                	flw	fa3,76(a0)
    51ea:	206d                	jal	5294 <CSWTCH.15+0x428>
    51ec:	7266                	flw	ft4,120(sp)
    51ee:	69206d6f          	jal	s10,b880 <__global_pointer+0x6300>
    51f2:	766e                	flw	fa2,248(sp)
    51f4:	6e65                	lui	t3,0x19
    51f6:	6f74                	flw	fa3,92(a4)
    51f8:	7972                	flw	fs2,60(sp)
    51fa:	7420                	flw	fs0,104(s0)
    51fc:	7473206f          	j	38142 <__global_pointer+0x32bc2>
    5200:	6761726f          	jal	tp,1c876 <__global_pointer+0x172f6>
    5204:	0a65                	addi	s4,s4,25
    5206:	0000                	unimp
    5208:	54554f53          	.insn	4, 0x54554f53
    520c:	3a48                	fld	fa0,176(a2)
    520e:	5420                	lw	s0,104(s0)
    5210:	6172                	flw	ft2,28(sp)
    5212:	736e                	flw	ft6,248(sp)
    5214:	6566                	flw	fa0,88(sp)
    5216:	2072                	fld	ft0,280(sp)
    5218:	7469                	lui	s0,0xffffa
    521a:	6d65                	lui	s10,0x19
    521c:	6620                	flw	fs0,72(a2)
    521e:	6f72                	flw	ft10,28(sp)
    5220:	206d                	jal	52ca <CSWTCH.15+0x45e>
    5222:	726f7473          	csrrci	s0,mhpmevent6h,30
    5226:	6761                	lui	a4,0x18
    5228:	2065                	jal	52d0 <CSWTCH.15+0x464>
    522a:	6f74                	flw	fa3,92(a4)
    522c:	6920                	flw	fs0,80(a0)
    522e:	766e                	flw	fa2,248(sp)
    5230:	6e65                	lui	t3,0x19
    5232:	6f74                	flw	fa3,92(a4)
    5234:	7972                	flw	fs2,60(sp)
    5236:	000a                	c.slli	zero,0x2
    5238:	4f4e                	lw	t5,208(sp)
    523a:	5452                	lw	s0,52(sp)
    523c:	3a48                	fld	fa0,176(a2)
    523e:	4520                	lw	s0,72(a0)
    5240:	6978                	flw	fa4,84(a0)
    5242:	2074                	fld	fa3,192(s0)
    5244:	726f7473          	csrrci	s0,mhpmevent6h,30
    5248:	6761                	lui	a4,0x18
    524a:	0a65                	addi	s4,s4,25
    524c:	0000                	unimp
    524e:	0000                	unimp
    5250:	7250                	flw	fa2,36(a2)
    5252:	7365                	lui	t1,0xffff9
    5254:	20612073          	csrs	0x206,sp
    5258:	74697773          	csrrci	a4,0x746,18
    525c:	74206863          	bltu	zero,sp,59ac <__global_pointer+0x42c>
    5260:	6863206f          	j	378e6 <__global_pointer+0x32366>
    5264:	65736f6f          	jal	t5,3c0ba <__global_pointer+0x36b3a>
    5268:	6120                	flw	fs0,64(a0)
    526a:	206e                	fld	ft0,216(sp)
    526c:	6361                	lui	t1,0x18
    526e:	6974                	flw	fa3,84(a0)
    5270:	0a2e6e6f          	jal	t3,eb312 <__global_pointer+0xe5d92>
    5274:	0000                	unimp
    5276:	0000                	unimp
    5278:	7845                	lui	a6,0xffff1
    527a:	7469                	lui	s0,0xffffa
    527c:	6e69                	lui	t3,0x1a
    527e:	74732067          	.insn	4, 0x74732067
    5282:	6761726f          	jal	tp,1c8f8 <__global_pointer+0x17378>
    5286:	2e65                	jal	563e <__global_pointer+0xbe>
    5288:	000a                	c.slli	zero,0x2
    528a:	0000                	unimp
    528c:	6f59                	lui	t5,0x16
    528e:	7275                	lui	tp,0xffffd
    5290:	6920                	flw	fs0,80(a0)
    5292:	766e                	flw	fa2,248(sp)
    5294:	6e65                	lui	t3,0x19
    5296:	6f74                	flw	fa3,92(a4)
    5298:	7972                	flw	fs2,60(sp)
    529a:	0a3a                	slli	s4,s4,0xe
    529c:	0000                	unimp
    529e:	0000                	unimp
    52a0:	6c46                	flw	fs8,80(sp)
    52a2:	7069                	c.lui	zero,0xffffa
    52a4:	6f20                	flw	fs0,88(a4)
    52a6:	656e                	flw	fa0,216(sp)
    52a8:	7320                	flw	fs0,96(a4)
    52aa:	6f6c                	flw	fa1,92(a4)
    52ac:	2074                	fld	fa3,192(s0)
    52ae:	74697773          	csrrci	a4,0x746,18
    52b2:	28206863          	bltu	zero,sp,5542 <CSWTCH.15+0x6d6>
    52b6:	2d31                	jal	58d2 <__global_pointer+0x352>
    52b8:	2935                	jal	56f4 <__global_pointer+0x174>
    52ba:	7420                	flw	fs0,104(s0)
    52bc:	6863206f          	j	37942 <__global_pointer+0x323c2>
    52c0:	65736f6f          	jal	t5,3c116 <__global_pointer+0x36b96>
    52c4:	7420                	flw	fs0,104(s0)
    52c6:	6568                	flw	fa0,76(a0)
    52c8:	7320                	flw	fs0,96(a4)
    52ca:	6f6c                	flw	fa1,92(a4)
    52cc:	2074                	fld	fa3,192(s0)
    52ce:	6f74                	flw	fa3,92(a4)
    52d0:	7420                	flw	fs0,104(s0)
    52d2:	6172                	flw	ft2,28(sp)
    52d4:	736e                	flw	ft6,248(sp)
    52d6:	6566                	flw	fa0,88(sp)
    52d8:	2072                	fld	ft0,280(sp)
    52da:	4228                	lw	a0,64(a2)
    52dc:	4341                	li	t1,16
    52de:	6f74204b          	.insn	4, 0x6f74204b
    52e2:	6320                	flw	fs0,64(a4)
    52e4:	6e61                	lui	t3,0x18
    52e6:	296c6563          	bltu	s8,s6,5570 <CSWTCH.15+0x704>
    52ea:	0a3a                	slli	s4,s4,0xe
    52ec:	0000                	unimp
    52ee:	0000                	unimp
    52f0:	636e6143          	fmadd.d	ft2,ft8,fs6,fa2,unknown
    52f4:	6c65                	lui	s8,0x19
    52f6:	656c                	flw	fa1,76(a0)
    52f8:	2e64                	fld	fs1,216(a2)
    52fa:	000a                	c.slli	zero,0x2
    52fc:	6e49                	lui	t3,0x12
    52fe:	6576                	flw	fa0,92(sp)
    5300:	746e                	flw	fs0,248(sp)
    5302:	2079726f          	jal	tp,9cd08 <__global_pointer+0x97788>
    5306:	746f6c73          	csrrsi	s8,0x746,30
    530a:	6920                	flw	fs0,80(a0)
    530c:	6d652073          	csrs	0x6d6,a0
    5310:	7470                	flw	fa2,108(s0)
    5312:	2e79                	jal	56b0 <__global_pointer+0x130>
    5314:	000a                	c.slli	zero,0x2
    5316:	0000                	unimp
    5318:	726f7453          	.insn	4, 0x726f7453
    531c:	6761                	lui	a4,0x18
    531e:	2065                	jal	53c6 <CSWTCH.15+0x55a>
    5320:	7469                	lui	s0,0xffffa
    5322:	6d65                	lui	s10,0x19
    5324:	000a3a73          	csrrc	s4,ustatus,s4
    5328:	6c46                	flw	fs8,80(sp)
    532a:	7069                	c.lui	zero,0xffffa
    532c:	6f20                	flw	fs0,88(a4)
    532e:	656e                	flw	fa0,216(sp)
    5330:	7320                	flw	fs0,96(a4)
    5332:	6f6c                	flw	fa1,92(a4)
    5334:	2074                	fld	fa3,192(s0)
    5336:	74697773          	csrrci	a4,0x746,18
    533a:	28206863          	bltu	zero,sp,55ca <__global_pointer+0x4a>
    533e:	2d31                	jal	595a <__global_pointer+0x3da>
    5340:	2935                	jal	577c <__global_pointer+0x1fc>
    5342:	7420                	flw	fs0,104(s0)
    5344:	6863206f          	j	379ca <__global_pointer+0x3244a>
    5348:	65736f6f          	jal	t5,3c19e <__global_pointer+0x36c1e>
    534c:	7420                	flw	fs0,104(s0)
    534e:	6568                	flw	fa0,76(a0)
    5350:	7320                	flw	fs0,96(a4)
    5352:	6f74                	flw	fa3,92(a4)
    5354:	6172                	flw	ft2,28(sp)
    5356:	73206567          	.insn	4, 0x73206567
    535a:	6f6c                	flw	fa1,92(a4)
    535c:	2074                	fld	fa3,192(s0)
    535e:	6f74                	flw	fa3,92(a4)
    5360:	7420                	flw	fs0,104(s0)
    5362:	6172                	flw	ft2,28(sp)
    5364:	736e                	flw	ft6,248(sp)
    5366:	6566                	flw	fa0,88(sp)
    5368:	2072                	fld	ft0,280(sp)
    536a:	6f74                	flw	fa3,92(a4)
    536c:	6920                	flw	fs0,80(a0)
    536e:	766e                	flw	fa2,248(sp)
    5370:	6e65                	lui	t3,0x19
    5372:	6f74                	flw	fa3,92(a4)
    5374:	7972                	flw	fs2,60(sp)
    5376:	2820                	fld	fs0,80(s0)
    5378:	4142                	lw	sp,16(sp)
    537a:	74204b43          	.insn	4, 0x74204b43
    537e:	6163206f          	j	37994 <__global_pointer+0x32414>
    5382:	636e                	flw	ft6,216(sp)
    5384:	6c65                	lui	s8,0x19
    5386:	3a29                	jal	4ca0 <welcome_msg+0x80>
    5388:	000a                	c.slli	zero,0x2
    538a:	0000                	unimp
    538c:	726f7453          	.insn	4, 0x726f7453
    5390:	6761                	lui	a4,0x18
    5392:	2065                	jal	543a <CSWTCH.15+0x5ce>
    5394:	746f6c73          	csrrsi	s8,0x746,30
    5398:	6920                	flw	fs0,80(a0)
    539a:	6d652073          	csrs	0x6d6,a0
    539e:	7470                	flw	fa2,108(s0)
    53a0:	2e79                	jal	573e <__global_pointer+0x1be>
    53a2:	000a                	c.slli	zero,0x2
    53a4:	7250                	flw	fa2,36(a2)
    53a6:	7365                	lui	t1,0xffff9
    53a8:	4f4e2073          	csrs	0x4f4,t3
    53ac:	5452                	lw	s0,52(sp)
    53ae:	2048                	fld	fa0,128(s0)
    53b0:	6f28                	flw	fa0,88(a4)
    53b2:	2072                	fld	ft0,280(sp)
    53b4:	4142                	lw	sp,16(sp)
    53b6:	20294b43          	fmadd.s	fs6,fs2,ft2,ft4,rmm
    53ba:	6f74                	flw	fa3,92(a4)
    53bc:	6520                	flw	fs0,72(a0)
    53be:	6978                	flw	fa4,84(a0)
    53c0:	2074                	fld	fa3,192(s0)
    53c2:	726f7473          	csrrci	s0,mhpmevent6h,30
    53c6:	6761                	lui	a4,0x18
    53c8:	2e65                	jal	5780 <__global_pointer+0x200>
    53ca:	000a                	c.slli	zero,0x2
    53cc:	6f44                	flw	fs1,28(a4)
    53ce:	7920                	flw	fs0,112(a0)
    53d0:	7720756f          	jal	a0,cb42 <__global_pointer+0x75c2>
    53d4:	6e61                	lui	t3,0x18
    53d6:	2074                	fld	fa3,192(s0)
    53d8:	6f74                	flw	fa3,92(a4)
    53da:	6520                	flw	fs0,72(a0)
    53dc:	646e                	flw	fs0,216(sp)
    53de:	7420                	flw	fs0,104(s0)
    53e0:	6568                	flw	fa0,76(a0)
    53e2:	6720                	flw	fs0,72(a4)
    53e4:	6d61                	lui	s10,0x18
    53e6:	2065                	jal	548e <CSWTCH.15+0x622>
    53e8:	6e61                	lui	t3,0x18
    53ea:	2064                	fld	fs1,192(s0)
    53ec:	6572                	flw	fa0,28(sp)
    53ee:	7574                	flw	fa3,108(a0)
    53f0:	6e72                	flw	ft8,28(sp)
    53f2:	7420                	flw	fs0,104(s0)
    53f4:	6145206f          	j	57a08 <__global_pointer+0x52488>
    53f8:	7472                	flw	fs0,60(sp)
    53fa:	3f68                	fld	fa0,248(a4)
    53fc:	000a                	c.slli	zero,0x2
    53fe:	0000                	unimp
    5400:	6f59                	lui	t5,0x16
    5402:	7275                	lui	tp,0xffffd
    5404:	6320                	flw	fs0,64(a4)
    5406:	6168                	flw	fa0,68(a0)
    5408:	636e                	flw	ft6,216(sp)
    540a:	2065                	jal	54b2 <CSWTCH.15+0x646>
    540c:	6f74                	flw	fa3,92(a4)
    540e:	7320                	flw	fs0,96(a4)
    5410:	7275                	lui	tp,0xffffd
    5412:	6976                	flw	fs2,92(sp)
    5414:	6576                	flw	fa0,92(sp)
    5416:	7720                	flw	fs0,104(a4)
    5418:	7361                	lui	t1,0xffff8
    541a:	203a                	fld	ft0,392(sp)
    541c:	0000                	unimp
    541e:	0000                	unimp
    5420:	0a25                	addi	s4,s4,9
    5422:	0000                	unimp
    5424:	6f59                	lui	t5,0x16
    5426:	2075                	jal	54d2 <CSWTCH.15+0x666>
    5428:	7274                	flw	fa3,100(a2)
    542a:	6569                	lui	a0,0x1a
    542c:	2064                	fld	fs1,192(s0)
    542e:	6f74                	flw	fa3,92(a4)
    5430:	6c20                	flw	fs0,88(s0)
    5432:	6165                	addi	sp,sp,112
    5434:	6576                	flw	fa0,92(sp)
    5436:	202c                	fld	fa1,64(s0)
    5438:	7562                	flw	fa0,56(sp)
    543a:	2074                	fld	fa3,192(s0)
    543c:	6874                	flw	fa3,84(s0)
    543e:	2065                	jal	54e6 <CSWTCH.15+0x67a>
    5440:	70696873          	csrrsi	a6,0x706,18
    5444:	6420                	flw	fs0,72(s0)
    5446:	6e73656f          	jal	a0,3c32c <__global_pointer+0x36dac>
    544a:	77207427          	.insn	4, 0x77207427
    544e:	6e61                	lui	t3,0x18
    5450:	2074                	fld	fa3,192(s0)
    5452:	6f74                	flw	fa3,92(a4)
    5454:	7320                	flw	fs0,96(a4)
    5456:	6174                	flw	fa3,68(a0)
    5458:	7472                	flw	fs0,60(sp)
    545a:	2e2e                	fld	ft8,200(sp)
    545c:	002e                	c.slli	zero,0xb
    545e:	0000                	unimp
    5460:	0031                	c.nop	12
    5462:	0000                	unimp
    5464:	0032                	c.slli	zero,0xc
    5466:	0000                	unimp
    5468:	00000033          	add	zero,zero,zero
    546c:	0034                	addi	a3,sp,8
    546e:	0000                	unimp
    5470:	0035                	c.nop	13
    5472:	0000                	unimp
    5474:	0036                	c.slli	zero,0xd
    5476:	0000                	unimp
    5478:	00000037          	lui	zero,0x0
    547c:	0038                	addi	a4,sp,8
    547e:	0000                	unimp
    5480:	0039                	c.nop	14
    5482:	0000                	unimp
    5484:	3031                	jal	4c90 <welcome_msg+0x70>
    5486:	0000                	unimp
    5488:	6f59                	lui	t5,0x16
    548a:	2075                	jal	5536 <CSWTCH.15+0x6ca>
    548c:	76727573          	csrrci	a0,0x767,4
    5490:	7669                	lui	a2,0xffffa
    5492:	6465                	lui	s0,0x19
    5494:	7420                	flw	fs0,104(s0)
    5496:	6568                	flw	fa0,76(a0)
    5498:	6a20                	flw	fs0,80(a2)
    549a:	6e72756f          	jal	a0,2d380 <__global_pointer+0x27e00>
    549e:	7965                	lui	s2,0xffff9
    54a0:	6220                	flw	fs0,64(a2)
    54a2:	6361                	lui	t1,0x18
    54a4:	6f74206b          	.insn	4, 0x6f74206b
    54a8:	4520                	lw	s0,72(a0)
    54aa:	7261                	lui	tp,0xffff8
    54ac:	6874                	flw	fa3,84(s0)
    54ae:	2021                	jal	54b6 <CSWTCH.15+0x64a>
    54b0:	676e6f43          	.insn	4, 0x676e6f43
    54b4:	6172                	flw	ft2,28(sp)
    54b6:	7574                	flw	fa3,108(a0)
    54b8:	616c                	flw	fa1,68(a0)
    54ba:	6974                	flw	fa3,84(a0)
    54bc:	21736e6f          	jal	t3,3bed2 <__global_pointer+0x36952>
    54c0:	000a                	c.slli	zero,0x2
    54c2:	0000                	unimp
    54c4:	6e55                	lui	t3,0x15
    54c6:	6f66                	flw	ft10,88(sp)
    54c8:	7472                	flw	fs0,60(sp)
    54ca:	6e75                	lui	t3,0x1d
    54cc:	7461                	lui	s0,0xffff8
    54ce:	6c65                	lui	s8,0x19
    54d0:	2c79                	jal	576e <__global_pointer+0x1ee>
    54d2:	7920                	flw	fs0,112(a0)
    54d4:	6420756f          	jal	a0,cb16 <__global_pointer+0x7596>
    54d8:	6469                	lui	s0,0x1a
    54da:	6e20                	flw	fs0,88(a2)
    54dc:	7320746f          	jal	s0,cc0e <__global_pointer+0x768e>
    54e0:	7275                	lui	tp,0xffffd
    54e2:	6976                	flw	fs2,92(sp)
    54e4:	6576                	flw	fa0,92(sp)
    54e6:	7420                	flw	fs0,104(s0)
    54e8:	6568                	flw	fa0,76(a0)
    54ea:	6a20                	flw	fs0,80(a2)
    54ec:	6e72756f          	jal	a0,2d3d2 <__global_pointer+0x27e52>
    54f0:	7965                	lui	s2,0xffff9
    54f2:	6220                	flw	fs0,64(a2)
    54f4:	6361                	lui	t1,0x18
    54f6:	6f74206b          	.insn	4, 0x6f74206b
    54fa:	4520                	lw	s0,72(a0)
    54fc:	7261                	lui	tp,0xffff8
    54fe:	6874                	flw	fa3,84(s0)
    5500:	0a2e                	slli	s4,s4,0xb
    5502:	0000                	unimp
    5504:	62617247          	fmsub.d	ft4,ft2,ft6,fa2
    5508:	7320                	flw	fs0,96(a4)
    550a:	20656d6f          	jal	s10,5b710 <__global_pointer+0x56190>
    550e:	6f66                	flw	ft10,88(sp)
    5510:	0a3f646f          	jal	s0,fbdb2 <__global_pointer+0xf6832>
    5514:	0000                	unimp
    5516:	0000                	unimp
    5518:	6441                	lui	s0,0x10
    551a:	2064                	fld	fs1,192(s0)
    551c:	7566                	flw	fa0,120(sp)
    551e:	6c65                	lui	s8,0x19
    5520:	7420                	flw	fs0,104(s0)
    5522:	6874206f          	j	483a8 <__global_pointer+0x42e28>
    5526:	2065                	jal	55ce <__global_pointer+0x4e>
    5528:	6e65                	lui	t3,0x19
    552a:	656e6967          	.insn	4, 0x656e6967
    552e:	6220                	flw	fs0,64(a2)
    5530:	7961                	lui	s2,0xffff8
    5532:	00000a3f 6f590000 	.insn	8, 0x6f59000000000a3f
    553a:	2075                	jal	55e6 <__global_pointer+0x66>
    553c:	6168                	flw	fa0,68(a0)
    553e:	6576                	flw	fa0,92(sp)
    5540:	6e20                	flw	fs0,88(a2)
    5542:	6120776f          	jal	a4,cb54 <__global_pointer+0x75d4>
    5546:	6464                	flw	fs1,76(s0)
    5548:	6465                	lui	s0,0x19
    554a:	6620                	flw	fs0,72(a2)
    554c:	6575                	lui	a0,0x1d
    554e:	206c                	fld	fa1,192(s0)
    5550:	6f74                	flw	fa3,92(a4)
    5552:	7420                	flw	fs0,104(s0)
    5554:	6568                	flw	fa0,76(a0)
    5556:	6520                	flw	fs0,72(a0)
    5558:	676e                	flw	fa4,216(sp)
    555a:	6e69                	lui	t3,0x1a
    555c:	2065                	jal	5604 <__global_pointer+0x84>
    555e:	6162                	flw	ft2,24(sp)
    5560:	2e79                	jal	58fe <__global_pointer+0x37e>
    5562:	000a                	c.slli	zero,0x2
    5564:	6f59                	lui	t5,0x16
    5566:	2075                	jal	5612 <__global_pointer+0x92>
    5568:	6f64                	flw	fs1,92(a4)
    556a:	276e                	fld	fa4,216(sp)
    556c:	2074                	fld	fa3,192(s0)
    556e:	6168                	flw	fa0,68(a0)
    5570:	6576                	flw	fa0,92(sp)
    5572:	6120                	flw	fs0,64(a0)
    5574:	796e                	flw	fs2,248(sp)
    5576:	6620                	flw	fs0,72(a2)
    5578:	6575                	lui	a0,0x1d
    557a:	206c                	fld	fa1,192(s0)
    557c:	6e69                	lui	t3,0x1a
    557e:	7920                	flw	fs0,112(a0)
    5580:	2072756f          	jal	a0,2cf86 <__global_pointer+0x27a06>
    5584:	6e69                	lui	t3,0x1a
    5586:	6576                	flw	fa0,92(sp)
    5588:	746e                	flw	fs0,248(sp)
    558a:	2e79726f          	jal	tp,9d070 <__global_pointer+0x97af0>
    558e:	000a                	c.slli	zero,0x2
    5590:	6f59                	lui	t5,0x16
    5592:	2075                	jal	563e <__global_pointer+0xbe>
    5594:	206e6163          	bltu	t3,t1,5796 <__global_pointer+0x216>
    5598:	6e69                	lui	t3,0x1a
    559a:	6574                	flw	fa3,76(a0)
    559c:	6172                	flw	ft2,28(sp)
    559e:	77207463          	bgeu	zero,s2,5d06 <__global_pointer+0x786>
    55a2:	7469                	lui	s0,0xffffa
    55a4:	2068                	fld	fa0,192(s0)
    55a6:	6874                	flw	fa3,84(s0)
    55a8:	2065                	jal	5650 <__global_pointer+0xd0>
    55aa:	616c                	flw	fa1,68(a0)
    55ac:	6f62                	flw	ft10,24(sp)
    55ae:	6172                	flw	ft2,28(sp)
    55b0:	6f74                	flw	fa3,92(a4)
    55b2:	7972                	flw	fs2,60(sp)
    55b4:	0a2e                	slli	s4,s4,0xb
    55b6:	0000                	unimp
    55b8:	4145                	li	sp,17
    55ba:	203a5453          	.insn	4, 0x203a5453
    55be:	7441                	lui	s0,0xffff0
    55c0:	6574                	flw	fa3,76(a0)
    55c2:	706d                	c.lui	zero,0xffffb
    55c4:	2074                	fld	fa3,192(s0)
    55c6:	6f74                	flw	fa3,92(a4)
    55c8:	6320                	flw	fs0,64(a4)
    55ca:	6572                	flw	fa0,28(sp)
    55cc:	7461                	lui	s0,0xffff8
    55ce:	2065                	jal	5676 <__global_pointer+0xf6>
    55d0:	45544157          	.insn	4, 0x45544157
    55d4:	0a52                	slli	s4,s4,0x14
    55d6:	0000                	unimp
    55d8:	54534557          	.insn	4, 0x54534557
    55dc:	203a                	fld	ft0,392(sp)
    55de:	7441                	lui	s0,0xffff0
    55e0:	6574                	flw	fa3,76(a0)
    55e2:	706d                	c.lui	zero,0xffffb
    55e4:	2074                	fld	fa3,192(s0)
    55e6:	6f74                	flw	fa3,92(a4)
    55e8:	6320                	flw	fs0,64(a4)
    55ea:	6572                	flw	fa0,28(sp)
    55ec:	7461                	lui	s0,0xffff8
    55ee:	2065                	jal	5696 <__global_pointer+0x116>
    55f0:	5546                	lw	a0,112(sp)
    55f2:	4c45                	li	s8,17
    55f4:	000a                	c.slli	zero,0x2
    55f6:	0000                	unimp
    55f8:	4f4e                	lw	t5,208(sp)
    55fa:	5452                	lw	s0,52(sp)
    55fc:	3a48                	fld	fa0,176(a2)
    55fe:	4520                	lw	s0,72(a0)
    5600:	6978                	flw	fa4,84(a0)
    5602:	0a74                	addi	a3,sp,284
    5604:	0000                	unimp
    5606:	0000                	unimp
    5608:	6f59                	lui	t5,0x16
    560a:	2075                	jal	56b6 <__global_pointer+0x136>
    560c:	61657263          	bgeu	a0,s6,5c10 <__global_pointer+0x690>
    5610:	6574                	flw	fa3,76(a0)
    5612:	2064                	fld	fs1,192(s0)
    5614:	656d6f73          	csrrsi	t5,hviprio1h,26
    5618:	5720                	lw	s0,104(a4)
    561a:	5441                	li	s0,-16
    561c:	5245                	li	tp,-15
    561e:	0a2e                	slli	s4,s4,0xb
    5620:	0000                	unimp
    5622:	0000                	unimp
    5624:	6f59                	lui	t5,0x16
    5626:	2075                	jal	56d2 <__global_pointer+0x152>
    5628:	61657263          	bgeu	a0,s6,5c2c <__global_pointer+0x6ac>
    562c:	6574                	flw	fa3,76(a0)
    562e:	2064                	fld	fs1,192(s0)
    5630:	656d6f73          	csrrsi	t5,hviprio1h,26
    5634:	4620                	lw	s0,72(a2)
    5636:	4555                	li	a0,21
    5638:	2e4c                	fld	fa1,152(a2)
    563a:	000a                	c.slli	zero,0x2
    563c:	6f59                	lui	t5,0x16
    563e:	2075                	jal	56ea <__global_pointer+0x16a>
    5640:	7261                	lui	tp,0xffff8
    5642:	2065                	jal	56ea <__global_pointer+0x16a>
    5644:	6261                	lui	tp,0x18
    5646:	2074756f          	jal	a0,4d04c <__global_pointer+0x47acc>
    564a:	6f74                	flw	fa3,92(a4)
    564c:	6c20                	flw	fs0,88(s0)
    564e:	6165                	addi	sp,sp,112
    5650:	6576                	flw	fa0,92(sp)
    5652:	7420                	flw	fs0,104(s0)
    5654:	6568                	flw	fa0,76(a0)
    5656:	7320                	flw	fs0,96(a4)
    5658:	6968                	flw	fa0,84(a0)
    565a:	2c70                	fld	fa2,216(s0)
    565c:	7220                	flw	fs0,96(a2)
    565e:	6d65                	lui	s10,0x19
    5660:	6d65                	lui	s10,0x19
    5662:	6562                	flw	fa0,24(sp)
    5664:	2072                	fld	ft0,280(sp)
    5666:	6f74                	flw	fa3,92(a4)
    5668:	6b20                	flw	fs0,80(a4)
    566a:	6565                	lui	a0,0x19
    566c:	2070                	fld	fa2,192(s0)
    566e:	6e61                	lui	t3,0x18
    5670:	6520                	flw	fs0,72(a0)
    5672:	6579                	lui	a0,0x1e
    5674:	6f20                	flw	fs0,88(a4)
    5676:	206e                	fld	ft0,216(sp)
    5678:	6874                	flw	fa3,84(s0)
    567a:	2065                	jal	5722 <__global_pointer+0x1a2>
    567c:	6779786f          	jal	a6,9d4f2 <__global_pointer+0x97f72>
    5680:	6e65                	lui	t3,0x19
    5682:	0a2e                	slli	s4,s4,0xb
    5684:	0000                	unimp
    5686:	0000                	unimp
    5688:	6f59                	lui	t5,0x16
    568a:	2075                	jal	5736 <__global_pointer+0x1b6>
    568c:	7261                	lui	tp,0xffff8
    568e:	2065                	jal	5736 <__global_pointer+0x1b6>
    5690:	6972                	flw	fs2,28(sp)
    5692:	20746867          	.insn	4, 0x20746867
    5696:	7374756f          	jal	a0,4d5cc <__global_pointer+0x4804c>
    569a:	6469                	lui	s0,0x1a
    569c:	2065                	jal	5744 <__global_pointer+0x1c4>
    569e:	6874                	flw	fa3,84(s0)
    56a0:	2065                	jal	5748 <__global_pointer+0x1c8>
    56a2:	70696873          	csrrsi	a6,0x706,18
    56a6:	6e20                	flw	fs0,88(a2)
    56a8:	0a2e776f          	jal	a4,ec74a <__global_pointer+0xe71ca>
    56ac:	0000                	unimp
    56ae:	0000                	unimp
    56b0:	6f44                	flw	fs1,28(a4)
    56b2:	7920                	flw	fs0,112(a0)
    56b4:	7720756f          	jal	a0,ce26 <__global_pointer+0x78a6>
    56b8:	6e61                	lui	t3,0x18
    56ba:	2074                	fld	fa3,192(s0)
    56bc:	6f74                	flw	fa3,92(a4)
    56be:	6c20                	flw	fs0,88(s0)
    56c0:	206b6f6f          	jal	t5,bb8c6 <__global_pointer+0xb6346>
    56c4:	7261                	lui	tp,0xffff8
    56c6:	646e756f          	jal	a0,ecd0c <__global_pointer+0xe778c>
    56ca:	7420                	flw	fs0,104(s0)
    56cc:	6568                	flw	fa0,76(a0)
    56ce:	6c20                	flw	fs0,88(s0)
    56d0:	6e61                	lui	t3,0x18
    56d2:	6964                	flw	fs1,84(a0)
    56d4:	676e                	flw	fa4,216(sp)
    56d6:	7320                	flw	fs0,96(a4)
    56d8:	7469                	lui	s0,0xffffa
    56da:	3f65                	jal	5692 <__global_pointer+0x112>
    56dc:	000a                	c.slli	zero,0x2
    56de:	0000                	unimp
    56e0:	6f59                	lui	t5,0x16
    56e2:	2075                	jal	578e <__global_pointer+0x20e>
    56e4:	7261                	lui	tp,0xffff8
    56e6:	2065                	jal	578e <__global_pointer+0x20e>
    56e8:	6e69                	lui	t3,0x1a
    56ea:	7420                	flw	fs0,104(s0)
    56ec:	6568                	flw	fa0,76(a0)
    56ee:	6820                	flw	fs0,80(s0)
    56f0:	7261                	lui	tp,0xffff8
    56f2:	4d206873          	csrrsi	a6,0x4d2,0
    56f6:	7261                	lui	tp,0xffff8
    56f8:	6974                	flw	fa3,84(a0)
    56fa:	6e61                	lui	t3,0x18
    56fc:	7720                	flw	fs0,104(a4)
    56fe:	7361                	lui	t1,0xffff8
    5700:	6574                	flw	fa3,76(a0)
    5702:	616c                	flw	fa1,68(a0)
    5704:	646e                	flw	fs0,216(sp)
    5706:	0a2e                	slli	s4,s4,0xb
    5708:	0000                	unimp
    570a:	0000                	unimp
    570c:	6f44                	flw	fs1,28(a4)
    570e:	7920                	flw	fs0,112(a0)
    5710:	7720756f          	jal	a0,ce82 <__global_pointer+0x7902>
    5714:	6e61                	lui	t3,0x18
    5716:	2074                	fld	fa3,192(s0)
    5718:	6f74                	flw	fa3,92(a4)
    571a:	6c20                	flw	fs0,88(s0)
    571c:	206b6f6f          	jal	t5,bb922 <__global_pointer+0xb63a2>
    5720:	7261                	lui	tp,0xffff8
    5722:	646e756f          	jal	a0,ecd68 <__global_pointer+0xe77e8>
    5726:	7420                	flw	fs0,104(s0)
    5728:	6568                	flw	fa0,76(a0)
    572a:	7720                	flw	fs0,104(a4)
    572c:	7361                	lui	t1,0xffff8
    572e:	6574                	flw	fa3,76(a0)
    5730:	616c                	flw	fa1,68(a0)
    5732:	646e                	flw	fs0,216(sp)
    5734:	00000a3f 6f206855 	.insn	8, 0x6f20685500000a3f
    573c:	2c68                	fld	fa0,216(s0)
    573e:	6920                	flw	fs0,80(a0)
    5740:	2074                	fld	fa3,192(s0)
    5742:	6f74                	flw	fa3,92(a4)
    5744:	61206b6f          	jal	s6,bd56 <__global_pointer+0x67d6>
    5748:	6c20                	flw	fs0,88(s0)
    574a:	6f20746f          	jal	s0,ce3c <__global_pointer+0x78bc>
    574e:	2066                	fld	ft0,88(sp)
    5750:	6e65                	lui	t3,0x19
    5752:	7265                	lui	tp,0xffff9
    5754:	74207967          	.insn	4, 0x74207967
    5758:	6567206f          	j	77dae <__global_pointer+0x7282e>
    575c:	2074                	fld	fa3,192(s0)
    575e:	2074756f          	jal	a0,4d164 <__global_pointer+0x47be4>
    5762:	7420666f          	jal	a2,bea4 <__global_pointer+0x6924>
    5766:	6568                	flw	fa0,76(a0)
    5768:	6c20                	flw	fs0,88(s0)
    576a:	65736f6f          	jal	t5,3c5c0 <__global_pointer+0x37040>
    576e:	7320                	flw	fs0,96(a4)
    5770:	2e6c696f          	jal	s2,cba56 <__global_pointer+0xc64d6>
    5774:	000a                	c.slli	zero,0x2
    5776:	0000                	unimp
    5778:	6f59                	lui	t5,0x16
    577a:	2075                	jal	5826 <__global_pointer+0x2a6>
    577c:	20656573          	csrrsi	a0,0x206,10
    5780:	2061                	jal	5808 <__global_pointer+0x288>
    5782:	616c                	flw	fa1,68(a0)
    5784:	6772                	flw	fa4,28(sp)
    5786:	2065                	jal	582e <__global_pointer+0x2ae>
    5788:	6369                	lui	t1,0x1a
    578a:	2065                	jal	5832 <__global_pointer+0x2b2>
    578c:	6f70                	flw	fa2,92(a4)
    578e:	646e                	flw	fs0,216(sp)
    5790:	202c                	fld	fa1,64(s0)
    5792:	616d                	addi	sp,sp,240
    5794:	6279                	lui	tp,0x1e
    5796:	2065                	jal	583e <__global_pointer+0x2be>
    5798:	6874                	flw	fa3,84(s0)
    579a:	7265                	lui	tp,0xffff9
    579c:	2065                	jal	5844 <__global_pointer+0x2c4>
    579e:	7369                	lui	t1,0xffffa
    57a0:	6c20                	flw	fs0,88(s0)
    57a2:	6669                	lui	a2,0x1a
    57a4:	3f65                	jal	575c <__global_pointer+0x1dc>
    57a6:	4420                	lw	s0,72(s0)
    57a8:	7369                	lui	t1,0xffffa
    57aa:	65766f63          	bltu	a2,s7,5e08 <__global_pointer+0x888>
    57ae:	3f72                	fld	ft10,312(sp)
    57b0:	000a                	c.slli	zero,0x2
    57b2:	0000                	unimp
    57b4:	6e20684f          	.insn	4, 0x6e20684f
    57b8:	74202c6f          	jal	s8,7efa <__global_pointer+0x297a>
    57bc:	6568                	flw	fa0,76(a0)
    57be:	7320                	flw	fs0,96(a4)
    57c0:	6168                	flw	fa0,68(a0)
    57c2:	7072                	flw	ft0,60(sp)
    57c4:	7220                	flw	fs0,96(a2)
    57c6:	736b636f          	jal	t1,bbefc <__global_pointer+0xb697c>
    57ca:	6320                	flw	fs0,64(a4)
    57cc:	6172                	flw	ft2,28(sp)
    57ce:	64656b63          	bltu	a0,t1,5e24 <__global_pointer+0x8a4>
    57d2:	6f20                	flw	fs0,88(a4)
    57d4:	656e                	flw	fa0,216(sp)
    57d6:	6f20                	flw	fs0,88(a4)
    57d8:	2066                	fld	ft0,88(sp)
    57da:	6f79                	lui	t5,0x1e
    57dc:	7275                	lui	tp,0xffffd
    57de:	6f20                	flw	fs0,88(a4)
    57e0:	7978                	flw	fa4,116(a0)
    57e2:	206e6567          	.insn	4, 0x206e6567
    57e6:	6174                	flw	fa3,68(a0)
    57e8:	6b6e                	flw	fs6,216(sp)
    57ea:	79202c73          	csrr	s8,0x792
    57ee:	6f20756f          	jal	a0,cee0 <__global_pointer+0x7960>
    57f2:	6c6e                	flw	fs8,216(sp)
    57f4:	2079                	jal	5882 <__global_pointer+0x302>
    57f6:	6168                	flw	fa0,68(a0)
    57f8:	6576                	flw	fa0,92(sp)
    57fa:	6820                	flw	fs0,80(s0)
    57fc:	6c61                	lui	s8,0x18
    57fe:	2066                	fld	ft0,88(sp)
    5800:	7420666f          	jal	a2,bf42 <__global_pointer+0x69c2>
    5804:	6568                	flw	fa0,76(a0)
    5806:	6f20                	flw	fs0,88(a4)
    5808:	7978                	flw	fa4,116(a0)
    580a:	206e6567          	.insn	4, 0x206e6567
    580e:	656c                	flw	fa1,76(a0)
    5810:	7466                	flw	fs0,120(sp)
    5812:	0a21                	addi	s4,s4,8
    5814:	0000                	unimp
    5816:	0000                	unimp
    5818:	6f59                	lui	t5,0x16
    581a:	2075                	jal	58c6 <__global_pointer+0x346>
    581c:	6e65                	lui	t3,0x19
    581e:	6574                	flw	fa3,76(a0)
    5820:	2072                	fld	ft0,280(sp)
    5822:	2061                	jal	58aa <__global_pointer+0x32a>
    5824:	6164                	flw	fs1,68(a0)
    5826:	6b72                	flw	fs6,28(sp)
    5828:	6320                	flw	fs0,64(a4)
    582a:	7661                	lui	a2,0xffff8
    582c:	2c65                	jal	5ae4 <__global_pointer+0x564>
    582e:	6420                	flw	fs0,72(s0)
    5830:	7369                	lui	t1,0xffffa
    5832:	65766f63          	bltu	a2,s7,5e90 <__global_pointer+0x910>
    5836:	2072                	fld	ft0,280(sp)
    5838:	6f6d                	lui	t5,0x1b
    583a:	6572                	flw	fa0,28(sp)
    583c:	00000a3f 20756f59 	.insn	8, 0x20756f5900000a3f
    5844:	7261                	lui	tp,0xffff8
    5846:	2065                	jal	58ee <__global_pointer+0x36e>
    5848:	6e69                	lui	t3,0x1a
    584a:	6120                	flw	fs0,64(a0)
    584c:	6320                	flw	fs0,64(a4)
    584e:	6172                	flw	ft2,28(sp)
    5850:	6574                	flw	fa3,76(a0)
    5852:	2c72                	fld	fs8,280(sp)
    5854:	7720                	flw	fs0,104(a4)
    5856:	6e61                	lui	t3,0x18
    5858:	2074                	fld	fa3,192(s0)
    585a:	6f74                	flw	fa3,92(a4)
    585c:	6420                	flw	fs0,72(s0)
    585e:	7369                	lui	t1,0xffffa
    5860:	65766f63          	bltu	a2,s7,5ebe <__global_pointer+0x93e>
    5864:	2072                	fld	ft0,280(sp)
    5866:	656d6f73          	csrrsi	t5,hviprio1h,26
    586a:	6d20                	flw	fs0,88(a0)
    586c:	3f65726f          	jal	tp,5cc62 <__global_pointer+0x576e2>
    5870:	000a                	c.slli	zero,0x2
    5872:	0000                	unimp
    5874:	6f59                	lui	t5,0x16
    5876:	2075                	jal	5922 <__global_pointer+0x3a2>
    5878:	7261                	lui	tp,0xffff8
    587a:	2065                	jal	5922 <__global_pointer+0x3a2>
    587c:	6e69                	lui	t3,0x1a
    587e:	6120                	flw	fs0,64(a0)
    5880:	6c20                	flw	fs0,88(s0)
    5882:	7261                	lui	tp,0xffff8
    5884:	63206567          	.insn	4, 0x63206567
    5888:	6e61                	lui	t3,0x18
    588a:	6f79                	lui	t5,0x1e
    588c:	2c6e                	fld	fs8,216(sp)
    588e:	7720                	flw	fs0,104(a4)
    5890:	6e61                	lui	t3,0x18
    5892:	2074                	fld	fa3,192(s0)
    5894:	6f74                	flw	fa3,92(a4)
    5896:	7320                	flw	fs0,96(a4)
    5898:	6565                	lui	a0,0x19
    589a:	7720                	flw	fs0,104(a4)
    589c:	6168                	flw	fa0,68(a0)
    589e:	2074                	fld	fa3,192(s0)
    58a0:	696c                	flw	fa1,84(a0)
    58a2:	7365                	lui	t1,0xffff9
    58a4:	6820                	flw	fs0,80(s0)
    58a6:	7265                	lui	tp,0xffff9
    58a8:	3f65                	jal	5860 <__global_pointer+0x2e0>
    58aa:	000a                	c.slli	zero,0x2
    58ac:	6f59                	lui	t5,0x16
    58ae:	2075                	jal	595a <__global_pointer+0x3da>
    58b0:	7261                	lui	tp,0xffff8
    58b2:	2065                	jal	595a <__global_pointer+0x3da>
    58b4:	74206e6f          	jal	t3,bff6 <__global_pointer+0x6a76>
    58b8:	6f20706f          	j	cfaa <__global_pointer+0x7a2a>
    58bc:	2066                	fld	ft0,88(sp)
    58be:	2061                	jal	5946 <__global_pointer+0x3c6>
    58c0:	6962                	flw	fs2,24(sp)
    58c2:	6f6d2067          	.insn	4, 0x6f6d2067
    58c6:	6e75                	lui	t3,0x1d
    58c8:	6174                	flw	fa3,68(a0)
    58ca:	6e69                	lui	t3,0x1a
    58cc:	202c                	fld	fa1,64(s0)
    58ce:	746e6177          	.insn	4, 0x746e6177
    58d2:	7420                	flw	fs0,104(s0)
    58d4:	6964206f          	j	47f6a <__global_pointer+0x429ea>
    58d8:	766f6373          	csrrsi	t1,0x766,30
    58dc:	7265                	lui	tp,0xffff9
    58de:	00000a3f 68540000 	.insn	8, 0x6854000000000a3f
    58e6:	7265                	lui	tp,0xffff9
    58e8:	2065                	jal	5990 <__global_pointer+0x410>
    58ea:	7369                	lui	t1,0xffffa
    58ec:	6e20                	flw	fs0,88(a2)
    58ee:	6968746f          	jal	s0,8cf84 <__global_pointer+0x87a04>
    58f2:	676e                	flw	fa4,216(sp)
    58f4:	7420                	flw	fs0,104(s0)
    58f6:	6e69206f          	j	97fdc <__global_pointer+0x92a5c>
    58fa:	6574                	flw	fa3,76(a0)
    58fc:	6172                	flw	ft2,28(sp)
    58fe:	77207463          	bgeu	zero,s2,6066 <__global_pointer+0xae6>
    5902:	7469                	lui	s0,0xffffa
    5904:	2068                	fld	fa0,192(s0)
    5906:	6568                	flw	fa0,76(a0)
    5908:	6572                	flw	fa0,28(sp)
    590a:	0a2e                	slli	s4,s4,0xb
    590c:	0000                	unimp
    590e:	0000                	unimp
    5910:	6f59                	lui	t5,0x16
    5912:	2075                	jal	59be <__global_pointer+0x43e>
    5914:	6168                	flw	fa0,68(a0)
    5916:	6576                	flw	fa0,92(sp)
    5918:	6320                	flw	fs0,64(a4)
    591a:	6f68                	flw	fa0,92(a4)
    591c:	206e6573          	csrrsi	a0,0x206,28
    5920:	6f74                	flw	fa3,92(a4)
    5922:	6520                	flw	fs0,72(a0)
    5924:	646e                	flw	fs0,216(sp)
    5926:	7420                	flw	fs0,104(s0)
    5928:	6568                	flw	fa0,76(a0)
    592a:	6720                	flw	fs0,72(a4)
    592c:	6d61                	lui	s10,0x18
    592e:	2e65                	jal	5ce6 <__global_pointer+0x766>
    5930:	0a21                	addi	s4,s4,8
    5932:	0000                	unimp
    5934:	746e6f43          	.insn	4, 0x746e6f43
    5938:	6e69                	lui	t3,0x1a
    593a:	6975                	lui	s2,0x1d
    593c:	676e                	flw	fa4,216(sp)
    593e:	7420                	flw	fs0,104(s0)
    5940:	6568                	flw	fa0,76(a0)
    5942:	6720                	flw	fs0,72(a4)
    5944:	6d61                	lui	s10,0x18
    5946:	2e65                	jal	5cfe <__global_pointer+0x77e>
    5948:	2e2e                	fld	ft8,200(sp)
    594a:	000a                	c.slli	zero,0x2
    594c:	6f59                	lui	t5,0x16
    594e:	2075                	jal	59fa <__global_pointer+0x47a>
    5950:	6964                	flw	fs1,84(a0)
    5952:	2064                	fld	fs1,192(s0)
    5954:	6f6e                	flw	ft10,216(sp)
    5956:	2074                	fld	fa3,192(s0)
    5958:	62617267          	.insn	4, 0x62617267
    595c:	6120                	flw	fs0,64(a0)
    595e:	796e                	flw	fs2,248(sp)
    5960:	6620                	flw	fs0,72(a2)
    5962:	2e646f6f          	jal	t5,4bc48 <__global_pointer+0x466c8>
    5966:	000a                	c.slli	zero,0x2
    5968:	6641                	lui	a2,0x10
    596a:	6574                	flw	fa3,76(a0)
    596c:	2072                	fld	ft0,280(sp)
    596e:	7865                	lui	a6,0xffff9
    5970:	6c70                	flw	fa2,92(s0)
    5972:	6e69726f          	jal	tp,9d058 <__global_pointer+0x97ad8>
    5976:	68742067          	.insn	4, 0x68742067
    597a:	2065                	jal	5a22 <__global_pointer+0x4a2>
    597c:	616c                	flw	fa1,68(a0)
    597e:	646e                	flw	fs0,216(sp)
    5980:	6e69                	lui	t3,0x1a
    5982:	69732067          	.insn	4, 0x69732067
    5986:	6574                	flw	fa3,76(a0)
    5988:	202c                	fld	fa1,64(s0)
    598a:	6f79                	lui	t5,0x1e
    598c:	2075                	jal	5a38 <__global_pointer+0x4b8>
    598e:	6966                	flw	fs2,88(sp)
    5990:	646e                	flw	fs0,216(sp)
    5992:	6120                	flw	fs0,64(a0)
    5994:	7420                	flw	fs0,104(s0)
    5996:	626c6f6f          	jal	t5,cbfbc <__global_pointer+0xc6a3c>
    599a:	7720786f          	jal	a6,d10c <__global_pointer+0x7b8c>
    599e:	7469                	lui	s0,0xffffa
    59a0:	2068                	fld	fa0,192(s0)
    59a2:	6976                	flw	fs2,92(sp)
    59a4:	6174                	flw	fa3,68(a0)
    59a6:	206c                	fld	fa1,192(s0)
    59a8:	6f74                	flw	fa3,92(a4)
    59aa:	20736c6f          	jal	s8,3c3b0 <__global_pointer+0x36e30>
    59ae:	6f66                	flw	ft10,88(sp)
    59b0:	2072                	fld	ft0,280(sp)
    59b2:	6966                	flw	fs2,88(sp)
    59b4:	6978                	flw	fa4,84(a0)
    59b6:	676e                	flw	fa4,216(sp)
    59b8:	7420                	flw	fs0,104(s0)
    59ba:	6568                	flw	fa0,76(a0)
    59bc:	7320                	flw	fs0,96(a4)
    59be:	6968                	flw	fa0,84(a0)
    59c0:	2170                	fld	fa2,192(a0)
    59c2:	000a                	c.slli	zero,0x2
    59c4:	6641                	lui	a2,0x10
    59c6:	6574                	flw	fa3,76(a0)
    59c8:	2072                	fld	ft0,280(sp)
    59ca:	6f6c                	flw	fa1,92(a4)
    59cc:	6e696b6f          	jal	s6,9c0b2 <__global_pointer+0x96b32>
    59d0:	72612067          	.insn	4, 0x72612067
    59d4:	646e756f          	jal	a0,ed01a <__global_pointer+0xe7a9a>
    59d8:	202c                	fld	fa1,64(s0)
    59da:	6f79                	lui	t5,0x1e
    59dc:	2075                	jal	5a88 <__global_pointer+0x508>
    59de:	6f66                	flw	ft10,88(sp)
    59e0:	6e75                	lui	t3,0x1d
    59e2:	2064                	fld	fs1,192(s0)
    59e4:	2061                	jal	5a6c <__global_pointer+0x4ec>
    59e6:	414d                	li	sp,19
    59e8:	2150                	fld	fa2,128(a0)
    59ea:	000a                	c.slli	zero,0x2
    59ec:	6641                	lui	a2,0x10
    59ee:	6574                	flw	fa3,76(a0)
    59f0:	2072                	fld	ft0,280(sp)
    59f2:	6f6c                	flw	fa1,92(a4)
    59f4:	6e696b6f          	jal	s6,9c0da <__global_pointer+0x96b5a>
    59f8:	72612067          	.insn	4, 0x72612067
    59fc:	646e756f          	jal	a0,ed042 <__global_pointer+0xe7ac2>
    5a00:	202c                	fld	fa1,64(s0)
    5a02:	6f79                	lui	t5,0x1e
    5a04:	2075                	jal	5ab0 <__global_pointer+0x530>
    5a06:	6f66                	flw	ft10,88(sp)
    5a08:	6e75                	lui	t3,0x1d
    5a0a:	2064                	fld	fs1,192(s0)
    5a0c:	2061                	jal	5a94 <__global_pointer+0x514>
    5a0e:	656d                	lui	a0,0x1b
    5a10:	6964                	flw	fs1,84(a0)
    5a12:	206c6163          	bltu	s8,t1,5c14 <__global_pointer+0x694>
    5a16:	2174696b          	.insn	4, 0x2174696b
    5a1a:	000a                	c.slli	zero,0x2
    5a1c:	6f59                	lui	t5,0x16
    5a1e:	2075                	jal	5aca <__global_pointer+0x54a>
    5a20:	6f6c                	flw	fa1,92(a4)
    5a22:	61206b6f          	jal	s6,c034 <__global_pointer+0x6ab4>
    5a26:	6f72                	flw	ft10,28(sp)
    5a28:	6e75                	lui	t3,0x1d
    5a2a:	2064                	fld	fs1,192(s0)
    5a2c:	6e61                	lui	t3,0x18
    5a2e:	2064                	fld	fs1,192(s0)
    5a30:	6966                	flw	fs2,88(sp)
    5a32:	646e                	flw	fs0,216(sp)
    5a34:	7320                	flw	fs0,96(a4)
    5a36:	20656d6f          	jal	s10,5bc3c <__global_pointer+0x566bc>
    5a3a:	6174                	flw	fa3,68(a0)
    5a3c:	6472                	flw	fs0,28(sp)
    5a3e:	6769                	lui	a4,0x1a
    5a40:	6172                	flw	ft2,28(sp)
    5a42:	6564                	flw	fs1,76(a0)
    5a44:	59202173          	csrr	sp,0x592
    5a48:	6320756f          	jal	a0,d07a <__global_pointer+0x7afa>
    5a4c:	656c6c6f          	jal	s8,cc0a2 <__global_pointer+0xc6b22>
    5a50:	74207463          	bgeu	zero,sp,6198 <__global_pointer+0xc18>
    5a54:	6568                	flw	fa0,76(a0)
    5a56:	2e6d                	jal	5e10 <__global_pointer+0x890>
    5a58:	000a                	c.slli	zero,0x2
    5a5a:	0000                	unimp
    5a5c:	6f59                	lui	t5,0x16
    5a5e:	2075                	jal	5b0a <__global_pointer+0x58a>
    5a60:	6f66                	flw	ft10,88(sp)
    5a62:	6e75                	lui	t3,0x1d
    5a64:	2064                	fld	fs1,192(s0)
    5a66:	656d6f73          	csrrsi	t5,hviprio1h,26
    5a6a:	6120                	flw	fs0,64(a0)
    5a6c:	696c                	flw	fa1,84(a0)
    5a6e:	6e65                	lui	t3,0x19
    5a70:	6220                	flw	fs0,64(a2)
    5a72:	73656e6f          	jal	t3,5c1a8 <__global_pointer+0x56c28>
    5a76:	6120                	flw	fs0,64(a0)
    5a78:	646e                	flw	fs0,216(sp)
    5a7a:	6320                	flw	fs0,64(a4)
    5a7c:	656c6c6f          	jal	s8,cc0d2 <__global_pointer+0xc6b52>
    5a80:	64657463          	bgeu	a0,t1,60c8 <__global_pointer+0xb48>
    5a84:	7420                	flw	fs0,104(s0)
    5a86:	6568                	flw	fa0,76(a0)
    5a88:	2e6d                	jal	5e42 <__global_pointer+0x8c2>
    5a8a:	000a                	c.slli	zero,0x2
    5a8c:	6f59                	lui	t5,0x16
    5a8e:	2075                	jal	5b3a <__global_pointer+0x5ba>
    5a90:	6f66                	flw	ft10,88(sp)
    5a92:	6e75                	lui	t3,0x1d
    5a94:	2064                	fld	fs1,192(s0)
    5a96:	6e69                	lui	t3,0x1a
    5a98:	6574                	flw	fa3,76(a0)
    5a9a:	6572                	flw	fa0,28(sp)
    5a9c:	6e697473          	csrrci	s0,0x6e6,18
    5aa0:	65732067          	.insn	4, 0x65732067
    5aa4:	6964                	flw	fs1,84(a0)
    5aa6:	656d                	lui	a0,0x1b
    5aa8:	746e                	flw	fs0,248(sp)
    5aaa:	6e612073          	csrs	0x6e6,sp
    5aae:	2064                	fld	fs1,192(s0)
    5ab0:	6c6c6f63          	bltu	s8,t1,618e <__global_pointer+0xc0e>
    5ab4:	6365                	lui	t1,0x19
    5ab6:	6574                	flw	fa3,76(a0)
    5ab8:	2064                	fld	fs1,192(s0)
    5aba:	656d6f73          	csrrsi	t5,hviprio1h,26
    5abe:	7320                	flw	fs0,96(a4)
    5ac0:	6d61                	lui	s10,0x18
    5ac2:	6c70                	flw	fa2,92(s0)
    5ac4:	7365                	lui	t1,0xffff9
    5ac6:	0a2e                	slli	s4,s4,0xb
    5ac8:	0000                	unimp
    5aca:	0000                	unimp
    5acc:	6f59                	lui	t5,0x16
    5ace:	2075                	jal	5b7a <__global_pointer+0x5fa>
    5ad0:	6966                	flw	fs2,88(sp)
    5ad2:	646e                	flw	fs0,216(sp)
    5ad4:	6920                	flw	fs0,80(a0)
    5ad6:	746e                	flw	fs0,248(sp)
    5ad8:	7265                	lui	tp,0xffff9
    5ada:	7365                	lui	t1,0xffff9
    5adc:	6974                	flw	fa3,84(a0)
    5ade:	676e                	flw	fa4,216(sp)
    5ae0:	5220                	lw	s0,96(a2)
    5ae2:	74204c53          	.insn	4, 0x74204c53
    5ae6:	6172                	flw	ft2,28(sp)
    5ae8:	6c69                	lui	s8,0x1a
    5aea:	79202c73          	csrr	s8,0x792
    5aee:	6320756f          	jal	a0,d120 <__global_pointer+0x7ba0>
    5af2:	656c6c6f          	jal	s8,cc148 <__global_pointer+0xc6bc8>
    5af6:	73207463          	bgeu	zero,s2,621e <__global_pointer+0xc9e>
    5afa:	20656d6f          	jal	s10,5bd00 <__global_pointer+0x56780>
    5afe:	6d69                	lui	s10,0x1a
    5b00:	6761                	lui	a4,0x18
    5b02:	7365                	lui	t1,0xffff9
    5b04:	0a2e                	slli	s4,s4,0xb
    5b06:	0000                	unimp
    5b08:	6f59                	lui	t5,0x16
    5b0a:	2075                	jal	5bb6 <__global_pointer+0x636>
    5b0c:	6966                	flw	fs2,88(sp)
    5b0e:	646e                	flw	fs0,216(sp)
    5b10:	7320                	flw	fs0,96(a4)
    5b12:	20656d6f          	jal	s10,5bd18 <__global_pointer+0x56798>
    5b16:	6369                	lui	t1,0x1a
    5b18:	2065                	jal	5bc0 <__global_pointer+0x640>
    5b1a:	706d6173          	csrrsi	sp,0x706,26
    5b1e:	656c                	flw	fa1,76(a0)
    5b20:	6e612073          	csrs	0x6e6,sp
    5b24:	2064                	fld	fs1,192(s0)
    5b26:	6c6c6f63          	bltu	s8,t1,6204 <__global_pointer+0xc84>
    5b2a:	6365                	lui	t1,0x19
    5b2c:	2074                	fld	fa3,192(s0)
    5b2e:	6874                	flw	fa3,84(s0)
    5b30:	6d65                	lui	s10,0x19
    5b32:	0a2e                	slli	s4,s4,0xb
    5b34:	0000                	unimp
    5b36:	0000                	unimp
    5b38:	6f59                	lui	t5,0x16
    5b3a:	2075                	jal	5be6 <__global_pointer+0x666>
    5b3c:	6e6e6163          	bltu	t3,t1,621e <__global_pointer+0xc9e>
    5b40:	6d20746f          	jal	s0,d212 <__global_pointer+0x7c92>
    5b44:	2065766f          	jal	a2,5cd4a <__global_pointer+0x577ca>
    5b48:	6e69                	lui	t3,0x1a
    5b4a:	7420                	flw	fs0,104(s0)
    5b4c:	6168                	flw	fa0,68(a0)
    5b4e:	2074                	fld	fa3,192(s0)
    5b50:	6964                	flw	fs1,84(a0)
    5b52:	6572                	flw	fa0,28(sp)
    5b54:	6f697463          	bgeu	s2,s6,623c <__global_pointer+0xcbc>
    5b58:	2e6e                	fld	ft8,216(sp)
    5b5a:	000a                	c.slli	zero,0x2
    5b5c:	6f59                	lui	t5,0x16
    5b5e:	2075                	jal	5c0a <__global_pointer+0x68a>
    5b60:	7264                	flw	fs1,100(a2)
    5b62:	6e61                	lui	t3,0x18
    5b64:	6177206b          	.insn	4, 0x6177206b
    5b68:	6574                	flw	fa3,76(a0)
    5b6a:	2072                	fld	ft0,280(sp)
    5b6c:	6e61                	lui	t3,0x18
    5b6e:	2064                	fld	fs1,192(s0)
    5b70:	7571                	lui	a0,0xffffc
    5b72:	6e65                	lui	t3,0x19
    5b74:	64656863          	bltu	a0,t1,61c4 <__global_pointer+0xc44>
    5b78:	7920                	flw	fs0,112(a0)
    5b7a:	2072756f          	jal	a0,2d580 <__global_pointer+0x28000>
    5b7e:	6874                	flw	fa3,84(s0)
    5b80:	7269                	lui	tp,0xffffa
    5b82:	0a217473          	csrrci	s0,0xa2,2
    5b86:	0000                	unimp
    5b88:	6f59                	lui	t5,0x16
    5b8a:	2075                	jal	5c36 <__global_pointer+0x6b6>
    5b8c:	6168                	flw	fa0,68(a0)
    5b8e:	6576                	flw	fa0,92(sp)
    5b90:	6e20                	flw	fs0,88(a2)
    5b92:	6177206f          	j	789a8 <__global_pointer+0x73428>
    5b96:	6574                	flw	fa3,76(a0)
    5b98:	2072                	fld	ft0,280(sp)
    5b9a:	6f74                	flw	fa3,92(a4)
    5b9c:	6420                	flw	fs0,72(s0)
    5b9e:	6972                	flw	fs2,28(sp)
    5ba0:	6b6e                	flw	fs6,216(sp)
    5ba2:	0a2e                	slli	s4,s4,0xb
    5ba4:	0000                	unimp
    5ba6:	0000                	unimp
    5ba8:	6f59                	lui	t5,0x16
    5baa:	2075                	jal	5c56 <__global_pointer+0x6d6>
    5bac:	6168                	flw	fa0,68(a0)
    5bae:	6576                	flw	fa0,92(sp)
    5bb0:	6e20                	flw	fs0,88(a2)
    5bb2:	6f66206f          	j	682a8 <__global_pointer+0x62d28>
    5bb6:	7420646f          	jal	s0,c2f8 <__global_pointer+0x6d78>
    5bba:	6165206f          	j	581d0 <__global_pointer+0x52c50>
    5bbe:	2e74                	fld	fa3,216(a2)
    5bc0:	000a                	c.slli	zero,0x2
    5bc2:	0000                	unimp
    5bc4:	6f59                	lui	t5,0x16
    5bc6:	2075                	jal	5c72 <__global_pointer+0x6f2>
    5bc8:	7461                	lui	s0,0xffff8
    5bca:	2065                	jal	5c72 <__global_pointer+0x6f2>
    5bcc:	656d6f73          	csrrsi	t5,hviprio1h,26
    5bd0:	6620                	flw	fs0,72(a2)
    5bd2:	20646f6f          	jal	t5,4bdd8 <__global_pointer+0x46858>
    5bd6:	6e61                	lui	t3,0x18
    5bd8:	2064                	fld	fs1,192(s0)
    5bda:	6566                	flw	fa0,88(sp)
    5bdc:	6c65                	lui	s8,0x19
    5bde:	6d20                	flw	fs0,88(a0)
    5be0:	2065726f          	jal	tp,5cde6 <__global_pointer+0x57866>
    5be4:	6e65                	lui	t3,0x19
    5be6:	7265                	lui	tp,0xffff9
    5be8:	69746567          	.insn	4, 0x69746567
    5bec:	000a2163          	.insn	4, 0x000a2163
    5bf0:	6e49                	lui	t3,0x12
    5bf2:	6176                	flw	ft2,92(sp)
    5bf4:	696c                	flw	fa1,84(a0)
    5bf6:	2064                	fld	fs1,192(s0)
    5bf8:	6964                	flw	fs1,84(a0)
    5bfa:	616c7073          	csrci	0x616,24
    5bfe:	2079                	jal	5c8c <__global_pointer+0x70c>
    5c00:	756e                	flw	fa0,248(sp)
    5c02:	626d                	lui	tp,0x1b
    5c04:	7265                	lui	tp,0xffff9
    5c06:	000a                	c.slli	zero,0x2
    5c08:	6f59                	lui	t5,0x16
    5c0a:	2075                	jal	5cb6 <__global_pointer+0x736>
    5c0c:	6168                	flw	fa0,68(a0)
    5c0e:	6576                	flw	fa0,92(sp)
    5c10:	6120                	flw	fs0,64(a0)
    5c12:	6464                	flw	fs1,76(s0)
    5c14:	6465                	lui	s0,0x19
    5c16:	203a                	fld	ft0,392(sp)
    5c18:	0000                	unimp
    5c1a:	0000                	unimp
    5c1c:	7420                	flw	fs0,104(s0)
    5c1e:	6f79206f          	j	98b14 <__global_pointer+0x93594>
    5c22:	7275                	lui	tp,0xffffd
    5c24:	6920                	flw	fs0,80(a0)
    5c26:	766e                	flw	fa2,248(sp)
    5c28:	6e65                	lui	t3,0x19
    5c2a:	6f74                	flw	fa3,92(a4)
    5c2c:	7972                	flw	fs2,60(sp)
    5c2e:	0a2e                	slli	s4,s4,0xb
    5c30:	0000                	unimp
    5c32:	0000                	unimp
    5c34:	6f59                	lui	t5,0x16
    5c36:	7275                	lui	tp,0xffffd
    5c38:	6920                	flw	fs0,80(a0)
    5c3a:	766e                	flw	fa2,248(sp)
    5c3c:	6e65                	lui	t3,0x19
    5c3e:	6f74                	flw	fa3,92(a4)
    5c40:	7972                	flw	fs2,60(sp)
    5c42:	6920                	flw	fs0,80(a0)
    5c44:	75662073          	csrs	0x756,a2
    5c48:	6c6c                	flw	fa1,92(s0)
    5c4a:	2021                	jal	5c52 <__global_pointer+0x6d2>
    5c4c:	6e6e6143          	.insn	4, 0x6e6e6143
    5c50:	6120746f          	jal	s0,d262 <__global_pointer+0x7ce2>
    5c54:	6464                	flw	fs1,76(s0)
    5c56:	6d20                	flw	fs0,88(a0)
    5c58:	2065726f          	jal	tp,5ce5e <__global_pointer+0x578de>
    5c5c:	7469                	lui	s0,0xffffa
    5c5e:	6d65                	lui	s10,0x19
    5c60:	000a2e73          	csrrs	t3,ustatus,s4
    5c64:	6552                	flw	fa0,20(sp)
    5c66:	6f6d                	lui	t5,0x1b
    5c68:	6576                	flw	fa0,92(sp)
    5c6a:	2064                	fld	fs1,192(s0)
    5c6c:	0000                	unimp
    5c6e:	0000                	unimp
    5c70:	6620                	flw	fs0,72(a2)
    5c72:	6f72                	flw	ft10,28(sp)
    5c74:	206d                	jal	5d1e <__global_pointer+0x79e>
    5c76:	6e69                	lui	t3,0x1a
    5c78:	6576                	flw	fa0,92(sp)
    5c7a:	746e                	flw	fs0,248(sp)
    5c7c:	2079726f          	jal	tp,9d682 <__global_pointer+0x98102>
    5c80:	746f6c73          	csrrsi	s8,0x746,30
    5c84:	0020                	addi	s0,sp,8
    5c86:	0000                	unimp
    5c88:	6e49                	lui	t3,0x12
    5c8a:	6576                	flw	fa0,92(sp)
    5c8c:	746e                	flw	fs0,248(sp)
    5c8e:	2079726f          	jal	tp,9d694 <__global_pointer+0x98114>
    5c92:	746f6c73          	csrrsi	s8,0x746,30
    5c96:	0020                	addi	s0,sp,8
    5c98:	6920                	flw	fs0,80(a0)
    5c9a:	6c612073          	csrs	0x6c6,sp
    5c9e:	6572                	flw	fa0,28(sp)
    5ca0:	6461                	lui	s0,0x18
    5ca2:	2079                	jal	5d30 <__global_pointer+0x7b0>
    5ca4:	6d65                	lui	s10,0x19
    5ca6:	7470                	flw	fa2,108(s0)
    5ca8:	2e79                	jal	6046 <__global_pointer+0xac6>
    5caa:	000a                	c.slli	zero,0x2
    5cac:	6e49                	lui	t3,0x12
    5cae:	6176                	flw	ft2,92(sp)
    5cb0:	696c                	flw	fa1,84(a0)
    5cb2:	2064                	fld	fs1,192(s0)
    5cb4:	6e69                	lui	t3,0x1a
    5cb6:	6576                	flw	fa0,92(sp)
    5cb8:	746e                	flw	fs0,248(sp)
    5cba:	2079726f          	jal	tp,9d6c0 <__global_pointer+0x98140>
    5cbe:	746f6c73          	csrrsi	s8,0x746,30
    5cc2:	0a2e                	slli	s4,s4,0xb
    5cc4:	0000                	unimp
    5cc6:	0000                	unimp
    5cc8:	6441                	lui	s0,0x10
    5cca:	6564                	flw	fs1,76(a0)
    5ccc:	2064                	fld	fs1,192(s0)
    5cce:	0000                	unimp
    5cd0:	7420                	flw	fs0,104(s0)
    5cd2:	7473206f          	j	38c18 <__global_pointer+0x33698>
    5cd6:	6761726f          	jal	tp,1d34c <__global_pointer+0x17dcc>
    5cda:	2e65                	jal	6092 <__global_pointer+0xb12>
    5cdc:	000a                	c.slli	zero,0x2
    5cde:	0000                	unimp
    5ce0:	726f7453          	.insn	4, 0x726f7453
    5ce4:	6761                	lui	a4,0x18
    5ce6:	2065                	jal	5d8e <__global_pointer+0x80e>
    5ce8:	7369                	lui	t1,0xffffa
    5cea:	6620                	flw	fs0,72(a2)
    5cec:	6c75                	lui	s8,0x1d
    5cee:	216c                	fld	fa1,192(a0)
    5cf0:	4320                	lw	s0,64(a4)
    5cf2:	6e61                	lui	t3,0x18
    5cf4:	6f6e                	flw	ft10,216(sp)
    5cf6:	2074                	fld	fa3,192(s0)
    5cf8:	6461                	lui	s0,0x18
    5cfa:	2064                	fld	fs1,192(s0)
    5cfc:	6f6d                	lui	t5,0x1b
    5cfe:	6572                	flw	fa0,28(sp)
    5d00:	6920                	flw	fs0,80(a0)
    5d02:	6574                	flw	fa3,76(a0)
    5d04:	736d                	lui	t1,0xffffb
    5d06:	0a2e                	slli	s4,s4,0xb
    5d08:	0000                	unimp
    5d0a:	0000                	unimp
    5d0c:	7420                	flw	fs0,104(s0)
    5d0e:	6e65206f          	j	583f4 <__global_pointer+0x52e74>
    5d12:	656e6967          	.insn	4, 0x656e6967
    5d16:	6220                	flw	fs0,64(a2)
    5d18:	7961                	lui	s2,0xffff8
    5d1a:	0a2e                	slli	s4,s4,0xb
    5d1c:	0000                	unimp
    5d1e:	0000                	unimp
    5d20:	6e45                	lui	t3,0x11
    5d22:	656e6967          	.insn	4, 0x656e6967
    5d26:	6120                	flw	fs0,64(a0)
    5d28:	726c                	flw	fa1,100(a2)
    5d2a:	6165                	addi	sp,sp,112
    5d2c:	7964                	flw	fs1,116(a0)
    5d2e:	6820                	flw	fs0,80(s0)
    5d30:	7361                	lui	t1,0xffff8
    5d32:	6620                	flw	fs0,72(a2)
    5d34:	6575                	lui	a0,0x1d
    5d36:	2c6c                	fld	fa1,216(s0)
    5d38:	6e20                	flw	fs0,88(a2)
    5d3a:	656e206f          	j	e8390 <__global_pointer+0xe2e10>
    5d3e:	6465                	lui	s0,0x19
    5d40:	7420                	flw	fs0,104(s0)
    5d42:	6461206f          	j	18388 <__global_pointer+0x12e08>
    5d46:	2064                	fld	fs1,192(s0)
    5d48:	6f6d                	lui	t5,0x1b
    5d4a:	6572                	flw	fa0,28(sp)
    5d4c:	002e                	c.slli	zero,0xb
    5d4e:	0000                	unimp
    5d50:	6620                	flw	fs0,72(a2)
    5d52:	6f72                	flw	ft10,28(sp)
    5d54:	206d                	jal	5dfe <__global_pointer+0x87e>
    5d56:	726f7473          	csrrci	s0,mhpmevent6h,30
    5d5a:	6761                	lui	a4,0x18
    5d5c:	2065                	jal	5e04 <__global_pointer+0x884>
    5d5e:	746f6c73          	csrrsi	s8,0x746,30
    5d62:	0020                	addi	s0,sp,8
    5d64:	726f7453          	.insn	4, 0x726f7453
    5d68:	6761                	lui	a4,0x18
    5d6a:	2065                	jal	5e12 <__global_pointer+0x892>
    5d6c:	746f6c73          	csrrsi	s8,0x746,30
    5d70:	0020                	addi	s0,sp,8
    5d72:	0000                	unimp
    5d74:	6e49                	lui	t3,0x12
    5d76:	6176                	flw	ft2,92(sp)
    5d78:	696c                	flw	fa1,84(a0)
    5d7a:	2064                	fld	fs1,192(s0)
    5d7c:	726f7473          	csrrci	s0,mhpmevent6h,30
    5d80:	6761                	lui	a4,0x18
    5d82:	2065                	jal	5e2a <__global_pointer+0x8aa>
    5d84:	746f6c73          	csrrsi	s8,0x746,30
    5d88:	0a2e                	slli	s4,s4,0xb
    5d8a:	0000                	unimp
    5d8c:	6f59                	lui	t5,0x16
    5d8e:	2075                	jal	5e3a <__global_pointer+0x8ba>
    5d90:	6168                	flw	fa0,68(a0)
    5d92:	6576                	flw	fa0,92(sp)
    5d94:	7320                	flw	fs0,96(a4)
    5d96:	6f74                	flw	fa3,92(a4)
    5d98:	6572                	flw	fa0,28(sp)
    5d9a:	2064                	fld	fs1,192(s0)
    5d9c:	6874                	flw	fa3,84(s0)
    5d9e:	2065                	jal	5e46 <__global_pointer+0x8c6>
    5da0:	6f66                	flw	ft10,88(sp)
    5da2:	6c6c                	flw	fa1,92(s0)
    5da4:	6e69776f          	jal	a4,9d48a <__global_pointer+0x97f0a>
    5da8:	74692067          	.insn	4, 0x74692067
    5dac:	6d65                	lui	s10,0x19
    5dae:	0a203a73          	csrrc	s4,0xa2,zero
    5db2:	0000                	unimp
    5db4:	6d45                	lui	s10,0x11
    5db6:	7470                	flw	fa2,108(s0)
    5db8:	2079                	jal	5e46 <__global_pointer+0x8c6>
    5dba:	746f6c53          	.insn	4, 0x746f6c53
    5dbe:	0000                	unimp
    5dc0:	6154                	flw	fa3,4(a0)
    5dc2:	6472                	flw	fs0,28(sp)
    5dc4:	6769                	lui	a4,0x1a
    5dc6:	6172                	flw	ft2,28(sp)
    5dc8:	6564                	flw	fs1,76(a0)
    5dca:	65530073          	.insn	4, 0x65530073
    5dce:	6964                	flw	fs1,84(a0)
    5dd0:	656d                	lui	a0,0x1b
    5dd2:	746e                	flw	fs0,248(sp)
    5dd4:	7261                	lui	tp,0xffff8
    5dd6:	2079                	jal	5e64 <__global_pointer+0x8e4>
    5dd8:	614c                	flw	fa1,4(a0)
    5dda:	6579                	lui	a0,0x1e
    5ddc:	7372                	flw	ft6,60(sp)
    5dde:	0000                	unimp
    5de0:	5352                	lw	t1,52(sp)
    5de2:	204c                	fld	fa1,128(s0)
    5de4:	6d49                	lui	s10,0x12
    5de6:	6761                	lui	a4,0x18
    5de8:	7365                	lui	t1,0xffff9
    5dea:	0000                	unimp
    5dec:	6c41                	lui	s8,0x10
    5dee:	6569                	lui	a0,0x1a
    5df0:	206e                	fld	ft0,216(sp)
    5df2:	6f42                	flw	ft10,16(sp)
    5df4:	656e                	flw	fa0,216(sp)
    5df6:	6c4f0073          	.insn	4, 0x6c4f0073
    5dfa:	2064                	fld	fs1,192(s0)
    5dfc:	6f52                	flw	ft10,20(sp)
    5dfe:	6576                	flw	fa0,92(sp)
    5e00:	2072                	fld	ft0,280(sp)
    5e02:	6150                	flw	fa2,4(a0)
    5e04:	7472                	flw	fs0,60(sp)
    5e06:	63490073          	.insn	4, 0x63490073
    5e0a:	0065                	c.nop	25
    5e0c:	6f46                	flw	ft10,80(sp)
    5e0e:	0000646f          	jal	s0,be0e <__global_pointer+0x688e>
    5e12:	0000                	unimp
    5e14:	6f42                	flw	ft10,16(sp)
    5e16:	7474                	flw	fa3,108(s0)
    5e18:	656c                	flw	fa1,76(a0)
    5e1a:	6f20                	flw	fs0,88(a4)
    5e1c:	2066                	fld	ft0,88(sp)
    5e1e:	65746157          	.insn	4, 0x65746157
    5e22:	0072                	c.slli	zero,0x1c
    5e24:	7546                	flw	fa0,112(sp)
    5e26:	6c65                	lui	s8,0x19
    5e28:	0000                	unimp
    5e2a:	0000                	unimp
    5e2c:	654d                	lui	a0,0x13
    5e2e:	6964                	flw	fs1,84(a0)
    5e30:	206c6163          	bltu	s8,t1,6032 <__global_pointer+0xab2>
    5e34:	0074696b          	.insn	4, 0x0074696b
    5e38:	6f54                	flw	fa3,28(a4)
    5e3a:	6f626c6f          	jal	s8,2c530 <__global_pointer+0x26fb0>
    5e3e:	0078                	addi	a4,sp,12
    5e40:	614d                	addi	sp,sp,176
    5e42:	0070                	addi	a2,sp,12
    5e44:	72617053          	.insn	4, 0x72617053
    5e48:	2065                	jal	5ef0 <__global_pointer+0x970>
    5e4a:	6170                	flw	fa2,68(a0)
    5e4c:	7472                	flw	fs0,60(sp)
    5e4e:	65540073          	.insn	4, 0x65540073
    5e52:	6464                	flw	fs1,76(s0)
    5e54:	2079                	jal	5ee2 <__global_pointer+0x962>
    5e56:	6562                	flw	fa0,24(sp)
    5e58:	7261                	lui	tp,0xffff8
    5e5a:	0000                	unimp
    5e5c:	6c42                	flw	fs8,16(sp)
    5e5e:	6e61                	lui	t3,0x18
    5e60:	0074656b          	.insn	4, 0x0074656b
    5e64:	746f6c43          	.insn	4, 0x746f6c43
    5e68:	6968                	flw	fa0,84(a0)
    5e6a:	676e                	flw	fa4,216(sp)
    5e6c:	0000                	unimp
    5e6e:	0000                	unimp
    5e70:	9ff0                	.insn	2, 0x9ff0
    5e72:	0000a693          	slti	a3,ra,0
    5e76:	0000                	unimp
    5e78:	9ff0                	.insn	2, 0x9ff0
    5e7a:	b8ef8f9b          	.insn	4, 0xb8ef8f9b
    5e7e:	0000208f          	.insn	4, 0x208f
    5e82:	0000                	unimp
    5e84:	9ff0                	.insn	2, 0x9ff0
    5e86:	809a                	mv	ra,t1
    5e88:	0000                	unimp
    5e8a:	0000                	unimp
    5e8c:	9ff0                	.insn	2, 0x9ff0
    5e8e:	a1a5                	j	62f6 <__global_pointer+0xd76>
    5e90:	0000                	unimp
    5e92:	0000                	unimp
    5e94:	9ff0                	.insn	2, 0x9ff0
    5e96:	a892                	fsd	ft4,80(sp)
    5e98:	0000                	unimp
    5e9a:	0000                	unimp
    5e9c:	9ff0                	.insn	2, 0x9ff0
    5e9e:	0000aaa7          	fsw	ft0,21(ra)
    5ea2:	0000                	unimp
    5ea4:	9ff0                	.insn	2, 0x9ff0
    5ea6:	aa9a                	fsd	ft6,336(sp)
    5ea8:	0000                	unimp
    5eaa:	0000                	unimp
    5eac:	9ff0                	.insn	2, 0x9ff0
    5eae:	00008d93          	mv	s11,ra
    5eb2:	0000                	unimp
    5eb4:	9ff0                	.insn	2, 0x9ff0
    5eb6:	b8ef9c8f          	.insn	4, 0xb8ef9c8f
    5eba:	0000208f          	.insn	4, 0x208f
    5ebe:	0000                	unimp
    5ec0:	8fe2                	mv	t6,s8
    5ec2:	9ff000b3          	.insn	4, 0x9ff000b3
    5ec6:	00008aa7          	.insn	4, 0x8aa7
    5eca:	0000                	unimp
    5ecc:	9ff0                	.insn	2, 0x9ff0
    5ece:	a8aa                	fsd	fa0,80(sp)
    5ed0:	0020                	addi	s0,sp,8
    5ed2:	0000                	unimp
    5ed4:	9ff0                	.insn	2, 0x9ff0
    5ed6:	87a6                	mv	a5,s1
    5ed8:	0000                	unimp
    5eda:	0000                	unimp
    5edc:	9ff0                	.insn	2, 0x9ff0
    5ede:	b395                	j	5c42 <__global_pointer+0x6c2>
    5ee0:	208fb8ef          	jal	a7,1010e8 <__stack_size+0x10e8>
    5ee4:	0000                	unimp
    5ee6:	0000                	unimp
    5ee8:	9ff0                	.insn	2, 0x9ff0
    5eea:	000097a7          	.insn	4, 0x97a7
    5eee:	0000                	unimp
    5ef0:	9be2                	add	s7,s7,s8
    5ef2:	efb0                	fsw	fa2,88(a5)
    5ef4:	8fb8                	.insn	2, 0x8fb8
    5ef6:	0020                	addi	s0,sp,8
    5ef8:	2020                	fld	fs0,64(s0)
    5efa:	0000                	unimp
    5efc:	524f5453          	.insn	4, 0x524f5453
    5f00:	4741                	li	a4,16
    5f02:	0045                	c.nop	17
    5f04:	4d414843          	.insn	4, 0x4d414843
    5f08:	4542                	lw	a0,16(sp)
    5f0a:	5352                	lw	t1,52(sp)
    5f0c:	0000                	unimp
    5f0e:	0000                	unimp
    5f10:	4b434f43          	fmadd.d	ft10,ft6,fs4,fs1,rmm
    5f14:	4950                	lw	a2,20(a0)
    5f16:	0054                	addi	a3,sp,4
    5f18:	45464143          	.insn	4, 0x45464143
    5f1c:	4554                	lw	a3,12(a0)
    5f1e:	4952                	lw	s2,20(sp)
    5f20:	0041                	c.nop	16
    5f22:	0000                	unimp
    5f24:	4e45                	li	t3,17
    5f26:	454e4947          	.insn	4, 0x454e4947
    5f2a:	425f 5941 0000      	.insn	6, 0x5941425f
    5f30:	414c                	lw	a1,4(a0)
    5f32:	4f42                	lw	t5,16(sp)
    5f34:	4152                	lw	sp,20(sp)
    5f36:	4f54                	lw	a3,28(a4)
    5f38:	5952                	lw	s2,52(sp)
    5f3a:	0000                	unimp
    5f3c:	4941                	li	s2,16
    5f3e:	4c52                	lw	s8,20(sp)
    5f40:	004b434f          	fnmadd.s	ft6,fs6,ft4,ft0,rmm
    5f44:	414c                	lw	a1,4(a0)
    5f46:	444e                	lw	s0,208(sp)
    5f48:	4e49                	li	t3,18
    5f4a:	49532047          	fmsub.s	ft0,ft6,fs5,fs1,rdn
    5f4e:	4554                	lw	a3,12(a0)
    5f50:	0000                	unimp
    5f52:	0000                	unimp
    5f54:	54534157          	.insn	4, 0x54534157
    5f58:	4c45                	li	s8,17
    5f5a:	4e41                	li	t3,16
    5f5c:	0044                	addi	s1,sp,4
    5f5e:	0000                	unimp
    5f60:	4f4c                	lw	a1,28(a4)
    5f62:	2045534f          	fnmadd.s	ft6,fa0,ft4,ft4,unknown
    5f66:	4c494f53          	.insn	4, 0x4c494f53
    5f6a:	0000                	unimp
    5f6c:	4f50                	lw	a2,28(a4)
    5f6e:	444e                	lw	s0,208(sp)
    5f70:	0000                	unimp
    5f72:	0000                	unimp
    5f74:	52414853          	.insn	4, 0x52414853
    5f78:	2050                	fld	fa2,128(s0)
    5f7a:	4f52                	lw	t5,20(sp)
    5f7c:	00534b43          	fmadd.s	fs6,ft6,ft5,ft0,rmm
    5f80:	45564143          	.insn	4, 0x45564143
    5f84:	0000                	unimp
    5f86:	0000                	unimp
    5f88:	54415243          	.insn	4, 0x54415243
    5f8c:	5245                	li	tp,-15
    5f8e:	0000                	unimp
    5f90:	594e4143          	fmadd.s	ft2,ft8,fs4,fa1,rmm
    5f94:	00004e4f          	fnmadd.s	ft8,ft0,ft0,ft0,rmm
    5f98:	4f4d                	li	t5,19
    5f9a:	4e55                	li	t3,21
    5f9c:	4154                	lw	a3,4(a0)
    5f9e:	4e49                	li	t3,18
    5fa0:	0000                	unimp
    5fa2:	0000                	unimp
    5fa4:	4548                	lw	a0,12(a0)
    5fa6:	4c4c                	lw	a1,28(s0)
    5fa8:	2121214f          	fnmadd.s	ft2,ft2,fs2,ft4,rdn
    5fac:	0000                	unimp
    5fae:	0000                	unimp
    5fb0:	540a                	lw	s0,160(sp)
    5fb2:	6d69                	lui	s10,0x1a
    5fb4:	2065                	jal	605c <__global_pointer+0xadc>
    5fb6:	6f66                	flw	ft10,88(sp)
    5fb8:	2072                	fld	ft0,280(sp)
    5fba:	72617473          	csrrci	s0,mhpmevent6h,2
    5fbe:	5f74                	lw	a3,124(a4)
    5fc0:	656d6167          	.insn	4, 0x656d6167
    5fc4:	2928                	fld	fa0,80(a0)
    5fc6:	7720                	flw	fs0,104(a4)
    5fc8:	7361                	lui	t1,0xffff8
    5fca:	203a                	fld	ft0,392(sp)
    5fcc:	0000                	unimp
    5fce:	0000                	unimp
    5fd0:	6f59                	lui	t5,0x16
    5fd2:	2075                	jal	607e <__global_pointer+0xafe>
    5fd4:	7261                	lui	tp,0xffff8
    5fd6:	2065                	jal	607e <__global_pointer+0xafe>
    5fd8:	6e69                	lui	t3,0x1a
    5fda:	7420                	flw	fs0,104(s0)
    5fdc:	6568                	flw	fa0,76(a0)
    5fde:	7320                	flw	fs0,96(a4)
    5fe0:	6f74                	flw	fa3,92(a4)
    5fe2:	6172                	flw	ft2,28(sp)
    5fe4:	72206567          	.insn	4, 0x72206567
    5fe8:	206d6f6f          	jal	t5,dc1ee <__global_pointer+0xd6c6e>
    5fec:	63696877          	.insn	4, 0x63696877
    5ff0:	2068                	fld	fa0,192(s0)
    5ff2:	6f68                	flw	fa0,92(a4)
    5ff4:	646c                	flw	fa1,76(s0)
    5ff6:	6f792073          	csrs	0x6f7,s2
    5ffa:	7275                	lui	tp,0xffffd
    5ffc:	6620                	flw	fs0,72(a2)
    5ffe:	20646f6f          	jal	t5,4c204 <__global_pointer+0x46c84>
    6002:	6e61                	lui	t3,0x18
    6004:	2064                	fld	fs1,192(s0)
    6006:	65696373          	csrrsi	t1,hviprio1h,18
    600a:	746e                	flw	fs0,248(sp)
    600c:	6669                	lui	a2,0x1a
    600e:	6369                	lui	t1,0x1a
    6010:	7320                	flw	fs0,96(a4)
    6012:	6d61                	lui	s10,0x18
    6014:	6c70                	flw	fa2,92(s0)
    6016:	7365                	lui	t1,0xffff9
    6018:	2d20                	fld	fs0,88(a0)
    601a:	7920                	flw	fs0,112(a0)
    601c:	6320756f          	jal	a0,d64e <__global_pointer+0x80ce>
    6020:	6e61                	lui	t3,0x18
    6022:	7320                	flw	fs0,96(a4)
    6024:	6f74                	flw	fa3,92(a4)
    6026:	6572                	flw	fa0,28(sp)
    6028:	7920                	flw	fs0,112(a0)
    602a:	2072756f          	jal	a0,2da30 <__global_pointer+0x284b0>
    602e:	6e69                	lui	t3,0x1a
    6030:	6576                	flw	fa0,92(sp)
    6032:	746e                	flw	fs0,248(sp)
    6034:	2079726f          	jal	tp,9da3a <__global_pointer+0x984ba>
    6038:	6568                	flw	fa0,76(a0)
    603a:	6572                	flw	fa0,28(sp)
    603c:	002e                	c.slli	zero,0xb
    603e:	0000                	unimp
    6040:	6f59                	lui	t5,0x16
    6042:	2075                	jal	60ee <__global_pointer+0xb6e>
    6044:	7261                	lui	tp,0xffff8
    6046:	2065                	jal	60ee <__global_pointer+0xb6e>
    6048:	6e69                	lui	t3,0x1a
    604a:	7420                	flw	fs0,104(s0)
    604c:	6568                	flw	fa0,76(a0)
    604e:	7020                	flw	fs0,96(s0)
    6050:	7265                	lui	tp,0xffff9
    6052:	616e6f73          	csrrsi	t5,0x616,28
    6056:	206c                	fld	fa1,192(s0)
    6058:	6d616863          	bltu	sp,s6,6728 <__global_pointer+0x11a8>
    605c:	6562                	flw	fa0,24(sp)
    605e:	7372                	flw	ft6,60(sp)
    6060:	202c                	fld	fa1,64(s0)
    6062:	6874                	flw	fa3,84(s0)
    6064:	7369                	lui	t1,0xffffa
    6066:	6920                	flw	fs0,80(a0)
    6068:	68742073          	csrs	0x687,s0
    606c:	2065                	jal	6114 <__global_pointer+0xb94>
    606e:	72617473          	csrrci	s0,mhpmevent6h,2
    6072:	6974                	flw	fa3,84(a0)
    6074:	676e                	flw	fa4,216(sp)
    6076:	7020                	flw	fs0,96(s0)
    6078:	746e696f          	jal	s2,ec7be <__global_pointer+0xe723e>
    607c:	002e                	c.slli	zero,0xb
    607e:	0000                	unimp
    6080:	6f59                	lui	t5,0x16
    6082:	2075                	jal	612e <__global_pointer+0xbae>
    6084:	6168                	flw	fa0,68(a0)
    6086:	6576                	flw	fa0,92(sp)
    6088:	6520                	flw	fs0,72(a0)
    608a:	746e                	flw	fs0,248(sp)
    608c:	7265                	lui	tp,0xffff9
    608e:	6465                	lui	s0,0x19
    6090:	7420                	flw	fs0,104(s0)
    6092:	6568                	flw	fa0,76(a0)
    6094:	6320                	flw	fs0,64(a4)
    6096:	706b636f          	jal	t1,bc79c <__global_pointer+0xb721c>
    609a:	7469                	lui	s0,0xffffa
    609c:	202c                	fld	fa1,64(s0)
    609e:	6f79                	lui	t5,0x1e
    60a0:	2075                	jal	614c <__global_pointer+0xbcc>
    60a2:	206e6163          	bltu	t3,t1,62a4 <__global_pointer+0xd24>
    60a6:	6f6e                	flw	ft10,216(sp)
    60a8:	68632077          	.insn	4, 0x68632077
    60ac:	65736f6f          	jal	t5,3cf02 <__global_pointer+0x37982>
    60b0:	7420                	flw	fs0,104(s0)
    60b2:	6e65206f          	j	58798 <__global_pointer+0x53218>
    60b6:	2064                	fld	fs1,192(s0)
    60b8:	6874                	flw	fa3,84(s0)
    60ba:	2065                	jal	6162 <__global_pointer+0xbe2>
    60bc:	656d6167          	.insn	4, 0x656d6167
    60c0:	6920                	flw	fs0,80(a0)
    60c2:	2066                	fld	ft0,88(sp)
    60c4:	6f79                	lui	t5,0x1e
    60c6:	2075                	jal	6172 <__global_pointer+0xbf2>
    60c8:	746e6177          	.insn	4, 0x746e6177
    60cc:	002e                	c.slli	zero,0xb
    60ce:	0000                	unimp
    60d0:	6f59                	lui	t5,0x16
    60d2:	2075                	jal	617e <__global_pointer+0xbfe>
    60d4:	6168                	flw	fa0,68(a0)
    60d6:	6576                	flw	fa0,92(sp)
    60d8:	6520                	flw	fs0,72(a0)
    60da:	746e                	flw	fs0,248(sp)
    60dc:	7265                	lui	tp,0xffff9
    60de:	6465                	lui	s0,0x19
    60e0:	7420                	flw	fs0,104(s0)
    60e2:	6568                	flw	fa0,76(a0)
    60e4:	6320                	flw	fs0,64(a4)
    60e6:	6661                	lui	a2,0x18
    60e8:	7465                	lui	s0,0xffff9
    60ea:	7265                	lui	tp,0xffff9
    60ec:	6169                	addi	sp,sp,208
    60ee:	202c                	fld	fa1,64(s0)
    60f0:	6c6c6f63          	bltu	s8,t1,67ce <__global_pointer+0x124e>
    60f4:	6365                	lui	t1,0x19
    60f6:	2074                	fld	fa3,192(s0)
    60f8:	6f66                	flw	ft10,88(sp)
    60fa:	6820646f          	jal	s0,c77c <__global_pointer+0x71fc>
    60fe:	7265                	lui	tp,0xffff9
    6100:	2e65                	jal	64b8 <__global_pointer+0xf38>
    6102:	0000                	unimp
    6104:	6f59                	lui	t5,0x16
    6106:	2075                	jal	61b2 <__global_pointer+0xc32>
    6108:	7261                	lui	tp,0xffff8
    610a:	2065                	jal	61b2 <__global_pointer+0xc32>
    610c:	6e69                	lui	t3,0x1a
    610e:	7420                	flw	fs0,104(s0)
    6110:	6568                	flw	fa0,76(a0)
    6112:	6520                	flw	fs0,72(a0)
    6114:	676e                	flw	fa4,216(sp)
    6116:	6e69                	lui	t3,0x1a
    6118:	2065                	jal	61c0 <__global_pointer+0xc40>
    611a:	6162                	flw	ft2,24(sp)
    611c:	2c79                	jal	63ba <__global_pointer+0xe3a>
    611e:	7920                	flw	fs0,112(a0)
    6120:	6d20756f          	jal	a0,d7f2 <__global_pointer+0x8272>
    6124:	7375                	lui	t1,0xffffd
    6126:	2074                	fld	fa3,192(s0)
    6128:	6966                	flw	fs2,88(sp)
    612a:	6c6c                	flw	fa1,92(s0)
    612c:	7420                	flw	fs0,104(s0)
    612e:	6568                	flw	fa0,76(a0)
    6130:	6520                	flw	fs0,72(a0)
    6132:	676e                	flw	fa4,216(sp)
    6134:	6e69                	lui	t3,0x1a
    6136:	2065                	jal	61de <__global_pointer+0xc5e>
    6138:	68746977          	.insn	4, 0x68746977
    613c:	6620                	flw	fs0,72(a2)
    613e:	6575                	lui	a0,0x1d
    6140:	2e6c                	fld	fa1,216(a2)
    6142:	0000                	unimp
    6144:	6f59                	lui	t5,0x16
    6146:	2075                	jal	61f2 <__global_pointer+0xc72>
    6148:	7261                	lui	tp,0xffff8
    614a:	2065                	jal	61f2 <__global_pointer+0xc72>
    614c:	7461                	lui	s0,0xffff8
    614e:	7420                	flw	fs0,104(s0)
    6150:	6568                	flw	fa0,76(a0)
    6152:	6c20                	flw	fs0,88(s0)
    6154:	6261                	lui	tp,0x18
    6156:	7461726f          	jal	tp,1d89c <__global_pointer+0x1831c>
    615a:	2c79726f          	jal	tp,9dc20 <__global_pointer+0x986a0>
    615e:	7920                	flw	fs0,112(a0)
    6160:	6320756f          	jal	a0,d792 <__global_pointer+0x8212>
    6164:	6e61                	lui	t3,0x18
    6166:	6520                	flw	fs0,72(a0)
    6168:	7078                	flw	fa4,100(s0)
    616a:	7265                	lui	tp,0xffff9
    616c:	6d69                	lui	s10,0x1a
    616e:	6e65                	lui	t3,0x19
    6170:	2074                	fld	fa3,192(s0)
    6172:	6568                	flw	fa0,76(a0)
    6174:	6572                	flw	fa0,28(sp)
    6176:	002e                	c.slli	zero,0xb
    6178:	6f59                	lui	t5,0x16
    617a:	2075                	jal	6226 <__global_pointer+0xca6>
    617c:	6e65                	lui	t3,0x19
    617e:	6574                	flw	fa3,76(a0)
    6180:	6572                	flw	fa0,28(sp)
    6182:	2064                	fld	fs1,192(s0)
    6184:	6874                	flw	fa3,84(s0)
    6186:	2065                	jal	622e <__global_pointer+0xcae>
    6188:	6961                	lui	s2,0x18
    618a:	6c72                	flw	fs8,28(sp)
    618c:	2c6b636f          	jal	t1,bc452 <__global_pointer+0xb6ed2>
    6190:	6d20                	flw	fs0,88(a0)
    6192:	6b61                	lui	s6,0x18
    6194:	2065                	jal	623c <__global_pointer+0xcbc>
    6196:	65727573          	csrrci	a0,hviprio2h,4
    619a:	7420                	flw	fs0,104(s0)
    619c:	656b206f          	j	b87f2 <__global_pointer+0xb3272>
    61a0:	7065                	c.lui	zero,0xffff9
    61a2:	6120                	flw	fs0,64(a0)
    61a4:	206e                	fld	ft0,216(sp)
    61a6:	7965                	lui	s2,0xffff9
    61a8:	2065                	jal	6250 <__global_pointer+0xcd0>
    61aa:	74206e6f          	jal	t3,c8ec <__global_pointer+0x736c>
    61ae:	6568                	flw	fa0,76(a0)
    61b0:	6f20                	flw	fs0,88(a4)
    61b2:	7978                	flw	fa4,116(a0)
    61b4:	206e6567          	.insn	4, 0x206e6567
    61b8:	6e656877          	.insn	4, 0x6e656877
    61bc:	6520                	flw	fs0,72(a0)
    61be:	6978                	flw	fa4,84(a0)
    61c0:	6974                	flw	fa3,84(a0)
    61c2:	676e                	flw	fa4,216(sp)
    61c4:	002e                	c.slli	zero,0xb
    61c6:	0000                	unimp
    61c8:	6f59                	lui	t5,0x16
    61ca:	2075                	jal	6276 <__global_pointer+0xcf6>
    61cc:	7261                	lui	tp,0xffff8
    61ce:	2065                	jal	6276 <__global_pointer+0xcf6>
    61d0:	7461                	lui	s0,0xffff8
    61d2:	7420                	flw	fs0,104(s0)
    61d4:	6568                	flw	fa0,76(a0)
    61d6:	6c20                	flw	fs0,88(s0)
    61d8:	6e61                	lui	t3,0x18
    61da:	6964                	flw	fs1,84(a0)
    61dc:	676e                	flw	fa4,216(sp)
    61de:	7320                	flw	fs0,96(a4)
    61e0:	7469                	lui	s0,0xffffa
    61e2:	2c65                	jal	649a <__global_pointer+0xf1a>
    61e4:	7920                	flw	fs0,112(a0)
    61e6:	6320756f          	jal	a0,d818 <__global_pointer+0x8298>
    61ea:	6e61                	lui	t3,0x18
    61ec:	6e20                	flw	fs0,88(a2)
    61ee:	6520776f          	jal	a4,d840 <__global_pointer+0x82c0>
    61f2:	7078                	flw	fa4,100(s0)
    61f4:	6f6c                	flw	fa1,92(a4)
    61f6:	6572                	flw	fa0,28(sp)
    61f8:	7420                	flw	fs0,104(s0)
    61fa:	6568                	flw	fa0,76(a0)
    61fc:	7020                	flw	fs0,96(s0)
    61fe:	616c                	flw	fa1,68(a0)
    6200:	656e                	flw	fa0,216(sp)
    6202:	2e74                	fld	fa3,216(a2)
    6204:	0000                	unimp
    6206:	0000                	unimp
    6208:	6f59                	lui	t5,0x16
    620a:	2075                	jal	62b6 <__global_pointer+0xd36>
    620c:	7261                	lui	tp,0xffff8
    620e:	2065                	jal	62b6 <__global_pointer+0xd36>
    6210:	6e69                	lui	t3,0x1a
    6212:	7420                	flw	fs0,104(s0)
    6214:	6568                	flw	fa0,76(a0)
    6216:	4d20                	lw	s0,88(a0)
    6218:	7261                	lui	tp,0xffff8
    621a:	6974                	flw	fa3,84(a0)
    621c:	6e61                	lui	t3,0x18
    621e:	7720                	flw	fs0,104(a4)
    6220:	7361                	lui	t1,0xffff8
    6222:	6574                	flw	fa3,76(a0)
    6224:	616c                	flw	fa1,68(a0)
    6226:	646e                	flw	fs0,216(sp)
    6228:	002e                	c.slli	zero,0xb
    622a:	0000                	unimp
    622c:	6855                	lui	a6,0x15
    622e:	6f20                	flw	fs0,88(a4)
    6230:	2c68                	fld	fa0,216(s0)
    6232:	6920                	flw	fs0,80(a0)
    6234:	2074                	fld	fa3,192(s0)
    6236:	6f74                	flw	fa3,92(a4)
    6238:	61206b6f          	jal	s6,c84a <__global_pointer+0x72ca>
    623c:	6c20                	flw	fs0,88(s0)
    623e:	6f20746f          	jal	s0,d930 <__global_pointer+0x83b0>
    6242:	2066                	fld	ft0,88(sp)
    6244:	6e65                	lui	t3,0x19
    6246:	7265                	lui	tp,0xffff9
    6248:	74207967          	.insn	4, 0x74207967
    624c:	6567206f          	j	788a2 <__global_pointer+0x73322>
    6250:	2074                	fld	fa3,192(s0)
    6252:	2074756f          	jal	a0,4dc58 <__global_pointer+0x486d8>
    6256:	7420666f          	jal	a2,c998 <__global_pointer+0x7418>
    625a:	6568                	flw	fa0,76(a0)
    625c:	6c20                	flw	fs0,88(s0)
    625e:	65736f6f          	jal	t5,3d0b4 <__global_pointer+0x37b34>
    6262:	7320                	flw	fs0,96(a4)
    6264:	2e6c696f          	jal	s2,cc54a <__global_pointer+0xc6fca>
    6268:	2e2e                	fld	ft8,200(sp)
    626a:	0000                	unimp
    626c:	7441                	lui	s0,0xffff0
    626e:	7420                	flw	fs0,104(s0)
    6270:	6568                	flw	fa0,76(a0)
    6272:	7020                	flw	fs0,96(s0)
    6274:	2c646e6f          	jal	t3,4c53a <__global_pointer+0x46fba>
    6278:	7920                	flw	fs0,112(a0)
    627a:	6d20756f          	jal	a0,d94c <__global_pointer+0x83cc>
    627e:	7961                	lui	s2,0xffff8
    6280:	6620                	flw	fs0,72(a2)
    6282:	6e69                	lui	t3,0x1a
    6284:	2064                	fld	fs1,192(s0)
    6286:	696c                	flw	fa1,84(a0)
    6288:	6566                	flw	fa0,88(sp)
    628a:	002e                	c.slli	zero,0xb
    628c:	6542                	flw	fa0,16(sp)
    628e:	6320                	flw	fs0,64(a4)
    6290:	7261                	lui	tp,0xffff8
    6292:	6665                	lui	a2,0x19
    6294:	6c75                	lui	s8,0x1d
    6296:	2021                	jal	629e <__global_pointer+0xd1e>
    6298:	6854                	flw	fa3,20(s0)
    629a:	2065                	jal	6342 <__global_pointer+0xdc2>
    629c:	72616873          	csrrsi	a6,mhpmevent6h,2
    62a0:	2070                	fld	fa2,192(s0)
    62a2:	6f72                	flw	ft10,28(sp)
    62a4:	20736b63          	bltu	t1,t2,64ba <__global_pointer+0xf3a>
    62a8:	6564                	flw	fs1,76(a0)
    62aa:	6f727473          	csrrci	s0,0x6f7,4
    62ae:	6579                	lui	a0,0x1e
    62b0:	2064                	fld	fs1,192(s0)
    62b2:	20656e6f          	jal	t3,5c4b8 <__global_pointer+0x56f38>
    62b6:	6779786f          	jal	a6,9e12c <__global_pointer+0x98bac>
    62ba:	6e65                	lui	t3,0x19
    62bc:	7420                	flw	fs0,104(s0)
    62be:	6e61                	lui	t3,0x18
    62c0:	6e61206b          	.insn	4, 0x6e61206b
    62c4:	2064                	fld	fs1,192(s0)
    62c6:	6f6e                	flw	ft10,216(sp)
    62c8:	6f792077          	.insn	4, 0x6f792077
    62cc:	2075                	jal	6378 <__global_pointer+0xdf8>
    62ce:	6f6c                	flw	fa1,92(a4)
    62d0:	68207473          	csrrci	s0,0x682,0
    62d4:	6c61                	lui	s8,0x18
    62d6:	2066                	fld	ft0,88(sp)
    62d8:	7920666f          	jal	a2,ca6a <__global_pointer+0x74ea>
    62dc:	2072756f          	jal	a0,2dce2 <__global_pointer+0x28762>
    62e0:	6779786f          	jal	a6,9e156 <__global_pointer+0x98bd6>
    62e4:	6e65                	lui	t3,0x19
    62e6:	002e                	c.slli	zero,0xb
    62e8:	6144                	flw	fs1,4(a0)
    62ea:	6b72                	flw	fs6,28(sp)
    62ec:	656e                	flw	fa0,216(sp)
    62ee:	65207373          	csrrci	t1,0x652,0
    62f2:	676e                	flw	fa4,216(sp)
    62f4:	6c75                	lui	s8,0x1d
    62f6:	2066                	fld	ft0,88(sp)
    62f8:	6f79                	lui	t5,0x1e
    62fa:	2c75                	jal	65b6 <__global_pointer+0x1036>
    62fc:	7920                	flw	fs0,112(a0)
    62fe:	6820756f          	jal	a0,d980 <__global_pointer+0x8400>
    6302:	7661                	lui	a2,0xffff8
    6304:	2065                	jal	63ac <__global_pointer+0xe2c>
    6306:	7061                	c.lui	zero,0xffff8
    6308:	7270                	flw	fa2,100(a2)
    630a:	6863616f          	jal	sp,3c990 <__global_pointer+0x37410>
    630e:	6465                	lui	s0,0x19
    6310:	6120                	flw	fs0,64(a0)
    6312:	6320                	flw	fs0,64(a4)
    6314:	7661                	lui	a2,0xffff8
    6316:	2e65                	jal	66ce <__global_pointer+0x114e>
    6318:	0000                	unimp
    631a:	0000                	unimp
    631c:	6f59                	lui	t5,0x16
    631e:	2075                	jal	63ca <__global_pointer+0xe4a>
    6320:	7261                	lui	tp,0xffff8
    6322:	2065                	jal	63ca <__global_pointer+0xe4a>
    6324:	6f6e                	flw	ft10,216(sp)
    6326:	6e692077          	.insn	4, 0x6e692077
    632a:	6120                	flw	fs0,64(a0)
    632c:	6320                	flw	fs0,64(a4)
    632e:	6172                	flw	ft2,28(sp)
    6330:	6574                	flw	fa3,76(a0)
    6332:	2072                	fld	ft0,280(sp)
    6334:	4d206e6f          	jal	t3,c806 <__global_pointer+0x7286>
    6338:	7261                	lui	tp,0xffff8
    633a:	00002e73          	csrr	t3,ustatus
    633e:	0000                	unimp
    6340:	2041                	jal	63c0 <__global_pointer+0xe40>
    6342:	796e6163          	bltu	t3,s6,6ac4 <__global_pointer+0x1544>
    6346:	68206e6f          	jal	t3,c9c8 <__global_pointer+0x7448>
    634a:	7361                	lui	t1,0xffff8
    634c:	6d20                	flw	fs0,88(a0)
    634e:	6e61                	lui	t3,0x18
    6350:	2079                	jal	63de <__global_pointer+0xe5e>
    6352:	72636573          	csrrsi	a0,mhpmevent6h,6
    6356:	7465                	lui	s0,0xffff9
    6358:	79202c73          	csrr	s8,0x792
    635c:	6d20756f          	jal	a0,da2e <__global_pointer+0x84ae>
    6360:	7961                	lui	s2,0xffff8
    6362:	6620                	flw	fs0,72(a2)
    6364:	6e69                	lui	t3,0x1a
    6366:	2064                	fld	fs1,192(s0)
    6368:	3f656e6f          	jal	t3,5c75e <__global_pointer+0x571de>
    636c:	0000                	unimp
    636e:	0000                	unimp
    6370:	6f59                	lui	t5,0x16
    6372:	2075                	jal	641e <__global_pointer+0xe9e>
    6374:	6e6e6163          	bltu	t3,t1,6a56 <__global_pointer+0x14d6>
    6378:	7020746f          	jal	s0,da7a <__global_pointer+0x84fa>
    637c:	7361                	lui	t1,0xffff8
    637e:	20612073          	csrs	0x206,sp
    6382:	6f6d                	lui	t5,0x1b
    6384:	6e75                	lui	t3,0x1d
    6386:	6174                	flw	fa3,68(a0)
    6388:	6e69                	lui	t3,0x1a
    638a:	202c                	fld	fa1,64(s0)
    638c:	6f79                	lui	t5,0x1e
    638e:	2075                	jal	643a <__global_pointer+0xeba>
    6390:	756d                	lui	a0,0xffffb
    6392:	67207473          	csrrci	s0,0x672,0
    6396:	7261206f          	j	18abc <__global_pointer+0x1353c>
    639a:	646e756f          	jal	a0,ed9e0 <__global_pointer+0xe8460>
    639e:	6920                	flw	fs0,80(a0)
    63a0:	2e74                	fld	fa3,216(a2)
    63a2:	0000                	unimp
    63a4:	74616857          	.insn	4, 0x74616857
    63a8:	6120                	flw	fs0,64(a0)
    63aa:	6572                	flw	fa0,28(sp)
    63ac:	7920                	flw	fs0,112(a0)
    63ae:	6520756f          	jal	a0,da00 <__global_pointer+0x8480>
    63b2:	6576                	flw	fa0,92(sp)
    63b4:	206e                	fld	ft0,216(sp)
    63b6:	6f64                	flw	fs1,92(a4)
    63b8:	6e69                	lui	t3,0x1a
    63ba:	6e6f2067          	.insn	4, 0x6e6f2067
    63be:	6120                	flw	fs0,64(a0)
    63c0:	206e                	fld	ft0,216(sp)
    63c2:	6d65                	lui	s10,0x19
    63c4:	7470                	flw	fa2,108(s0)
    63c6:	2079                	jal	6454 <__global_pointer+0xed4>
    63c8:	6974                	flw	fa3,84(a0)
    63ca:	656c                	flw	fa1,76(a0)
    63cc:	00003f3f 58455b0a 	.insn	8, 0x58455b0a00003f3f
    63d4:	54504543          	.insn	4, 0x54504543
    63d8:	4f49                	li	t5,18
    63da:	5d4e                	lw	s10,240(sp)
    63dc:	4920                	lw	s0,80(a0)
    63de:	736e                	flw	ft6,248(sp)
    63e0:	7274                	flw	fa3,100(a2)
    63e2:	6375                	lui	t1,0x1d
    63e4:	6974                	flw	fa3,84(a0)
    63e6:	61206e6f          	jal	t3,c9f8 <__global_pointer+0x7478>
    63ea:	6464                	flw	fs1,76(s0)
    63ec:	6572                	flw	fa0,28(sp)
    63ee:	6d207373          	csrrci	t1,0x6d2,0
    63f2:	7369                	lui	t1,0xffffa
    63f4:	6c61                	lui	s8,0x18
    63f6:	6769                	lui	a4,0x1a
    63f8:	6d6e                	flw	fs10,216(sp)
    63fa:	6e65                	lui	t3,0x19
    63fc:	2e74                	fld	fa3,216(a2)
    63fe:	0020                	addi	s0,sp,8
    6400:	5b0a                	lw	s6,160(sp)
    6402:	5845                	li	a6,-15
    6404:	54504543          	.insn	4, 0x54504543
    6408:	4f49                	li	t5,18
    640a:	5d4e                	lw	s10,240(sp)
    640c:	4920                	lw	s0,80(a0)
    640e:	6c6c                	flw	fa1,92(s0)
    6410:	6765                	lui	a4,0x19
    6412:	6c61                	lui	s8,0x18
    6414:	6920                	flw	fs0,80(a0)
    6416:	736e                	flw	ft6,248(sp)
    6418:	7274                	flw	fa3,100(a2)
    641a:	6375                	lui	t1,0x1d
    641c:	6974                	flw	fa3,84(a0)
    641e:	202e6e6f          	jal	t3,ec620 <__global_pointer+0xe70a0>
    6422:	0000                	unimp
    6424:	5b0a                	lw	s6,160(sp)
    6426:	5845                	li	a6,-15
    6428:	54504543          	.insn	4, 0x54504543
    642c:	4f49                	li	t5,18
    642e:	5d4e                	lw	s10,240(sp)
    6430:	5520                	lw	s0,104(a0)
    6432:	6b6e                	flw	fs6,216(sp)
    6434:	6f6e                	flw	ft10,216(sp)
    6436:	65206e77          	.insn	4, 0x65206e77
    643a:	7272                	flw	ft4,60(sp)
    643c:	202e726f          	jal	tp,ed63e <__global_pointer+0xe80be>
    6440:	0000                	unimp
    6442:	0000                	unimp
    6444:	7845                	lui	a6,0xffff1
    6446:	74706563          	bltu	zero,t2,6b90 <__global_pointer+0x1610>
    644a:	6f69                	lui	t5,0x1a
    644c:	206e                	fld	ft0,216(sp)
    644e:	6441                	lui	s0,0x10
    6450:	7264                	flw	fs1,100(a2)
    6452:	7365                	lui	t1,0xffff9
    6454:	00203a73          	csrrc	s4,frm,zero

Disassembly of section .comment:

00000000 <.comment>:
   0:	3a434347          	fmsub.d	ft6,ft6,ft4,ft7,rmm
   4:	2820                	fld	fs0,80(s0)
   6:	2029                	jal	10 <_isr_routine+0x8>
   8:	3431                	jal	fffffa14 <_stack_end+0xffef95bc>
   a:	322e                	fld	ft4,232(sp)
   c:	302e                	fld	ft0,232(sp)
   e:	4700                	lw	s0,8(a4)
  10:	203a4343          	fmadd.s	ft6,fs4,ft3,ft4,rmm
  14:	4728                	lw	a0,72(a4)
  16:	554e                	lw	a0,240(sp)
  18:	2029                	jal	22 <_isr_routine+0x1a>
  1a:	3431                	jal	fffffa26 <_stack_end+0xffef95ce>
  1c:	322e                	fld	ft4,232(sp)
  1e:	302e                	fld	ft0,232(sp)
	...

Disassembly of section .riscv.attributes:

00000000 <.riscv.attributes>:
   0:	6941                	lui	s2,0x10
   2:	0000                	unimp
   4:	7200                	flw	fs0,32(a2)
   6:	7369                	lui	t1,0xffffa
   8:	01007663          	bgeu	zero,a6,14 <_isr_routine+0xc>
   c:	005f 0000 1004      	.insn	6, 0x10040000005f
  12:	7205                	lui	tp,0xfffe1
  14:	3376                	fld	ft6,376(sp)
  16:	6932                	flw	fs2,12(sp)
  18:	7032                	flw	ft0,44(sp)
  1a:	5f31                	li	t5,-20
  1c:	326d                	jal	fffff9c6 <_stack_end+0xffef956e>
  1e:	3070                	fld	fa2,224(s0)
  20:	615f 7032 5f31      	.insn	6, 0x5f317032615f
  26:	3266                	fld	ft4,120(sp)
  28:	3270                	fld	fa2,224(a2)
  2a:	645f 7032 5f32      	.insn	6, 0x5f327032645f
  30:	30703263          	.insn	4, 0x30703263
  34:	7a5f 6369 7273      	.insn	6, 0x727363697a5f
  3a:	7032                	flw	ft0,44(sp)
  3c:	5f30                	lw	a2,120(a4)
  3e:	697a                	flw	fs2,156(sp)
  40:	6566                	flw	fa0,88(sp)
  42:	636e                	flw	ft6,216(sp)
  44:	6965                	lui	s2,0x19
  46:	7032                	flw	ft0,44(sp)
  48:	5f30                	lw	a2,120(a4)
  4a:	6d7a                	flw	fs10,156(sp)
  4c:	756d                	lui	a0,0xffffb
  4e:	316c                	fld	fa1,224(a0)
  50:	3070                	fld	fa2,224(s0)
  52:	7a5f 6161 6f6d      	.insn	6, 0x6f6d61617a5f
  58:	7031                	c.lui	zero,0xfffec
  5a:	5f30                	lw	a2,120(a4)
  5c:	617a                	flw	ft2,156(sp)
  5e:	726c                	flw	fa1,100(a2)
  60:	70316373          	csrrsi	t1,0x703,2
  64:	0030                	addi	a2,sp,8
  66:	0108                	addi	a0,sp,128
  68:	0b0a                	slli	s6,s6,0x2
