
main.elf:     file format elf32-littleriscv


Disassembly of section .text:

00000000 <_isr_handler>:
       0:	0080006f          	j	8 <_isr_routine>
       4:	1440006f          	j	148 <_start>

00000008 <_isr_routine>:
       8:	f8010113          	addi	sp,sp,-128
       c:	00112023          	sw	ra,0(sp)
      10:	00312423          	sw	gp,8(sp)
      14:	00412623          	sw	tp,12(sp)
      18:	00512823          	sw	t0,16(sp)
      1c:	00612a23          	sw	t1,20(sp)
      20:	00712c23          	sw	t2,24(sp)
      24:	00812e23          	sw	s0,28(sp)
      28:	02912023          	sw	s1,32(sp)
      2c:	02a12223          	sw	a0,36(sp)
      30:	02b12423          	sw	a1,40(sp)
      34:	02c12623          	sw	a2,44(sp)
      38:	02d12823          	sw	a3,48(sp)
      3c:	02e12a23          	sw	a4,52(sp)
      40:	02f12c23          	sw	a5,56(sp)
      44:	03012e23          	sw	a6,60(sp)
      48:	05112023          	sw	a7,64(sp)
      4c:	05212223          	sw	s2,68(sp)
      50:	05312423          	sw	s3,72(sp)
      54:	05412623          	sw	s4,76(sp)
      58:	05512823          	sw	s5,80(sp)
      5c:	05612a23          	sw	s6,84(sp)
      60:	05712c23          	sw	s7,88(sp)
      64:	05812e23          	sw	s8,92(sp)
      68:	07912023          	sw	s9,96(sp)
      6c:	07a12223          	sw	s10,100(sp)
      70:	07b12423          	sw	s11,104(sp)
      74:	07c12623          	sw	t3,108(sp)
      78:	07d12823          	sw	t4,112(sp)
      7c:	07e12a23          	sw	t5,116(sp)
      80:	07f12c23          	sw	t6,120(sp)
      84:	342022f3          	csrr	t0,mcause
      88:	80000337          	lui	t1,0x80000
      8c:	02536463          	bltu	t1,t0,b4 <external_irq>
      90:	00028833          	add	a6,t0,zero
      94:	00b00313          	li	t1,11
      98:	00628463          	beq	t0,t1,a0 <skip_init_args>
      9c:	34102573          	csrr	a0,mepc

000000a0 <skip_init_args>:
      a0:	259040ef          	jal	4af8 <handle_exception>
      a4:	341022f3          	csrr	t0,mepc
      a8:	00428293          	addi	t0,t0,4
      ac:	34129073          	csrw	mepc,t0
      b0:	0180006f          	j	c8 <restore>

000000b4 <external_irq>:
      b4:	800002b7          	lui	t0,0x80000
      b8:	fff28293          	addi	t0,t0,-1 # 7fffffff <_stack_end+0x7fef9a23>
      bc:	34202373          	csrr	t1,mcause
      c0:	0062f533          	and	a0,t0,t1
      c4:	33d030ef          	jal	3c00 <handle_interrupt>

000000c8 <restore>:
      c8:	00012083          	lw	ra,0(sp)
      cc:	00812183          	lw	gp,8(sp)
      d0:	00c12203          	lw	tp,12(sp)
      d4:	01012283          	lw	t0,16(sp)
      d8:	01412303          	lw	t1,20(sp)
      dc:	01812383          	lw	t2,24(sp)
      e0:	01c12403          	lw	s0,28(sp)
      e4:	02012483          	lw	s1,32(sp)
      e8:	02412503          	lw	a0,36(sp)
      ec:	02812583          	lw	a1,40(sp)
      f0:	02c12603          	lw	a2,44(sp)
      f4:	03012683          	lw	a3,48(sp)
      f8:	03412703          	lw	a4,52(sp)
      fc:	03812783          	lw	a5,56(sp)
     100:	03c12803          	lw	a6,60(sp)
     104:	04012883          	lw	a7,64(sp)
     108:	04412903          	lw	s2,68(sp)
     10c:	04812983          	lw	s3,72(sp)
     110:	04c12a03          	lw	s4,76(sp)
     114:	05012a83          	lw	s5,80(sp)
     118:	05412b03          	lw	s6,84(sp)
     11c:	05812b83          	lw	s7,88(sp)
     120:	05c12c03          	lw	s8,92(sp)
     124:	06012c83          	lw	s9,96(sp)
     128:	06412d03          	lw	s10,100(sp)
     12c:	06812d83          	lw	s11,104(sp)
     130:	06c12e03          	lw	t3,108(sp)
     134:	07012e83          	lw	t4,112(sp)
     138:	07412f03          	lw	t5,116(sp)
     13c:	07812f83          	lw	t6,120(sp)
     140:	08010113          	addi	sp,sp,128
     144:	30200073          	mret

00000148 <_start>:
     148:	00106117          	auipc	sp,0x106
     14c:	49410113          	addi	sp,sp,1172 # 1065dc <_stack_end>
     150:	00005197          	auipc	gp,0x5
     154:	5e018193          	addi	gp,gp,1504 # 5730 <__global_pointer>
     158:	00005517          	auipc	a0,0x5
     15c:	c7850513          	addi	a0,a0,-904 # 4dd0 <welcome_msg>
     160:	00400893          	li	a7,4
     164:	00000073          	ecall
     168:	291020ef          	jal	2bf8 <main>

0000016c <loop>:
     16c:	0000006f          	j	16c <loop>

00000170 <enable_interrupt>:
     170:	3001e073          	csrsi	mstatus,3
     174:	30486073          	csrsi	mie,16
     178:	3048e073          	csrsi	mie,17
     17c:	30496073          	csrsi	mie,18
     180:	00008067          	ret

00000184 <create_player>:
     184:	06300713          	li	a4,99
     188:	00300693          	li	a3,3
     18c:	00052023          	sw	zero,0(a0)
     190:	00d52223          	sw	a3,4(a0)
     194:	00e52423          	sw	a4,8(a0)
     198:	00e52623          	sw	a4,12(a0)
     19c:	00052823          	sw	zero,16(a0)
     1a0:	00052a23          	sw	zero,20(a0)
     1a4:	00052c23          	sw	zero,24(a0)
     1a8:	00052e23          	sw	zero,28(a0)
     1ac:	02052023          	sw	zero,32(a0)
     1b0:	02e52223          	sw	a4,36(a0)
     1b4:	00008067          	ret

000001b8 <int_to_str>:
     1b8:	24050663          	beqz	a0,404 <int_to_str+0x24c>
     1bc:	ff010113          	addi	sp,sp,-16
     1c0:	10054a63          	bltz	a0,2d4 <int_to_str+0x11c>
     1c4:	00a00693          	li	a3,10
     1c8:	02d567b3          	rem	a5,a0,a3
     1cc:	00000713          	li	a4,0
     1d0:	02d54533          	div	a0,a0,a3
     1d4:	03078793          	addi	a5,a5,48
     1d8:	0ff7f793          	zext.b	a5,a5
     1dc:	00f10223          	sb	a5,4(sp)
     1e0:	30050e63          	beqz	a0,4fc <int_to_str+0x344>
     1e4:	00a00693          	li	a3,10
     1e8:	02d567b3          	rem	a5,a0,a3
     1ec:	02d54533          	div	a0,a0,a3
     1f0:	03078793          	addi	a5,a5,48
     1f4:	0ff7f793          	zext.b	a5,a5
     1f8:	00f102a3          	sb	a5,5(sp)
     1fc:	22050263          	beqz	a0,420 <int_to_str+0x268>
     200:	02d567b3          	rem	a5,a0,a3
     204:	02d54533          	div	a0,a0,a3
     208:	03078793          	addi	a5,a5,48
     20c:	0ff7f793          	zext.b	a5,a5
     210:	00f10323          	sb	a5,6(sp)
     214:	20050e63          	beqz	a0,430 <int_to_str+0x278>
     218:	02d567b3          	rem	a5,a0,a3
     21c:	02d54533          	div	a0,a0,a3
     220:	03078793          	addi	a5,a5,48
     224:	0ff7f793          	zext.b	a5,a5
     228:	00f103a3          	sb	a5,7(sp)
     22c:	24050063          	beqz	a0,46c <int_to_str+0x2b4>
     230:	02d567b3          	rem	a5,a0,a3
     234:	02d54533          	div	a0,a0,a3
     238:	03078793          	addi	a5,a5,48
     23c:	0ff7f793          	zext.b	a5,a5
     240:	00f10423          	sb	a5,8(sp)
     244:	24050263          	beqz	a0,488 <int_to_str+0x2d0>
     248:	02d567b3          	rem	a5,a0,a3
     24c:	02d54533          	div	a0,a0,a3
     250:	03078793          	addi	a5,a5,48
     254:	0ff7f793          	zext.b	a5,a5
     258:	00f104a3          	sb	a5,9(sp)
     25c:	22050c63          	beqz	a0,494 <int_to_str+0x2dc>
     260:	02d567b3          	rem	a5,a0,a3
     264:	02d54533          	div	a0,a0,a3
     268:	03078793          	addi	a5,a5,48
     26c:	0ff7f793          	zext.b	a5,a5
     270:	00f10523          	sb	a5,10(sp)
     274:	22050e63          	beqz	a0,4b0 <int_to_str+0x2f8>
     278:	02d567b3          	rem	a5,a0,a3
     27c:	02d54533          	div	a0,a0,a3
     280:	03078793          	addi	a5,a5,48
     284:	0ff7f793          	zext.b	a5,a5
     288:	00f105a3          	sb	a5,11(sp)
     28c:	22050c63          	beqz	a0,4c4 <int_to_str+0x30c>
     290:	02d567b3          	rem	a5,a0,a3
     294:	02d54533          	div	a0,a0,a3
     298:	03078793          	addi	a5,a5,48
     29c:	0ff7f793          	zext.b	a5,a5
     2a0:	00f10623          	sb	a5,12(sp)
     2a4:	22050663          	beqz	a0,4d0 <int_to_str+0x318>
     2a8:	03050513          	addi	a0,a0,48
     2ac:	0ff57793          	zext.b	a5,a0
     2b0:	00f106a3          	sb	a5,13(sp)
     2b4:	16071063          	bnez	a4,414 <int_to_str+0x25c>
     2b8:	00a00713          	li	a4,10
     2bc:	01070693          	addi	a3,a4,16
     2c0:	002686b3          	add	a3,a3,sp
     2c4:	ff26c683          	lbu	a3,-14(a3)
     2c8:	00f58023          	sb	a5,0(a1)
     2cc:	00d580a3          	sb	a3,1(a1)
     2d0:	0580006f          	j	328 <int_to_str+0x170>
     2d4:	40a00533          	neg	a0,a0
     2d8:	00a00693          	li	a3,10
     2dc:	02d567b3          	rem	a5,a0,a3
     2e0:	00100713          	li	a4,1
     2e4:	02d54533          	div	a0,a0,a3
     2e8:	03078793          	addi	a5,a5,48
     2ec:	00f10223          	sb	a5,4(sp)
     2f0:	00100793          	li	a5,1
     2f4:	ee0518e3          	bnez	a0,1e4 <int_to_str+0x2c>
     2f8:	01078793          	addi	a5,a5,16
     2fc:	002787b3          	add	a5,a5,sp
     300:	02d00713          	li	a4,45
     304:	fee78a23          	sb	a4,-12(a5)
     308:	01050793          	addi	a5,a0,16
     30c:	002787b3          	add	a5,a5,sp
     310:	ff57c683          	lbu	a3,-11(a5)
     314:	ff47c783          	lbu	a5,-12(a5)
     318:	00250713          	addi	a4,a0,2
     31c:	00d58023          	sb	a3,0(a1)
     320:	00f580a3          	sb	a5,1(a1)
     324:	12050863          	beqz	a0,454 <int_to_str+0x29c>
     328:	00d70693          	addi	a3,a4,13
     32c:	002686b3          	add	a3,a3,sp
     330:	ff46c683          	lbu	a3,-12(a3)
     334:	ffd70793          	addi	a5,a4,-3
     338:	00d58123          	sb	a3,2(a1)
     33c:	10078263          	beqz	a5,440 <int_to_str+0x288>
     340:	00c70693          	addi	a3,a4,12
     344:	002686b3          	add	a3,a3,sp
     348:	ff46c683          	lbu	a3,-12(a3)
     34c:	ffc70793          	addi	a5,a4,-4
     350:	00d581a3          	sb	a3,3(a1)
     354:	12078263          	beqz	a5,478 <int_to_str+0x2c0>
     358:	00b70693          	addi	a3,a4,11
     35c:	002686b3          	add	a3,a3,sp
     360:	ff46c683          	lbu	a3,-12(a3)
     364:	ffb70793          	addi	a5,a4,-5
     368:	00d58223          	sb	a3,4(a1)
     36c:	10078a63          	beqz	a5,480 <int_to_str+0x2c8>
     370:	00a70693          	addi	a3,a4,10
     374:	002686b3          	add	a3,a3,sp
     378:	ff46c683          	lbu	a3,-12(a3)
     37c:	ffa70793          	addi	a5,a4,-6
     380:	00d582a3          	sb	a3,5(a1)
     384:	10078e63          	beqz	a5,4a0 <int_to_str+0x2e8>
     388:	00970693          	addi	a3,a4,9
     38c:	002686b3          	add	a3,a3,sp
     390:	ff46c683          	lbu	a3,-12(a3)
     394:	ff970793          	addi	a5,a4,-7
     398:	00d58323          	sb	a3,6(a1)
     39c:	10078663          	beqz	a5,4a8 <int_to_str+0x2f0>
     3a0:	00870693          	addi	a3,a4,8
     3a4:	002686b3          	add	a3,a3,sp
     3a8:	ff46c683          	lbu	a3,-12(a3)
     3ac:	ff870793          	addi	a5,a4,-8
     3b0:	00d583a3          	sb	a3,7(a1)
     3b4:	10078463          	beqz	a5,4bc <int_to_str+0x304>
     3b8:	00770693          	addi	a3,a4,7
     3bc:	002686b3          	add	a3,a3,sp
     3c0:	ff46c683          	lbu	a3,-12(a3)
     3c4:	ff770793          	addi	a5,a4,-9
     3c8:	00d58423          	sb	a3,8(a1)
     3cc:	10078863          	beqz	a5,4dc <int_to_str+0x324>
     3d0:	00670793          	addi	a5,a4,6
     3d4:	002787b3          	add	a5,a5,sp
     3d8:	ff47c783          	lbu	a5,-12(a5)
     3dc:	ff670713          	addi	a4,a4,-10
     3e0:	00f584a3          	sb	a5,9(a1)
     3e4:	08070063          	beqz	a4,464 <int_to_str+0x2ac>
     3e8:	00414703          	lbu	a4,4(sp)
     3ec:	00b00793          	li	a5,11
     3f0:	00e58523          	sb	a4,10(a1)
     3f4:	00f587b3          	add	a5,a1,a5
     3f8:	00078023          	sb	zero,0(a5)
     3fc:	01010113          	addi	sp,sp,16
     400:	00008067          	ret
     404:	03000793          	li	a5,48
     408:	00f58023          	sb	a5,0(a1)
     40c:	000580a3          	sb	zero,1(a1)
     410:	00008067          	ret
     414:	00a00793          	li	a5,10
     418:	00900513          	li	a0,9
     41c:	eddff06f          	j	2f8 <int_to_str+0x140>
     420:	02070463          	beqz	a4,448 <int_to_str+0x290>
     424:	00070513          	mv	a0,a4
     428:	00200793          	li	a5,2
     42c:	ecdff06f          	j	2f8 <int_to_str+0x140>
     430:	02070663          	beqz	a4,45c <int_to_str+0x2a4>
     434:	00300793          	li	a5,3
     438:	00200513          	li	a0,2
     43c:	ebdff06f          	j	2f8 <int_to_str+0x140>
     440:	00300793          	li	a5,3
     444:	fb1ff06f          	j	3f4 <int_to_str+0x23c>
     448:	00414703          	lbu	a4,4(sp)
     44c:	00f58023          	sb	a5,0(a1)
     450:	00e580a3          	sb	a4,1(a1)
     454:	00200793          	li	a5,2
     458:	f9dff06f          	j	3f4 <int_to_str+0x23c>
     45c:	00300713          	li	a4,3
     460:	e5dff06f          	j	2bc <int_to_str+0x104>
     464:	00a00793          	li	a5,10
     468:	f8dff06f          	j	3f4 <int_to_str+0x23c>
     46c:	06071c63          	bnez	a4,4e4 <int_to_str+0x32c>
     470:	00400713          	li	a4,4
     474:	e49ff06f          	j	2bc <int_to_str+0x104>
     478:	00400793          	li	a5,4
     47c:	f79ff06f          	j	3f4 <int_to_str+0x23c>
     480:	00500793          	li	a5,5
     484:	f71ff06f          	j	3f4 <int_to_str+0x23c>
     488:	06071463          	bnez	a4,4f0 <int_to_str+0x338>
     48c:	00500713          	li	a4,5
     490:	e2dff06f          	j	2bc <int_to_str+0x104>
     494:	06071a63          	bnez	a4,508 <int_to_str+0x350>
     498:	00600713          	li	a4,6
     49c:	e21ff06f          	j	2bc <int_to_str+0x104>
     4a0:	00600793          	li	a5,6
     4a4:	f51ff06f          	j	3f4 <int_to_str+0x23c>
     4a8:	00700793          	li	a5,7
     4ac:	f49ff06f          	j	3f4 <int_to_str+0x23c>
     4b0:	06071263          	bnez	a4,514 <int_to_str+0x35c>
     4b4:	00700713          	li	a4,7
     4b8:	e05ff06f          	j	2bc <int_to_str+0x104>
     4bc:	00800793          	li	a5,8
     4c0:	f35ff06f          	j	3f4 <int_to_str+0x23c>
     4c4:	04071e63          	bnez	a4,520 <int_to_str+0x368>
     4c8:	00800713          	li	a4,8
     4cc:	df1ff06f          	j	2bc <int_to_str+0x104>
     4d0:	04071e63          	bnez	a4,52c <int_to_str+0x374>
     4d4:	00900713          	li	a4,9
     4d8:	de5ff06f          	j	2bc <int_to_str+0x104>
     4dc:	00900793          	li	a5,9
     4e0:	f15ff06f          	j	3f4 <int_to_str+0x23c>
     4e4:	00400793          	li	a5,4
     4e8:	00300513          	li	a0,3
     4ec:	e0dff06f          	j	2f8 <int_to_str+0x140>
     4f0:	00500793          	li	a5,5
     4f4:	00400513          	li	a0,4
     4f8:	e01ff06f          	j	2f8 <int_to_str+0x140>
     4fc:	00f58023          	sb	a5,0(a1)
     500:	00100793          	li	a5,1
     504:	ef1ff06f          	j	3f4 <int_to_str+0x23c>
     508:	00600793          	li	a5,6
     50c:	00500513          	li	a0,5
     510:	de9ff06f          	j	2f8 <int_to_str+0x140>
     514:	00700793          	li	a5,7
     518:	00600513          	li	a0,6
     51c:	dddff06f          	j	2f8 <int_to_str+0x140>
     520:	00800793          	li	a5,8
     524:	00700513          	li	a0,7
     528:	dd1ff06f          	j	2f8 <int_to_str+0x140>
     52c:	00900793          	li	a5,9
     530:	00800513          	li	a0,8
     534:	dc5ff06f          	j	2f8 <int_to_str+0x140>

00000538 <append_str>:
     538:	00054783          	lbu	a5,0(a0)
     53c:	00078863          	beqz	a5,54c <append_str+0x14>
     540:	00154783          	lbu	a5,1(a0)
     544:	00150513          	addi	a0,a0,1
     548:	fe079ce3          	bnez	a5,540 <append_str+0x8>
     54c:	0005c783          	lbu	a5,0(a1)
     550:	00078c63          	beqz	a5,568 <append_str+0x30>
     554:	00f50023          	sb	a5,0(a0)
     558:	0015c783          	lbu	a5,1(a1)
     55c:	00150513          	addi	a0,a0,1
     560:	00158593          	addi	a1,a1,1
     564:	fe0798e3          	bnez	a5,554 <append_str+0x1c>
     568:	00050023          	sb	zero,0(a0)
     56c:	00008067          	ret

00000570 <str_length>:
     570:	00054783          	lbu	a5,0(a0)
     574:	02078263          	beqz	a5,598 <str_length+0x28>
     578:	ff010113          	addi	sp,sp,-16
     57c:	00150513          	addi	a0,a0,1
     580:	00112623          	sw	ra,12(sp)
     584:	7e8040ef          	jal	4d6c <strlen>
     588:	00c12083          	lw	ra,12(sp)
     58c:	00150513          	addi	a0,a0,1
     590:	01010113          	addi	sp,sp,16
     594:	00008067          	ret
     598:	00000513          	li	a0,0
     59c:	00008067          	ret

000005a0 <drop_stats>:
     5a0:	0245a783          	lw	a5,36(a1)
     5a4:	ff010113          	addi	sp,sp,-16
     5a8:	00112623          	sw	ra,12(sp)
     5ac:	00100713          	li	a4,1
     5b0:	06e78663          	beq	a5,a4,61c <drop_stats+0x7c>
     5b4:	02078a63          	beqz	a5,5e8 <drop_stats+0x48>
     5b8:	00c52683          	lw	a3,12(a0)
     5bc:	02452783          	lw	a5,36(a0)
     5c0:	00852703          	lw	a4,8(a0)
     5c4:	fff78793          	addi	a5,a5,-1
     5c8:	fff70713          	addi	a4,a4,-1
     5cc:	02f52223          	sw	a5,36(a0)
     5d0:	00e52423          	sw	a4,8(a0)
     5d4:	02d04a63          	bgtz	a3,608 <drop_stats+0x68>
     5d8:	00005537          	lui	a0,0x5
     5dc:	2b450513          	addi	a0,a0,692 # 52b4 <CSWTCH.15+0x298>
     5e0:	3d0040ef          	jal	49b0 <print>
     5e4:	0000006f          	j	5e4 <drop_stats+0x44>
     5e8:	02452783          	lw	a5,36(a0)
     5ec:	00852703          	lw	a4,8(a0)
     5f0:	06300693          	li	a3,99
     5f4:	fff78793          	addi	a5,a5,-1
     5f8:	fff70713          	addi	a4,a4,-1
     5fc:	00d52623          	sw	a3,12(a0)
     600:	02f52223          	sw	a5,36(a0)
     604:	00e52423          	sw	a4,8(a0)
     608:	02f05263          	blez	a5,62c <drop_stats+0x8c>
     60c:	02e05863          	blez	a4,63c <drop_stats+0x9c>
     610:	00c12083          	lw	ra,12(sp)
     614:	01010113          	addi	sp,sp,16
     618:	00008067          	ret
     61c:	00c52683          	lw	a3,12(a0)
     620:	fff68693          	addi	a3,a3,-1
     624:	00d52623          	sw	a3,12(a0)
     628:	f95ff06f          	j	5bc <drop_stats+0x1c>
     62c:	00005537          	lui	a0,0x5
     630:	2dc50513          	addi	a0,a0,732 # 52dc <CSWTCH.15+0x2c0>
     634:	37c040ef          	jal	49b0 <print>
     638:	0000006f          	j	638 <drop_stats+0x98>
     63c:	00005537          	lui	a0,0x5
     640:	30450513          	addi	a0,a0,772 # 5304 <CSWTCH.15+0x2e8>
     644:	36c040ef          	jal	49b0 <print>
     648:	0000006f          	j	648 <drop_stats+0xa8>

0000064c <print_hold>:
     64c:	ff010113          	addi	sp,sp,-16
     650:	00112623          	sw	ra,12(sp)
     654:	35c040ef          	jal	49b0 <print>
     658:	00400693          	li	a3,4
     65c:	00005737          	lui	a4,0x5
     660:	f5072783          	lw	a5,-176(a4) # 4f50 <timer_event>
     664:	fe078ee3          	beqz	a5,660 <print_hold+0x14>
     668:	f4072823          	sw	zero,-176(a4)
     66c:	fff68693          	addi	a3,a3,-1
     670:	fe0698e3          	bnez	a3,660 <print_hold+0x14>
     674:	00c12083          	lw	ra,12(sp)
     678:	01010113          	addi	sp,sp,16
     67c:	00008067          	ret

00000680 <update_display>:
     680:	000057b7          	lui	a5,0x5
     684:	f447a783          	lw	a5,-188(a5) # 4f44 <current_display>
     688:	ff010113          	addi	sp,sp,-16
     68c:	00812423          	sw	s0,8(sp)
     690:	00912223          	sw	s1,4(sp)
     694:	01212023          	sw	s2,0(sp)
     698:	00112623          	sw	ra,12(sp)
     69c:	00852403          	lw	s0,8(a0)
     6a0:	00c52903          	lw	s2,12(a0)
     6a4:	02452483          	lw	s1,36(a0)
     6a8:	02078663          	beqz	a5,6d4 <update_display+0x54>
     6ac:	00100713          	li	a4,1
     6b0:	08e78263          	beq	a5,a4,734 <update_display+0xb4>
     6b4:	00200713          	li	a4,2
     6b8:	0ce78263          	beq	a5,a4,77c <update_display+0xfc>
     6bc:	00c12083          	lw	ra,12(sp)
     6c0:	00812403          	lw	s0,8(sp)
     6c4:	00412483          	lw	s1,4(sp)
     6c8:	00012903          	lw	s2,0(sp)
     6cc:	01010113          	addi	sp,sp,16
     6d0:	00008067          	ret
     6d4:	00a00593          	li	a1,10
     6d8:	00500513          	li	a0,5
     6dc:	43c030ef          	jal	3b18 <set_displays>
     6e0:	00b00593          	li	a1,11
     6e4:	00400513          	li	a0,4
     6e8:	430030ef          	jal	3b18 <set_displays>
     6ec:	00b00593          	li	a1,11
     6f0:	00300513          	li	a0,3
     6f4:	424030ef          	jal	3b18 <set_displays>
     6f8:	00c00593          	li	a1,12
     6fc:	00200513          	li	a0,2
     700:	418030ef          	jal	3b18 <set_displays>
     704:	00a00493          	li	s1,10
     708:	029445b3          	div	a1,s0,s1
     70c:	00100513          	li	a0,1
     710:	408030ef          	jal	3b18 <set_displays>
     714:	029465b3          	rem	a1,s0,s1
     718:	00812403          	lw	s0,8(sp)
     71c:	00c12083          	lw	ra,12(sp)
     720:	00412483          	lw	s1,4(sp)
     724:	00012903          	lw	s2,0(sp)
     728:	00000513          	li	a0,0
     72c:	01010113          	addi	sp,sp,16
     730:	3e80306f          	j	3b18 <set_displays>
     734:	00d00593          	li	a1,13
     738:	00500513          	li	a0,5
     73c:	3dc030ef          	jal	3b18 <set_displays>
     740:	00200593          	li	a1,2
     744:	00400513          	li	a0,4
     748:	3d0030ef          	jal	3b18 <set_displays>
     74c:	00000593          	li	a1,0
     750:	00300513          	li	a0,3
     754:	3c4030ef          	jal	3b18 <set_displays>
     758:	06400593          	li	a1,100
     75c:	00200513          	li	a0,2
     760:	3b8030ef          	jal	3b18 <set_displays>
     764:	00a00413          	li	s0,10
     768:	0284c5b3          	div	a1,s1,s0
     76c:	00100513          	li	a0,1
     770:	3a8030ef          	jal	3b18 <set_displays>
     774:	0284e5b3          	rem	a1,s1,s0
     778:	fa1ff06f          	j	718 <update_display+0x98>
     77c:	00000593          	li	a1,0
     780:	00500513          	li	a0,5
     784:	394030ef          	jal	3b18 <set_displays>
     788:	00200593          	li	a1,2
     78c:	00400513          	li	a0,4
     790:	388030ef          	jal	3b18 <set_displays>
     794:	06400593          	li	a1,100
     798:	00300513          	li	a0,3
     79c:	37c030ef          	jal	3b18 <set_displays>
     7a0:	06400593          	li	a1,100
     7a4:	00200513          	li	a0,2
     7a8:	370030ef          	jal	3b18 <set_displays>
     7ac:	00a00413          	li	s0,10
     7b0:	028945b3          	div	a1,s2,s0
     7b4:	00100513          	li	a0,1
     7b8:	360030ef          	jal	3b18 <set_displays>
     7bc:	028965b3          	rem	a1,s2,s0
     7c0:	f59ff06f          	j	718 <update_display+0x98>

000007c4 <update_status>:
     7c4:	6805a703          	lw	a4,1664(a1)
     7c8:	6745a883          	lw	a7,1652(a1)
     7cc:	6785a803          	lw	a6,1656(a1)
     7d0:	67c5a603          	lw	a2,1660(a1)
     7d4:	6845a783          	lw	a5,1668(a1)
     7d8:	7dc5a683          	lw	a3,2012(a1)
     7dc:	fd010113          	addi	sp,sp,-48
     7e0:	02e12023          	sw	a4,32(sp)
     7e4:	01112a23          	sw	a7,20(sp)
     7e8:	01012c23          	sw	a6,24(sp)
     7ec:	00c12e23          	sw	a2,28(sp)
     7f0:	02f12223          	sw	a5,36(sp)
     7f4:	00900713          	li	a4,9
     7f8:	0ee69c63          	bne	a3,a4,8f0 <__heap_size+0xf0>
     7fc:	00050793          	mv	a5,a0
     800:	01052503          	lw	a0,16(a0)
     804:	0147a703          	lw	a4,20(a5)
     808:	00600693          	li	a3,6
     80c:	ff650513          	addi	a0,a0,-10
     810:	00a6b533          	sltu	a0,a3,a0
     814:	40a00533          	neg	a0,a0
     818:	ffe57513          	andi	a0,a0,-2
     81c:	ff670713          	addi	a4,a4,-10
     820:	00350513          	addi	a0,a0,3
     824:	00e6e663          	bltu	a3,a4,830 <__heap_size+0x30>
     828:	00151513          	slli	a0,a0,0x1
     82c:	00150513          	addi	a0,a0,1
     830:	0187a703          	lw	a4,24(a5)
     834:	00600693          	li	a3,6
     838:	ff670713          	addi	a4,a4,-10
     83c:	00e6e663          	bltu	a3,a4,848 <__heap_size+0x48>
     840:	00151513          	slli	a0,a0,0x1
     844:	00150513          	addi	a0,a0,1
     848:	01c7a703          	lw	a4,28(a5)
     84c:	00600693          	li	a3,6
     850:	ff670713          	addi	a4,a4,-10
     854:	00e6e663          	bltu	a3,a4,860 <__heap_size+0x60>
     858:	00151513          	slli	a0,a0,0x1
     85c:	00150513          	addi	a0,a0,1
     860:	0207a783          	lw	a5,32(a5)
     864:	00600713          	li	a4,6
     868:	ff678793          	addi	a5,a5,-10
     86c:	00f76663          	bltu	a4,a5,878 <__heap_size+0x78>
     870:	00151513          	slli	a0,a0,0x1
     874:	00150513          	addi	a0,a0,1
     878:	01412783          	lw	a5,20(sp)
     87c:	00600713          	li	a4,6
     880:	ff678793          	addi	a5,a5,-10
     884:	06f77a63          	bgeu	a4,a5,8f8 <__heap_size+0xf8>
     888:	01812783          	lw	a5,24(sp)
     88c:	00600713          	li	a4,6
     890:	ff678793          	addi	a5,a5,-10
     894:	00f76663          	bltu	a4,a5,8a0 <__heap_size+0xa0>
     898:	00151513          	slli	a0,a0,0x1
     89c:	00150513          	addi	a0,a0,1
     8a0:	01c12783          	lw	a5,28(sp)
     8a4:	00600713          	li	a4,6
     8a8:	ff678793          	addi	a5,a5,-10
     8ac:	00f76663          	bltu	a4,a5,8b8 <__heap_size+0xb8>
     8b0:	00151513          	slli	a0,a0,0x1
     8b4:	00150513          	addi	a0,a0,1
     8b8:	02012783          	lw	a5,32(sp)
     8bc:	00600713          	li	a4,6
     8c0:	ff678793          	addi	a5,a5,-10
     8c4:	00f76663          	bltu	a4,a5,8d0 <__heap_size+0xd0>
     8c8:	00151513          	slli	a0,a0,0x1
     8cc:	00150513          	addi	a0,a0,1
     8d0:	02412783          	lw	a5,36(sp)
     8d4:	00600713          	li	a4,6
     8d8:	ff678793          	addi	a5,a5,-10
     8dc:	00f76663          	bltu	a4,a5,8e8 <__heap_size+0xe8>
     8e0:	00151513          	slli	a0,a0,0x1
     8e4:	00150513          	addi	a0,a0,1
     8e8:	03010113          	addi	sp,sp,48
     8ec:	2a40306f          	j	3b90 <set_leds>
     8f0:	03010113          	addi	sp,sp,48
     8f4:	00008067          	ret
     8f8:	00151513          	slli	a0,a0,0x1
     8fc:	00150513          	addi	a0,a0,1
     900:	f89ff06f          	j	888 <__heap_size+0x88>

00000904 <display_frame>:
     904:	ab010113          	addi	sp,sp,-1360
     908:	54912223          	sw	s1,1348(sp)
     90c:	00050493          	mv	s1,a0
     910:	00005537          	lui	a0,0x5
     914:	3f050513          	addi	a0,a0,1008 # 53f0 <CSWTCH.15+0x3d4>
     918:	54112623          	sw	ra,1356(sp)
     91c:	54812423          	sw	s0,1352(sp)
     920:	55212023          	sw	s2,1344(sp)
     924:	00058413          	mv	s0,a1
     928:	0085a903          	lw	s2,8(a1)
     92c:	53312e23          	sw	s3,1340(sp)
     930:	53412c23          	sw	s4,1336(sp)
     934:	53912223          	sw	s9,1316(sp)
     938:	53a12023          	sw	s10,1312(sp)
     93c:	0004aa03          	lw	s4,0(s1)
     940:	00060d13          	mv	s10,a2
     944:	0044ac83          	lw	s9,4(s1)
     948:	53512a23          	sw	s5,1332(sp)
     94c:	53612823          	sw	s6,1328(sp)
     950:	53712623          	sw	s7,1324(sp)
     954:	53812423          	sw	s8,1320(sp)
     958:	51b12e23          	sw	s11,1308(sp)
     95c:	054040ef          	jal	49b0 <print>
     960:	00005537          	lui	a0,0x5
     964:	3f850513          	addi	a0,a0,1016 # 53f8 <CSWTCH.15+0x3dc>
     968:	048040ef          	jal	49b0 <print>
     96c:	000059b7          	lui	s3,0x5
     970:	3fc98513          	addi	a0,s3,1020 # 53fc <CSWTCH.15+0x3e0>
     974:	03c040ef          	jal	49b0 <print>
     978:	00005537          	lui	a0,0x5
     97c:	43450513          	addi	a0,a0,1076 # 5434 <CSWTCH.15+0x418>
     980:	030040ef          	jal	49b0 <print>
     984:	3fc98513          	addi	a0,s3,1020
     988:	028040ef          	jal	49b0 <print>
     98c:	000057b7          	lui	a5,0x5
     990:	00010823          	sb	zero,16(sp)
     994:	32c78793          	addi	a5,a5,812 # 532c <CSWTCH.15+0x310>
     998:	01010713          	addi	a4,sp,16
     99c:	07c00693          	li	a3,124
     9a0:	00178793          	addi	a5,a5,1
     9a4:	00d70023          	sb	a3,0(a4)
     9a8:	0007c683          	lbu	a3,0(a5)
     9ac:	00170713          	addi	a4,a4,1
     9b0:	fe0698e3          	bnez	a3,9a0 <display_frame+0x9c>
     9b4:	00070023          	sb	zero,0(a4)
     9b8:	160a00e3          	beqz	s4,1318 <display_frame+0xa14>
     9bc:	120a4ae3          	bltz	s4,12f0 <display_frame+0x9ec>
     9c0:	00a00793          	li	a5,10
     9c4:	02fa6733          	rem	a4,s4,a5
     9c8:	00000693          	li	a3,0
     9cc:	02fa47b3          	div	a5,s4,a5
     9d0:	03070713          	addi	a4,a4,48
     9d4:	0ff77713          	zext.b	a4,a4
     9d8:	10e10823          	sb	a4,272(sp)
     9dc:	380786e3          	beqz	a5,1568 <display_frame+0xc64>
     9e0:	00a00713          	li	a4,10
     9e4:	02e7e633          	rem	a2,a5,a4
     9e8:	02e7c7b3          	div	a5,a5,a4
     9ec:	03060613          	addi	a2,a2,48
     9f0:	0ff67613          	zext.b	a2,a2
     9f4:	10c108a3          	sb	a2,273(sp)
     9f8:	2a0780e3          	beqz	a5,1498 <display_frame+0xb94>
     9fc:	02e7e633          	rem	a2,a5,a4
     a00:	02e7c7b3          	div	a5,a5,a4
     a04:	03060613          	addi	a2,a2,48
     a08:	0ff67613          	zext.b	a2,a2
     a0c:	10c10923          	sb	a2,274(sp)
     a10:	26078ce3          	beqz	a5,1488 <display_frame+0xb84>
     a14:	02e7e633          	rem	a2,a5,a4
     a18:	02e7c7b3          	div	a5,a5,a4
     a1c:	03060613          	addi	a2,a2,48
     a20:	0ff67613          	zext.b	a2,a2
     a24:	10c109a3          	sb	a2,275(sp)
     a28:	2e0784e3          	beqz	a5,1510 <display_frame+0xc0c>
     a2c:	02e7e633          	rem	a2,a5,a4
     a30:	02e7c7b3          	div	a5,a5,a4
     a34:	03060613          	addi	a2,a2,48
     a38:	0ff67613          	zext.b	a2,a2
     a3c:	10c10a23          	sb	a2,276(sp)
     a40:	540786e3          	beqz	a5,178c <display_frame+0xe88>
     a44:	02e7e633          	rem	a2,a5,a4
     a48:	02e7c7b3          	div	a5,a5,a4
     a4c:	03060613          	addi	a2,a2,48
     a50:	0ff67613          	zext.b	a2,a2
     a54:	10c10aa3          	sb	a2,277(sp)
     a58:	50078ae3          	beqz	a5,176c <display_frame+0xe68>
     a5c:	02e7e633          	rem	a2,a5,a4
     a60:	02e7c7b3          	div	a5,a5,a4
     a64:	03060613          	addi	a2,a2,48
     a68:	0ff67613          	zext.b	a2,a2
     a6c:	10c10b23          	sb	a2,278(sp)
     a70:	4c078ee3          	beqz	a5,174c <display_frame+0xe48>
     a74:	02e7e633          	rem	a2,a5,a4
     a78:	02e7c7b3          	div	a5,a5,a4
     a7c:	03060613          	addi	a2,a2,48
     a80:	0ff67613          	zext.b	a2,a2
     a84:	10c10ba3          	sb	a2,279(sp)
     a88:	400784e3          	beqz	a5,1690 <display_frame+0xd8c>
     a8c:	02e7e633          	rem	a2,a5,a4
     a90:	02e7c7b3          	div	a5,a5,a4
     a94:	03060713          	addi	a4,a2,48
     a98:	0ff77713          	zext.b	a4,a4
     a9c:	10e10c23          	sb	a4,280(sp)
     aa0:	400788e3          	beqz	a5,16b0 <display_frame+0xdac>
     aa4:	03078793          	addi	a5,a5,48
     aa8:	0ff7f793          	zext.b	a5,a5
     aac:	10f10ca3          	sb	a5,281(sp)
     ab0:	1e068ce3          	beqz	a3,14a8 <display_frame+0xba4>
     ab4:	00a00713          	li	a4,10
     ab8:	00900793          	li	a5,9
     abc:	51070713          	addi	a4,a4,1296
     ac0:	00270733          	add	a4,a4,sp
     ac4:	02d00693          	li	a3,45
     ac8:	c0d70023          	sb	a3,-1024(a4)
     acc:	51078713          	addi	a4,a5,1296
     ad0:	00270733          	add	a4,a4,sp
     ad4:	c0174603          	lbu	a2,-1023(a4)
     ad8:	c0074683          	lbu	a3,-1024(a4)
     adc:	00278713          	addi	a4,a5,2
     ae0:	00c10223          	sb	a2,4(sp)
     ae4:	00d102a3          	sb	a3,5(sp)
     ae8:	28078ce3          	beqz	a5,1580 <display_frame+0xc7c>
     aec:	50f78693          	addi	a3,a5,1295
     af0:	002686b3          	add	a3,a3,sp
     af4:	c006c683          	lbu	a3,-1024(a3)
     af8:	fff78793          	addi	a5,a5,-1
     afc:	00d10323          	sb	a3,6(sp)
     b00:	240788e3          	beqz	a5,1550 <display_frame+0xc4c>
     b04:	50c70693          	addi	a3,a4,1292
     b08:	002686b3          	add	a3,a3,sp
     b0c:	c006c683          	lbu	a3,-1024(a3)
     b10:	ffc70793          	addi	a5,a4,-4
     b14:	00d103a3          	sb	a3,7(sp)
     b18:	1c0784e3          	beqz	a5,14e0 <display_frame+0xbdc>
     b1c:	50b70693          	addi	a3,a4,1291
     b20:	002686b3          	add	a3,a3,sp
     b24:	c006c683          	lbu	a3,-1024(a3)
     b28:	ffb70793          	addi	a5,a4,-5
     b2c:	00d10423          	sb	a3,8(sp)
     b30:	340780e3          	beqz	a5,1670 <display_frame+0xd6c>
     b34:	50a70693          	addi	a3,a4,1290
     b38:	002686b3          	add	a3,a3,sp
     b3c:	c006c683          	lbu	a3,-1024(a3)
     b40:	ffa70793          	addi	a5,a4,-6
     b44:	00d104a3          	sb	a3,9(sp)
     b48:	320788e3          	beqz	a5,1678 <display_frame+0xd74>
     b4c:	50970693          	addi	a3,a4,1289
     b50:	002686b3          	add	a3,a3,sp
     b54:	c006c683          	lbu	a3,-1024(a3)
     b58:	ff970793          	addi	a5,a4,-7
     b5c:	00d10523          	sb	a3,10(sp)
     b60:	320780e3          	beqz	a5,1680 <display_frame+0xd7c>
     b64:	50870693          	addi	a3,a4,1288
     b68:	002686b3          	add	a3,a3,sp
     b6c:	c006c683          	lbu	a3,-1024(a3)
     b70:	ff870793          	addi	a5,a4,-8
     b74:	00d105a3          	sb	a3,11(sp)
     b78:	300788e3          	beqz	a5,1688 <display_frame+0xd84>
     b7c:	50770693          	addi	a3,a4,1287
     b80:	002686b3          	add	a3,a3,sp
     b84:	c006c683          	lbu	a3,-1024(a3)
     b88:	ff770793          	addi	a5,a4,-9
     b8c:	00d10623          	sb	a3,12(sp)
     b90:	2c078ce3          	beqz	a5,1668 <display_frame+0xd64>
     b94:	50670793          	addi	a5,a4,1286
     b98:	002787b3          	add	a5,a5,sp
     b9c:	c007c783          	lbu	a5,-1024(a5)
     ba0:	ff670713          	addi	a4,a4,-10
     ba4:	00f106a3          	sb	a5,13(sp)
     ba8:	320704e3          	beqz	a4,16d0 <display_frame+0xdcc>
     bac:	11014703          	lbu	a4,272(sp)
     bb0:	00b00793          	li	a5,11
     bb4:	00e10723          	sb	a4,14(sp)
     bb8:	51078793          	addi	a5,a5,1296
     bbc:	01014683          	lbu	a3,16(sp)
     bc0:	002787b3          	add	a5,a5,sp
     bc4:	ae078a23          	sb	zero,-1292(a5)
     bc8:	00414703          	lbu	a4,4(sp)
     bcc:	74069e63          	bnez	a3,1328 <display_frame+0xa24>
     bd0:	01010793          	addi	a5,sp,16
     bd4:	00070e63          	beqz	a4,bf0 <display_frame+0x2ec>
     bd8:	00410693          	addi	a3,sp,4
     bdc:	00168693          	addi	a3,a3,1
     be0:	00e78023          	sb	a4,0(a5)
     be4:	0006c703          	lbu	a4,0(a3)
     be8:	00178793          	addi	a5,a5,1
     bec:	fe0718e3          	bnez	a4,bdc <display_frame+0x2d8>
     bf0:	00078023          	sb	zero,0(a5)
     bf4:	01014783          	lbu	a5,16(sp)
     bf8:	080784e3          	beqz	a5,1480 <display_frame+0xb7c>
     bfc:	01010793          	addi	a5,sp,16
     c00:	0017c703          	lbu	a4,1(a5)
     c04:	00178793          	addi	a5,a5,1
     c08:	fe071ce3          	bnez	a4,c00 <display_frame+0x2fc>
     c0c:	00005737          	lui	a4,0x5
     c10:	33c70713          	addi	a4,a4,828 # 533c <CSWTCH.15+0x320>
     c14:	02c00693          	li	a3,44
     c18:	00170713          	addi	a4,a4,1
     c1c:	00d78023          	sb	a3,0(a5)
     c20:	00074683          	lbu	a3,0(a4)
     c24:	00178793          	addi	a5,a5,1
     c28:	fe0698e3          	bnez	a3,c18 <display_frame+0x314>
     c2c:	00078023          	sb	zero,0(a5)
     c30:	700c8863          	beqz	s9,1340 <display_frame+0xa3c>
     c34:	7e0cc263          	bltz	s9,1418 <display_frame+0xb14>
     c38:	00a00793          	li	a5,10
     c3c:	02fce733          	rem	a4,s9,a5
     c40:	00000693          	li	a3,0
     c44:	02fcc7b3          	div	a5,s9,a5
     c48:	03070713          	addi	a4,a4,48
     c4c:	0ff77713          	zext.b	a4,a4
     c50:	10e10823          	sb	a4,272(sp)
     c54:	2a0782e3          	beqz	a5,16f8 <display_frame+0xdf4>
     c58:	00a00713          	li	a4,10
     c5c:	02e7e633          	rem	a2,a5,a4
     c60:	02e7c7b3          	div	a5,a5,a4
     c64:	03060613          	addi	a2,a2,48
     c68:	0ff67613          	zext.b	a2,a2
     c6c:	10c108a3          	sb	a2,273(sp)
     c70:	000780e3          	beqz	a5,1470 <display_frame+0xb6c>
     c74:	02e7e633          	rem	a2,a5,a4
     c78:	02e7c7b3          	div	a5,a5,a4
     c7c:	03060613          	addi	a2,a2,48
     c80:	0ff67613          	zext.b	a2,a2
     c84:	10c10923          	sb	a2,274(sp)
     c88:	7c078c63          	beqz	a5,1460 <display_frame+0xb5c>
     c8c:	02e7e633          	rem	a2,a5,a4
     c90:	02e7c7b3          	div	a5,a5,a4
     c94:	03060613          	addi	a2,a2,48
     c98:	0ff67613          	zext.b	a2,a2
     c9c:	10c109a3          	sb	a2,275(sp)
     ca0:	040784e3          	beqz	a5,14e8 <display_frame+0xbe4>
     ca4:	02e7e633          	rem	a2,a5,a4
     ca8:	02e7c7b3          	div	a5,a5,a4
     cac:	03060613          	addi	a2,a2,48
     cb0:	0ff67613          	zext.b	a2,a2
     cb4:	10c10a23          	sb	a2,276(sp)
     cb8:	24078ae3          	beqz	a5,170c <display_frame+0xe08>
     cbc:	02e7e633          	rem	a2,a5,a4
     cc0:	02e7c7b3          	div	a5,a5,a4
     cc4:	03060613          	addi	a2,a2,48
     cc8:	0ff67613          	zext.b	a2,a2
     ccc:	10c10aa3          	sb	a2,277(sp)
     cd0:	24078ee3          	beqz	a5,172c <display_frame+0xe28>
     cd4:	02e7e633          	rem	a2,a5,a4
     cd8:	02e7c7b3          	div	a5,a5,a4
     cdc:	03060613          	addi	a2,a2,48
     ce0:	0ff67613          	zext.b	a2,a2
     ce4:	10c10b23          	sb	a2,278(sp)
     ce8:	0c078ce3          	beqz	a5,15c0 <display_frame+0xcbc>
     cec:	02e7e633          	rem	a2,a5,a4
     cf0:	02e7c7b3          	div	a5,a5,a4
     cf4:	03060613          	addi	a2,a2,48
     cf8:	0ff67613          	zext.b	a2,a2
     cfc:	10c10ba3          	sb	a2,279(sp)
     d00:	0e0780e3          	beqz	a5,15e0 <display_frame+0xcdc>
     d04:	02e7e633          	rem	a2,a5,a4
     d08:	02e7c7b3          	div	a5,a5,a4
     d0c:	03060713          	addi	a4,a2,48
     d10:	0ff77713          	zext.b	a4,a4
     d14:	10e10c23          	sb	a4,280(sp)
     d18:	0e0784e3          	beqz	a5,1600 <display_frame+0xcfc>
     d1c:	03078793          	addi	a5,a5,48
     d20:	0ff7f793          	zext.b	a5,a5
     d24:	10f10ca3          	sb	a5,281(sp)
     d28:	78068e63          	beqz	a3,14c4 <display_frame+0xbc0>
     d2c:	00a00713          	li	a4,10
     d30:	00900793          	li	a5,9
     d34:	51070713          	addi	a4,a4,1296
     d38:	00270733          	add	a4,a4,sp
     d3c:	02d00693          	li	a3,45
     d40:	c0d70023          	sb	a3,-1024(a4)
     d44:	51078713          	addi	a4,a5,1296
     d48:	00270733          	add	a4,a4,sp
     d4c:	c0174603          	lbu	a2,-1023(a4)
     d50:	c0074683          	lbu	a3,-1024(a4)
     d54:	00278713          	addi	a4,a5,2
     d58:	00c10223          	sb	a2,4(sp)
     d5c:	00d102a3          	sb	a3,5(sp)
     d60:	02078ee3          	beqz	a5,159c <display_frame+0xc98>
     d64:	50f78693          	addi	a3,a5,1295
     d68:	002686b3          	add	a3,a3,sp
     d6c:	c006c683          	lbu	a3,-1024(a3)
     d70:	fff78793          	addi	a5,a5,-1
     d74:	00d10323          	sb	a3,6(sp)
     d78:	040780e3          	beqz	a5,15b8 <display_frame+0xcb4>
     d7c:	50c70693          	addi	a3,a4,1292
     d80:	002686b3          	add	a3,a3,sp
     d84:	c006c683          	lbu	a3,-1024(a3)
     d88:	ffc70793          	addi	a5,a4,-4
     d8c:	00d103a3          	sb	a3,7(sp)
     d90:	76078c63          	beqz	a5,1508 <display_frame+0xc04>
     d94:	50b70693          	addi	a3,a4,1291
     d98:	002686b3          	add	a3,a3,sp
     d9c:	c006c683          	lbu	a3,-1024(a3)
     da0:	ffb70793          	addi	a5,a4,-5
     da4:	00d10423          	sb	a3,8(sp)
     da8:	14078ee3          	beqz	a5,1704 <display_frame+0xe00>
     dac:	50a70693          	addi	a3,a4,1290
     db0:	002686b3          	add	a3,a3,sp
     db4:	c006c683          	lbu	a3,-1024(a3)
     db8:	ffa70793          	addi	a5,a4,-6
     dbc:	00d104a3          	sb	a3,9(sp)
     dc0:	08078ae3          	beqz	a5,1654 <display_frame+0xd50>
     dc4:	50970693          	addi	a3,a4,1289
     dc8:	002686b3          	add	a3,a3,sp
     dcc:	c006c683          	lbu	a3,-1024(a3)
     dd0:	ff970793          	addi	a5,a4,-7
     dd4:	00d10523          	sb	a3,10(sp)
     dd8:	060786e3          	beqz	a5,1644 <display_frame+0xd40>
     ddc:	50870693          	addi	a3,a4,1288
     de0:	002686b3          	add	a3,a3,sp
     de4:	c006c683          	lbu	a3,-1024(a3)
     de8:	ff870793          	addi	a5,a4,-8
     dec:	00d105a3          	sb	a3,11(sp)
     df0:	04078ee3          	beqz	a5,164c <display_frame+0xd48>
     df4:	50770693          	addi	a3,a4,1287
     df8:	002686b3          	add	a3,a3,sp
     dfc:	c006c683          	lbu	a3,-1024(a3)
     e00:	ff770793          	addi	a5,a4,-9
     e04:	00d10623          	sb	a3,12(sp)
     e08:	78078063          	beqz	a5,1588 <display_frame+0xc84>
     e0c:	50670793          	addi	a5,a4,1286
     e10:	002787b3          	add	a5,a5,sp
     e14:	c007c783          	lbu	a5,-1024(a5)
     e18:	ff670713          	addi	a4,a4,-10
     e1c:	00f106a3          	sb	a5,13(sp)
     e20:	74070063          	beqz	a4,1560 <display_frame+0xc5c>
     e24:	11014703          	lbu	a4,272(sp)
     e28:	00b00793          	li	a5,11
     e2c:	00e10723          	sb	a4,14(sp)
     e30:	51078793          	addi	a5,a5,1296
     e34:	01014683          	lbu	a3,16(sp)
     e38:	002787b3          	add	a5,a5,sp
     e3c:	ae078a23          	sb	zero,-1292(a5)
     e40:	00414703          	lbu	a4,4(sp)
     e44:	50069663          	bnez	a3,1350 <display_frame+0xa4c>
     e48:	01010793          	addi	a5,sp,16
     e4c:	00070e63          	beqz	a4,e68 <display_frame+0x564>
     e50:	00410693          	addi	a3,sp,4
     e54:	00168693          	addi	a3,a3,1
     e58:	00e78023          	sb	a4,0(a5)
     e5c:	0006c703          	lbu	a4,0(a3)
     e60:	00178793          	addi	a5,a5,1
     e64:	fe0718e3          	bnez	a4,e54 <display_frame+0x550>
     e68:	00078023          	sb	zero,0(a5)
     e6c:	01014783          	lbu	a5,16(sp)
     e70:	5e078463          	beqz	a5,1458 <display_frame+0xb54>
     e74:	01010793          	addi	a5,sp,16
     e78:	0017c703          	lbu	a4,1(a5)
     e7c:	00178793          	addi	a5,a5,1
     e80:	fe071ce3          	bnez	a4,e78 <display_frame+0x574>
     e84:	00005737          	lui	a4,0x5
     e88:	34070713          	addi	a4,a4,832 # 5340 <CSWTCH.15+0x324>
     e8c:	02900693          	li	a3,41
     e90:	00170713          	addi	a4,a4,1
     e94:	00d78023          	sb	a3,0(a5)
     e98:	00074683          	lbu	a3,0(a4)
     e9c:	00178793          	addi	a5,a5,1
     ea0:	fe0698e3          	bnez	a3,e90 <display_frame+0x58c>
     ea4:	00078023          	sb	zero,0(a5)
     ea8:	01010513          	addi	a0,sp,16
     eac:	305030ef          	jal	49b0 <print>
     eb0:	000057b7          	lui	a5,0x5
     eb4:	00010823          	sb	zero,16(sp)
     eb8:	36478793          	addi	a5,a5,868 # 5364 <CSWTCH.15+0x348>
     ebc:	01010713          	addi	a4,sp,16
     ec0:	07c00693          	li	a3,124
     ec4:	00178793          	addi	a5,a5,1
     ec8:	00d70023          	sb	a3,0(a4)
     ecc:	0007c683          	lbu	a3,0(a5)
     ed0:	00170713          	addi	a4,a4,1
     ed4:	fe0698e3          	bnez	a3,ec4 <display_frame+0x5c0>
     ed8:	00042683          	lw	a3,0(s0)
     edc:	00070023          	sb	zero,0(a4)
     ee0:	000057b7          	lui	a5,0x5
     ee4:	01014603          	lbu	a2,16(sp)
     ee8:	00269713          	slli	a4,a3,0x2
     eec:	eec78793          	addi	a5,a5,-276 # 4eec <TILETYPE_NAMES>
     ef0:	00e787b3          	add	a5,a5,a4
     ef4:	0007a683          	lw	a3,0(a5)
     ef8:	01010793          	addi	a5,sp,16
     efc:	00060863          	beqz	a2,f0c <display_frame+0x608>
     f00:	0017c703          	lbu	a4,1(a5)
     f04:	00178793          	addi	a5,a5,1
     f08:	fe071ce3          	bnez	a4,f00 <display_frame+0x5fc>
     f0c:	0006c703          	lbu	a4,0(a3)
     f10:	00070c63          	beqz	a4,f28 <display_frame+0x624>
     f14:	00e78023          	sb	a4,0(a5)
     f18:	0016c703          	lbu	a4,1(a3)
     f1c:	00178793          	addi	a5,a5,1
     f20:	00168693          	addi	a3,a3,1
     f24:	fe0718e3          	bnez	a4,f14 <display_frame+0x610>
     f28:	00078023          	sb	zero,0(a5)
     f2c:	01014783          	lbu	a5,16(sp)
     f30:	52078063          	beqz	a5,1450 <display_frame+0xb4c>
     f34:	01010793          	addi	a5,sp,16
     f38:	0017c703          	lbu	a4,1(a5)
     f3c:	00178793          	addi	a5,a5,1
     f40:	fe071ce3          	bnez	a4,f38 <display_frame+0x634>
     f44:	00005737          	lui	a4,0x5
     f48:	37470713          	addi	a4,a4,884 # 5374 <CSWTCH.15+0x358>
     f4c:	02000693          	li	a3,32
     f50:	00170713          	addi	a4,a4,1
     f54:	00d78023          	sb	a3,0(a5)
     f58:	00074683          	lbu	a3,0(a4)
     f5c:	00178793          	addi	a5,a5,1
     f60:	fe0698e3          	bnez	a3,f50 <display_frame+0x64c>
     f64:	00078023          	sb	zero,0(a5)
     f68:	01010513          	addi	a0,sp,16
     f6c:	245030ef          	jal	49b0 <print>
     f70:	3fc98513          	addi	a0,s3,1020
     f74:	23d030ef          	jal	49b0 <print>
     f78:	00005537          	lui	a0,0x5
     f7c:	46c50513          	addi	a0,a0,1132 # 546c <CSWTCH.15+0x450>
     f80:	00005437          	lui	s0,0x5
     f84:	00005ab7          	lui	s5,0x5
     f88:	229030ef          	jal	49b0 <print>
     f8c:	00000c13          	li	s8,0
     f90:	39c40413          	addi	s0,s0,924 # 539c <CSWTCH.15+0x380>
     f94:	05b00b93          	li	s7,91
     f98:	ea8a8a93          	addi	s5,s5,-344 # 4ea8 <TILETYPE_MAP_NAMES>
     f9c:	00005b37          	lui	s6,0x5
     fa0:	000059b7          	lui	s3,0x5
     fa4:	10010823          	sb	zero,272(sp)
     fa8:	00040693          	mv	a3,s0
     fac:	11010793          	addi	a5,sp,272
     fb0:	07c00713          	li	a4,124
     fb4:	00168693          	addi	a3,a3,1
     fb8:	00e78023          	sb	a4,0(a5)
     fbc:	0006c703          	lbu	a4,0(a3)
     fc0:	00178793          	addi	a5,a5,1
     fc4:	fe0718e3          	bnez	a4,fb4 <display_frame+0x6b0>
     fc8:	00078023          	sb	zero,0(a5)
     fcc:	000d0593          	mv	a1,s10
     fd0:	00000613          	li	a2,0
     fd4:	00a00513          	li	a0,10
     fd8:	11014703          	lbu	a4,272(sp)
     fdc:	11010793          	addi	a5,sp,272
     fe0:	38ca0463          	beq	s4,a2,1368 <display_frame+0xa64>
     fe4:	00070863          	beqz	a4,ff4 <display_frame+0x6f0>
     fe8:	0017c703          	lbu	a4,1(a5)
     fec:	00178793          	addi	a5,a5,1
     ff0:	fe071ce3          	bnez	a4,fe8 <display_frame+0x6e4>
     ff4:	0005a703          	lw	a4,0(a1)
     ff8:	01778023          	sb	s7,0(a5)
     ffc:	000780a3          	sb	zero,1(a5)
    1000:	11014803          	lbu	a6,272(sp)
    1004:	00271793          	slli	a5,a4,0x2
    1008:	00fa87b3          	add	a5,s5,a5
    100c:	0007a683          	lw	a3,0(a5)
    1010:	11010793          	addi	a5,sp,272
    1014:	00080863          	beqz	a6,1024 <display_frame+0x720>
    1018:	0017c703          	lbu	a4,1(a5)
    101c:	00178793          	addi	a5,a5,1
    1020:	fe071ce3          	bnez	a4,1018 <display_frame+0x714>
    1024:	0006c703          	lbu	a4,0(a3)
    1028:	00070c63          	beqz	a4,1040 <display_frame+0x73c>
    102c:	00e78023          	sb	a4,0(a5)
    1030:	0016c703          	lbu	a4,1(a3)
    1034:	00178793          	addi	a5,a5,1
    1038:	00168693          	addi	a3,a3,1
    103c:	fe0718e3          	bnez	a4,102c <display_frame+0x728>
    1040:	00078023          	sb	zero,0(a5)
    1044:	11014783          	lbu	a5,272(sp)
    1048:	36078263          	beqz	a5,13ac <display_frame+0xaa8>
    104c:	11010793          	addi	a5,sp,272
    1050:	0017c703          	lbu	a4,1(a5)
    1054:	00178793          	addi	a5,a5,1
    1058:	fe071ce3          	bnez	a4,1050 <display_frame+0x74c>
    105c:	3acb0693          	addi	a3,s6,940 # 53ac <CSWTCH.15+0x390>
    1060:	05d00713          	li	a4,93
    1064:	00168693          	addi	a3,a3,1
    1068:	00e78023          	sb	a4,0(a5)
    106c:	0006c703          	lbu	a4,0(a3)
    1070:	00178793          	addi	a5,a5,1
    1074:	fe0718e3          	bnez	a4,1064 <display_frame+0x760>
    1078:	00078023          	sb	zero,0(a5)
    107c:	00160613          	addi	a2,a2,1
    1080:	02858593          	addi	a1,a1,40
    1084:	f4a61ae3          	bne	a2,a0,fd8 <display_frame+0x6d4>
    1088:	11014783          	lbu	a5,272(sp)
    108c:	38078263          	beqz	a5,1410 <display_frame+0xb0c>
    1090:	11010793          	addi	a5,sp,272
    1094:	0017c703          	lbu	a4,1(a5)
    1098:	00178793          	addi	a5,a5,1
    109c:	fe071ce3          	bnez	a4,1094 <display_frame+0x790>
    10a0:	00a00d93          	li	s11,10
    10a4:	11010513          	addi	a0,sp,272
    10a8:	01b78023          	sb	s11,0(a5)
    10ac:	000780a3          	sb	zero,1(a5)
    10b0:	001c0c13          	addi	s8,s8,1
    10b4:	0fd030ef          	jal	49b0 <print>
    10b8:	190d0d13          	addi	s10,s10,400
    10bc:	efbc14e3          	bne	s8,s11,fa4 <display_frame+0x6a0>
    10c0:	00005537          	lui	a0,0x5
    10c4:	4a450513          	addi	a0,a0,1188 # 54a4 <CSWTCH.15+0x488>
    10c8:	00005ab7          	lui	s5,0x5
    10cc:	00005a37          	lui	s4,0x5
    10d0:	000059b7          	lui	s3,0x5
    10d4:	00005bb7          	lui	s7,0x5
    10d8:	0d9030ef          	jal	49b0 <print>
    10dc:	01048493          	addi	s1,s1,16
    10e0:	03100c93          	li	s9,49
    10e4:	3b0a8a93          	addi	s5,s5,944 # 53b0 <CSWTCH.15+0x394>
    10e8:	3bca0a13          	addi	s4,s4,956 # 53bc <CSWTCH.15+0x3a0>
    10ec:	3c898993          	addi	s3,s3,968 # 53c8 <CSWTCH.15+0x3ac>
    10f0:	e64b8b93          	addi	s7,s7,-412 # 4e64 <COLLECTIBLE_NAMES>
    10f4:	00005c37          	lui	s8,0x5
    10f8:	03600b13          	li	s6,54
    10fc:	00010823          	sb	zero,16(sp)
    1100:	000a8693          	mv	a3,s5
    1104:	01010793          	addi	a5,sp,16
    1108:	07c00713          	li	a4,124
    110c:	00168693          	addi	a3,a3,1
    1110:	00e78023          	sb	a4,0(a5)
    1114:	0006c703          	lbu	a4,0(a3)
    1118:	00178793          	addi	a5,a5,1
    111c:	fe0718e3          	bnez	a4,110c <display_frame+0x808>
    1120:	00078023          	sb	zero,0(a5)
    1124:	01014783          	lbu	a5,16(sp)
    1128:	01910223          	sb	s9,4(sp)
    112c:	000102a3          	sb	zero,5(sp)
    1130:	28078263          	beqz	a5,13b4 <display_frame+0xab0>
    1134:	01010793          	addi	a5,sp,16
    1138:	0017c703          	lbu	a4,1(a5)
    113c:	00178793          	addi	a5,a5,1
    1140:	fe071ce3          	bnez	a4,1138 <display_frame+0x834>
    1144:	01978023          	sb	s9,0(a5)
    1148:	01014703          	lbu	a4,16(sp)
    114c:	000780a3          	sb	zero,1(a5)
    1150:	01010793          	addi	a5,sp,16
    1154:	00070863          	beqz	a4,1164 <display_frame+0x860>
    1158:	0017c703          	lbu	a4,1(a5)
    115c:	00178793          	addi	a5,a5,1
    1160:	fe071ce3          	bnez	a4,1158 <display_frame+0x854>
    1164:	000a0693          	mv	a3,s4
    1168:	03a00713          	li	a4,58
    116c:	00168693          	addi	a3,a3,1
    1170:	00e78023          	sb	a4,0(a5)
    1174:	0006c703          	lbu	a4,0(a3)
    1178:	00178793          	addi	a5,a5,1
    117c:	fe0718e3          	bnez	a4,116c <display_frame+0x868>
    1180:	0004a703          	lw	a4,0(s1)
    1184:	00078023          	sb	zero,0(a5)
    1188:	22071a63          	bnez	a4,13bc <display_frame+0xab8>
    118c:	01014703          	lbu	a4,16(sp)
    1190:	01010793          	addi	a5,sp,16
    1194:	00070863          	beqz	a4,11a4 <display_frame+0x8a0>
    1198:	0017c703          	lbu	a4,1(a5)
    119c:	00178793          	addi	a5,a5,1
    11a0:	fe071ce3          	bnez	a4,1198 <display_frame+0x894>
    11a4:	3c0c0693          	addi	a3,s8,960 # 53c0 <CSWTCH.15+0x3a4>
    11a8:	04500713          	li	a4,69
    11ac:	00168693          	addi	a3,a3,1
    11b0:	00e78023          	sb	a4,0(a5)
    11b4:	0006c703          	lbu	a4,0(a3)
    11b8:	00178793          	addi	a5,a5,1
    11bc:	fe0718e3          	bnez	a4,11ac <display_frame+0x8a8>
    11c0:	00078023          	sb	zero,0(a5)
    11c4:	01014783          	lbu	a5,16(sp)
    11c8:	24078063          	beqz	a5,1408 <display_frame+0xb04>
    11cc:	01010793          	addi	a5,sp,16
    11d0:	0017c703          	lbu	a4,1(a5)
    11d4:	00178793          	addi	a5,a5,1
    11d8:	fe071ce3          	bnez	a4,11d0 <display_frame+0x8cc>
    11dc:	00098693          	mv	a3,s3
    11e0:	02000713          	li	a4,32
    11e4:	00168693          	addi	a3,a3,1
    11e8:	00e78023          	sb	a4,0(a5)
    11ec:	0006c703          	lbu	a4,0(a3)
    11f0:	00178793          	addi	a5,a5,1
    11f4:	fe0718e3          	bnez	a4,11e4 <display_frame+0x8e0>
    11f8:	001c8c93          	addi	s9,s9,1
    11fc:	01010513          	addi	a0,sp,16
    1200:	00078023          	sb	zero,0(a5)
    1204:	0ffcfc93          	zext.b	s9,s9
    1208:	7a8030ef          	jal	49b0 <print>
    120c:	00448493          	addi	s1,s1,4
    1210:	ef6c96e3          	bne	s9,s6,10fc <display_frame+0x7f8>
    1214:	000054b7          	lui	s1,0x5
    1218:	4dc48513          	addi	a0,s1,1244 # 54dc <CSWTCH.15+0x4c0>
    121c:	794030ef          	jal	49b0 <print>
    1220:	08090663          	beqz	s2,12ac <display_frame+0x9a8>
    1224:	00010823          	sb	zero,16(sp)
    1228:	01010793          	addi	a5,sp,16
    122c:	07c00713          	li	a4,124
    1230:	00140413          	addi	s0,s0,1
    1234:	00e78023          	sb	a4,0(a5)
    1238:	00044703          	lbu	a4,0(s0)
    123c:	00178793          	addi	a5,a5,1
    1240:	fe0718e3          	bnez	a4,1230 <display_frame+0x92c>
    1244:	00078023          	sb	zero,0(a5)
    1248:	01014783          	lbu	a5,16(sp)
    124c:	1e078e63          	beqz	a5,1448 <display_frame+0xb44>
    1250:	01010793          	addi	a5,sp,16
    1254:	0017c703          	lbu	a4,1(a5)
    1258:	00178793          	addi	a5,a5,1
    125c:	fe071ce3          	bnez	a4,1254 <display_frame+0x950>
    1260:	00094703          	lbu	a4,0(s2)
    1264:	00070c63          	beqz	a4,127c <display_frame+0x978>
    1268:	00190913          	addi	s2,s2,1
    126c:	00e78023          	sb	a4,0(a5)
    1270:	00094703          	lbu	a4,0(s2)
    1274:	00178793          	addi	a5,a5,1
    1278:	fe0718e3          	bnez	a4,1268 <display_frame+0x964>
    127c:	00078023          	sb	zero,0(a5)
    1280:	01014783          	lbu	a5,16(sp)
    1284:	1a078e63          	beqz	a5,1440 <display_frame+0xb3c>
    1288:	01010793          	addi	a5,sp,16
    128c:	0017c703          	lbu	a4,1(a5)
    1290:	00178793          	addi	a5,a5,1
    1294:	fe071ce3          	bnez	a4,128c <display_frame+0x988>
    1298:	00a00713          	li	a4,10
    129c:	01010513          	addi	a0,sp,16
    12a0:	00e78023          	sb	a4,0(a5)
    12a4:	000780a3          	sb	zero,1(a5)
    12a8:	708030ef          	jal	49b0 <print>
    12ac:	4dc48513          	addi	a0,s1,1244
    12b0:	700030ef          	jal	49b0 <print>
    12b4:	54c12083          	lw	ra,1356(sp)
    12b8:	54812403          	lw	s0,1352(sp)
    12bc:	54412483          	lw	s1,1348(sp)
    12c0:	54012903          	lw	s2,1344(sp)
    12c4:	53c12983          	lw	s3,1340(sp)
    12c8:	53812a03          	lw	s4,1336(sp)
    12cc:	53412a83          	lw	s5,1332(sp)
    12d0:	53012b03          	lw	s6,1328(sp)
    12d4:	52c12b83          	lw	s7,1324(sp)
    12d8:	52812c03          	lw	s8,1320(sp)
    12dc:	52412c83          	lw	s9,1316(sp)
    12e0:	52012d03          	lw	s10,1312(sp)
    12e4:	51c12d83          	lw	s11,1308(sp)
    12e8:	55010113          	addi	sp,sp,1360
    12ec:	00008067          	ret
    12f0:	414007b3          	neg	a5,s4
    12f4:	00a00613          	li	a2,10
    12f8:	02c7e733          	rem	a4,a5,a2
    12fc:	00100693          	li	a3,1
    1300:	02c7c7b3          	div	a5,a5,a2
    1304:	03070713          	addi	a4,a4,48
    1308:	10e10823          	sb	a4,272(sp)
    130c:	00100713          	li	a4,1
    1310:	ec079863          	bnez	a5,9e0 <display_frame+0xdc>
    1314:	fa8ff06f          	j	abc <display_frame+0x1b8>
    1318:	01014783          	lbu	a5,16(sp)
    131c:	03000713          	li	a4,48
    1320:	00e11223          	sh	a4,4(sp)
    1324:	22078a63          	beqz	a5,1558 <display_frame+0xc54>
    1328:	01010793          	addi	a5,sp,16
    132c:	0017c683          	lbu	a3,1(a5)
    1330:	00178793          	addi	a5,a5,1
    1334:	fe069ce3          	bnez	a3,132c <display_frame+0xa28>
    1338:	8a0710e3          	bnez	a4,bd8 <display_frame+0x2d4>
    133c:	8b5ff06f          	j	bf0 <display_frame+0x2ec>
    1340:	01014783          	lbu	a5,16(sp)
    1344:	03000713          	li	a4,48
    1348:	00e11223          	sh	a4,4(sp)
    134c:	3a078263          	beqz	a5,16f0 <display_frame+0xdec>
    1350:	01010793          	addi	a5,sp,16
    1354:	0017c683          	lbu	a3,1(a5)
    1358:	00178793          	addi	a5,a5,1
    135c:	fe069ce3          	bnez	a3,1354 <display_frame+0xa50>
    1360:	ae0718e3          	bnez	a4,e50 <display_frame+0x54c>
    1364:	b05ff06f          	j	e68 <display_frame+0x564>
    1368:	c78c9ee3          	bne	s9,s8,fe4 <display_frame+0x6e0>
    136c:	00070863          	beqz	a4,137c <display_frame+0xa78>
    1370:	0017c703          	lbu	a4,1(a5)
    1374:	00178793          	addi	a5,a5,1
    1378:	fe071ce3          	bnez	a4,1370 <display_frame+0xa6c>
    137c:	3a098693          	addi	a3,s3,928
    1380:	05b00713          	li	a4,91
    1384:	00168693          	addi	a3,a3,1
    1388:	00e78023          	sb	a4,0(a5)
    138c:	0006c703          	lbu	a4,0(a3)
    1390:	00178793          	addi	a5,a5,1
    1394:	fe0718e3          	bnez	a4,1384 <display_frame+0xa80>
    1398:	00078023          	sb	zero,0(a5)
    139c:	00160613          	addi	a2,a2,1
    13a0:	02858593          	addi	a1,a1,40
    13a4:	c2a61ae3          	bne	a2,a0,fd8 <display_frame+0x6d4>
    13a8:	ce1ff06f          	j	1088 <display_frame+0x784>
    13ac:	11010793          	addi	a5,sp,272
    13b0:	cadff06f          	j	105c <display_frame+0x758>
    13b4:	01010793          	addi	a5,sp,16
    13b8:	d8dff06f          	j	1144 <display_frame+0x840>
    13bc:	01014603          	lbu	a2,16(sp)
    13c0:	00271793          	slli	a5,a4,0x2
    13c4:	00fb87b3          	add	a5,s7,a5
    13c8:	0007a683          	lw	a3,0(a5)
    13cc:	01010793          	addi	a5,sp,16
    13d0:	00060863          	beqz	a2,13e0 <display_frame+0xadc>
    13d4:	0017c703          	lbu	a4,1(a5)
    13d8:	00178793          	addi	a5,a5,1
    13dc:	fe071ce3          	bnez	a4,13d4 <display_frame+0xad0>
    13e0:	0006c703          	lbu	a4,0(a3)
    13e4:	dc070ee3          	beqz	a4,11c0 <display_frame+0x8bc>
    13e8:	00e78023          	sb	a4,0(a5)
    13ec:	0016c703          	lbu	a4,1(a3)
    13f0:	00178793          	addi	a5,a5,1
    13f4:	00168693          	addi	a3,a3,1
    13f8:	fe0718e3          	bnez	a4,13e8 <display_frame+0xae4>
    13fc:	00078023          	sb	zero,0(a5)
    1400:	01014783          	lbu	a5,16(sp)
    1404:	dc0794e3          	bnez	a5,11cc <display_frame+0x8c8>
    1408:	01010793          	addi	a5,sp,16
    140c:	dd1ff06f          	j	11dc <display_frame+0x8d8>
    1410:	11010793          	addi	a5,sp,272
    1414:	c8dff06f          	j	10a0 <display_frame+0x79c>
    1418:	419007b3          	neg	a5,s9
    141c:	00a00613          	li	a2,10
    1420:	02c7e733          	rem	a4,a5,a2
    1424:	00100693          	li	a3,1
    1428:	02c7c7b3          	div	a5,a5,a2
    142c:	03070713          	addi	a4,a4,48
    1430:	10e10823          	sb	a4,272(sp)
    1434:	00100713          	li	a4,1
    1438:	820790e3          	bnez	a5,c58 <display_frame+0x354>
    143c:	8f9ff06f          	j	d34 <display_frame+0x430>
    1440:	01010793          	addi	a5,sp,16
    1444:	e55ff06f          	j	1298 <display_frame+0x994>
    1448:	01010793          	addi	a5,sp,16
    144c:	e15ff06f          	j	1260 <display_frame+0x95c>
    1450:	01010793          	addi	a5,sp,16
    1454:	af1ff06f          	j	f44 <display_frame+0x640>
    1458:	01010793          	addi	a5,sp,16
    145c:	a29ff06f          	j	e84 <display_frame+0x580>
    1460:	14068263          	beqz	a3,15a4 <display_frame+0xca0>
    1464:	00300713          	li	a4,3
    1468:	00200793          	li	a5,2
    146c:	8c9ff06f          	j	d34 <display_frame+0x430>
    1470:	12068063          	beqz	a3,1590 <display_frame+0xc8c>
    1474:	00068793          	mv	a5,a3
    1478:	00200713          	li	a4,2
    147c:	8b9ff06f          	j	d34 <display_frame+0x430>
    1480:	01010793          	addi	a5,sp,16
    1484:	f88ff06f          	j	c0c <display_frame+0x308>
    1488:	0a068a63          	beqz	a3,153c <display_frame+0xc38>
    148c:	00300713          	li	a4,3
    1490:	00200793          	li	a5,2
    1494:	e28ff06f          	j	abc <display_frame+0x1b8>
    1498:	0c068e63          	beqz	a3,1574 <display_frame+0xc70>
    149c:	00068793          	mv	a5,a3
    14a0:	00200713          	li	a4,2
    14a4:	e18ff06f          	j	abc <display_frame+0x1b8>
    14a8:	0ff77693          	zext.b	a3,a4
    14ac:	11714703          	lbu	a4,279(sp)
    14b0:	00f10223          	sb	a5,4(sp)
    14b4:	00d102a3          	sb	a3,5(sp)
    14b8:	00e10323          	sb	a4,6(sp)
    14bc:	00a00713          	li	a4,10
    14c0:	e44ff06f          	j	b04 <display_frame+0x200>
    14c4:	11714703          	lbu	a4,279(sp)
    14c8:	11814683          	lbu	a3,280(sp)
    14cc:	00f10223          	sb	a5,4(sp)
    14d0:	00e10323          	sb	a4,6(sp)
    14d4:	00d102a3          	sb	a3,5(sp)
    14d8:	00a00713          	li	a4,10
    14dc:	8a1ff06f          	j	d7c <display_frame+0x478>
    14e0:	00400793          	li	a5,4
    14e4:	ed4ff06f          	j	bb8 <display_frame+0x2b4>
    14e8:	16069a63          	bnez	a3,165c <display_frame+0xd58>
    14ec:	11214703          	lbu	a4,274(sp)
    14f0:	11114783          	lbu	a5,273(sp)
    14f4:	00c10223          	sb	a2,4(sp)
    14f8:	00e102a3          	sb	a4,5(sp)
    14fc:	00f10323          	sb	a5,6(sp)
    1500:	00400713          	li	a4,4
    1504:	879ff06f          	j	d7c <display_frame+0x478>
    1508:	00400793          	li	a5,4
    150c:	925ff06f          	j	e30 <display_frame+0x52c>
    1510:	02069063          	bnez	a3,1530 <display_frame+0xc2c>
    1514:	11214703          	lbu	a4,274(sp)
    1518:	11114783          	lbu	a5,273(sp)
    151c:	00c10223          	sb	a2,4(sp)
    1520:	00e102a3          	sb	a4,5(sp)
    1524:	00f10323          	sb	a5,6(sp)
    1528:	00400713          	li	a4,4
    152c:	dd8ff06f          	j	b04 <display_frame+0x200>
    1530:	00400713          	li	a4,4
    1534:	00300793          	li	a5,3
    1538:	d84ff06f          	j	abc <display_frame+0x1b8>
    153c:	11114703          	lbu	a4,273(sp)
    1540:	11014783          	lbu	a5,272(sp)
    1544:	00c10223          	sb	a2,4(sp)
    1548:	00e102a3          	sb	a4,5(sp)
    154c:	00f10323          	sb	a5,6(sp)
    1550:	00300793          	li	a5,3
    1554:	e64ff06f          	j	bb8 <display_frame+0x2b4>
    1558:	01010793          	addi	a5,sp,16
    155c:	e7cff06f          	j	bd8 <display_frame+0x2d4>
    1560:	00a00793          	li	a5,10
    1564:	8cdff06f          	j	e30 <display_frame+0x52c>
    1568:	00e10223          	sb	a4,4(sp)
    156c:	00100793          	li	a5,1
    1570:	e48ff06f          	j	bb8 <display_frame+0x2b4>
    1574:	11014783          	lbu	a5,272(sp)
    1578:	00c10223          	sb	a2,4(sp)
    157c:	00f102a3          	sb	a5,5(sp)
    1580:	00200793          	li	a5,2
    1584:	e34ff06f          	j	bb8 <display_frame+0x2b4>
    1588:	00900793          	li	a5,9
    158c:	8a5ff06f          	j	e30 <display_frame+0x52c>
    1590:	11014783          	lbu	a5,272(sp)
    1594:	00c10223          	sb	a2,4(sp)
    1598:	00f102a3          	sb	a5,5(sp)
    159c:	00200793          	li	a5,2
    15a0:	891ff06f          	j	e30 <display_frame+0x52c>
    15a4:	11114703          	lbu	a4,273(sp)
    15a8:	11014783          	lbu	a5,272(sp)
    15ac:	00c10223          	sb	a2,4(sp)
    15b0:	00e102a3          	sb	a4,5(sp)
    15b4:	00f10323          	sb	a5,6(sp)
    15b8:	00300793          	li	a5,3
    15bc:	875ff06f          	j	e30 <display_frame+0x52c>
    15c0:	06069063          	bnez	a3,1620 <display_frame+0xd1c>
    15c4:	11514703          	lbu	a4,277(sp)
    15c8:	11414783          	lbu	a5,276(sp)
    15cc:	00c10223          	sb	a2,4(sp)
    15d0:	00e102a3          	sb	a4,5(sp)
    15d4:	00f10323          	sb	a5,6(sp)
    15d8:	00700713          	li	a4,7
    15dc:	fa0ff06f          	j	d7c <display_frame+0x478>
    15e0:	04069663          	bnez	a3,162c <display_frame+0xd28>
    15e4:	11614703          	lbu	a4,278(sp)
    15e8:	11514783          	lbu	a5,277(sp)
    15ec:	00c10223          	sb	a2,4(sp)
    15f0:	00e102a3          	sb	a4,5(sp)
    15f4:	00f10323          	sb	a5,6(sp)
    15f8:	00800713          	li	a4,8
    15fc:	f80ff06f          	j	d7c <display_frame+0x478>
    1600:	02069c63          	bnez	a3,1638 <display_frame+0xd34>
    1604:	11714683          	lbu	a3,279(sp)
    1608:	11614783          	lbu	a5,278(sp)
    160c:	00e10223          	sb	a4,4(sp)
    1610:	00d102a3          	sb	a3,5(sp)
    1614:	00f10323          	sb	a5,6(sp)
    1618:	00900713          	li	a4,9
    161c:	f60ff06f          	j	d7c <display_frame+0x478>
    1620:	00700713          	li	a4,7
    1624:	00600793          	li	a5,6
    1628:	f0cff06f          	j	d34 <display_frame+0x430>
    162c:	00800713          	li	a4,8
    1630:	00700793          	li	a5,7
    1634:	f00ff06f          	j	d34 <display_frame+0x430>
    1638:	00900713          	li	a4,9
    163c:	00800793          	li	a5,8
    1640:	ef4ff06f          	j	d34 <display_frame+0x430>
    1644:	00700793          	li	a5,7
    1648:	fe8ff06f          	j	e30 <display_frame+0x52c>
    164c:	00800793          	li	a5,8
    1650:	fe0ff06f          	j	e30 <display_frame+0x52c>
    1654:	00600793          	li	a5,6
    1658:	fd8ff06f          	j	e30 <display_frame+0x52c>
    165c:	00400713          	li	a4,4
    1660:	00300793          	li	a5,3
    1664:	ed0ff06f          	j	d34 <display_frame+0x430>
    1668:	00900793          	li	a5,9
    166c:	d4cff06f          	j	bb8 <display_frame+0x2b4>
    1670:	00500793          	li	a5,5
    1674:	d44ff06f          	j	bb8 <display_frame+0x2b4>
    1678:	00600793          	li	a5,6
    167c:	d3cff06f          	j	bb8 <display_frame+0x2b4>
    1680:	00700793          	li	a5,7
    1684:	d34ff06f          	j	bb8 <display_frame+0x2b4>
    1688:	00800793          	li	a5,8
    168c:	d2cff06f          	j	bb8 <display_frame+0x2b4>
    1690:	04069463          	bnez	a3,16d8 <display_frame+0xdd4>
    1694:	11614703          	lbu	a4,278(sp)
    1698:	11514783          	lbu	a5,277(sp)
    169c:	00c10223          	sb	a2,4(sp)
    16a0:	00e102a3          	sb	a4,5(sp)
    16a4:	00f10323          	sb	a5,6(sp)
    16a8:	00800713          	li	a4,8
    16ac:	c58ff06f          	j	b04 <display_frame+0x200>
    16b0:	02069a63          	bnez	a3,16e4 <display_frame+0xde0>
    16b4:	11714683          	lbu	a3,279(sp)
    16b8:	11614783          	lbu	a5,278(sp)
    16bc:	00e10223          	sb	a4,4(sp)
    16c0:	00d102a3          	sb	a3,5(sp)
    16c4:	00f10323          	sb	a5,6(sp)
    16c8:	00900713          	li	a4,9
    16cc:	c38ff06f          	j	b04 <display_frame+0x200>
    16d0:	00a00793          	li	a5,10
    16d4:	ce4ff06f          	j	bb8 <display_frame+0x2b4>
    16d8:	00800713          	li	a4,8
    16dc:	00700793          	li	a5,7
    16e0:	bdcff06f          	j	abc <display_frame+0x1b8>
    16e4:	00900713          	li	a4,9
    16e8:	00800793          	li	a5,8
    16ec:	bd0ff06f          	j	abc <display_frame+0x1b8>
    16f0:	01010793          	addi	a5,sp,16
    16f4:	f5cff06f          	j	e50 <display_frame+0x54c>
    16f8:	00e10223          	sb	a4,4(sp)
    16fc:	00100793          	li	a5,1
    1700:	f30ff06f          	j	e30 <display_frame+0x52c>
    1704:	00500793          	li	a5,5
    1708:	f28ff06f          	j	e30 <display_frame+0x52c>
    170c:	0a069063          	bnez	a3,17ac <display_frame+0xea8>
    1710:	11314703          	lbu	a4,275(sp)
    1714:	11214783          	lbu	a5,274(sp)
    1718:	00c10223          	sb	a2,4(sp)
    171c:	00e102a3          	sb	a4,5(sp)
    1720:	00f10323          	sb	a5,6(sp)
    1724:	00500713          	li	a4,5
    1728:	e54ff06f          	j	d7c <display_frame+0x478>
    172c:	08069663          	bnez	a3,17b8 <display_frame+0xeb4>
    1730:	11414703          	lbu	a4,276(sp)
    1734:	11314783          	lbu	a5,275(sp)
    1738:	00c10223          	sb	a2,4(sp)
    173c:	00e102a3          	sb	a4,5(sp)
    1740:	00f10323          	sb	a5,6(sp)
    1744:	00600713          	li	a4,6
    1748:	e34ff06f          	j	d7c <display_frame+0x478>
    174c:	08069263          	bnez	a3,17d0 <display_frame+0xecc>
    1750:	11514703          	lbu	a4,277(sp)
    1754:	11414783          	lbu	a5,276(sp)
    1758:	00c10223          	sb	a2,4(sp)
    175c:	00e102a3          	sb	a4,5(sp)
    1760:	00f10323          	sb	a5,6(sp)
    1764:	00700713          	li	a4,7
    1768:	b9cff06f          	j	b04 <display_frame+0x200>
    176c:	04069c63          	bnez	a3,17c4 <display_frame+0xec0>
    1770:	11414703          	lbu	a4,276(sp)
    1774:	11314783          	lbu	a5,275(sp)
    1778:	00c10223          	sb	a2,4(sp)
    177c:	00e102a3          	sb	a4,5(sp)
    1780:	00f10323          	sb	a5,6(sp)
    1784:	00600713          	li	a4,6
    1788:	b7cff06f          	j	b04 <display_frame+0x200>
    178c:	04069863          	bnez	a3,17dc <display_frame+0xed8>
    1790:	11314703          	lbu	a4,275(sp)
    1794:	11214783          	lbu	a5,274(sp)
    1798:	00c10223          	sb	a2,4(sp)
    179c:	00e102a3          	sb	a4,5(sp)
    17a0:	00f10323          	sb	a5,6(sp)
    17a4:	00500713          	li	a4,5
    17a8:	b5cff06f          	j	b04 <display_frame+0x200>
    17ac:	00500713          	li	a4,5
    17b0:	00400793          	li	a5,4
    17b4:	d80ff06f          	j	d34 <display_frame+0x430>
    17b8:	00600713          	li	a4,6
    17bc:	00500793          	li	a5,5
    17c0:	d74ff06f          	j	d34 <display_frame+0x430>
    17c4:	00600713          	li	a4,6
    17c8:	00500793          	li	a5,5
    17cc:	af0ff06f          	j	abc <display_frame+0x1b8>
    17d0:	00700713          	li	a4,7
    17d4:	00600793          	li	a5,6
    17d8:	ae4ff06f          	j	abc <display_frame+0x1b8>
    17dc:	00500713          	li	a4,5
    17e0:	00400793          	li	a5,4
    17e4:	ad8ff06f          	j	abc <display_frame+0x1b8>

000017e8 <wait_for_yes_no>:
    17e8:	00005537          	lui	a0,0x5
    17ec:	ff010113          	addi	sp,sp,-16
    17f0:	51050513          	addi	a0,a0,1296 # 5510 <CSWTCH.15+0x4f4>
    17f4:	00112623          	sw	ra,12(sp)
    17f8:	1b8030ef          	jal	49b0 <print>
    17fc:	0080006f          	j	1804 <wait_for_yes_no+0x1c>
    1800:	00079a63          	bnez	a5,1814 <wait_for_yes_no+0x2c>
    1804:	304020ef          	jal	3b08 <get_sw>
    1808:	00157713          	andi	a4,a0,1
    180c:	00257793          	andi	a5,a0,2
    1810:	fe0708e3          	beqz	a4,1800 <wait_for_yes_no+0x18>
    1814:	00c12083          	lw	ra,12(sp)
    1818:	00070513          	mv	a0,a4
    181c:	01010113          	addi	sp,sp,16
    1820:	00008067          	ret

00001824 <wait_for_exit>:
    1824:	ff010113          	addi	sp,sp,-16
    1828:	00112623          	sw	ra,12(sp)
    182c:	02050063          	beqz	a0,184c <wait_for_exit+0x28>
    1830:	180030ef          	jal	49b0 <print>
    1834:	2d4020ef          	jal	3b08 <get_sw>
    1838:	00857513          	andi	a0,a0,8
    183c:	fe050ce3          	beqz	a0,1834 <wait_for_exit+0x10>
    1840:	00c12083          	lw	ra,12(sp)
    1844:	01010113          	addi	sp,sp,16
    1848:	00008067          	ret
    184c:	00005537          	lui	a0,0x5
    1850:	53450513          	addi	a0,a0,1332 # 5534 <CSWTCH.15+0x518>
    1854:	fddff06f          	j	1830 <wait_for_exit+0xc>

00001858 <interact_with_tile>:
    1858:	ed010113          	addi	sp,sp,-304
    185c:	13212023          	sw	s2,288(sp)
    1860:	0005a903          	lw	s2,0(a1)
    1864:	12112623          	sw	ra,300(sp)
    1868:	00f00793          	li	a5,15
    186c:	6f27ee63          	bltu	a5,s2,1f68 <interact_with_tile+0x710>
    1870:	00005737          	lui	a4,0x5
    1874:	00291793          	slli	a5,s2,0x2
    1878:	f5c70713          	addi	a4,a4,-164 # 4f5c <timeoutcount+0x4>
    187c:	00e787b3          	add	a5,a5,a4
    1880:	0007a783          	lw	a5,0(a5)
    1884:	12812423          	sw	s0,296(sp)
    1888:	12912223          	sw	s1,292(sp)
    188c:	00058413          	mv	s0,a1
    1890:	00050493          	mv	s1,a0
    1894:	00078067          	jr	a5
    1898:	00006537          	lui	a0,0x6
    189c:	c4c50513          	addi	a0,a0,-948 # 5c4c <__global_pointer+0x51c>
    18a0:	110030ef          	jal	49b0 <print>
    18a4:	00005537          	lui	a0,0x5
    18a8:	51050513          	addi	a0,a0,1296 # 5510 <CSWTCH.15+0x4f4>
    18ac:	104030ef          	jal	49b0 <print>
    18b0:	00c0006f          	j	18bc <interact_with_tile+0x64>
    18b4:	00257513          	andi	a0,a0,2
    18b8:	02051463          	bnez	a0,18e0 <interact_with_tile+0x88>
    18bc:	24c020ef          	jal	3b08 <get_sw>
    18c0:	00157793          	andi	a5,a0,1
    18c4:	fe0788e3          	beqz	a5,18b4 <interact_with_tile+0x5c>
    18c8:	00006537          	lui	a0,0x6
    18cc:	ea850513          	addi	a0,a0,-344 # 5ea8 <__global_pointer+0x778>
    18d0:	0e0030ef          	jal	49b0 <print>
    18d4:	00600593          	li	a1,6
    18d8:	00048513          	mv	a0,s1
    18dc:	3cc020ef          	jal	3ca8 <add_to_inventory>
    18e0:	00005537          	lui	a0,0x5
    18e4:	53450513          	addi	a0,a0,1332 # 5534 <CSWTCH.15+0x518>
    18e8:	0c8030ef          	jal	49b0 <print>
    18ec:	21c020ef          	jal	3b08 <get_sw>
    18f0:	00857513          	andi	a0,a0,8
    18f4:	fe050ce3          	beqz	a0,18ec <interact_with_tile+0x94>
    18f8:	12812403          	lw	s0,296(sp)
    18fc:	12412483          	lw	s1,292(sp)
    1900:	12c12083          	lw	ra,300(sp)
    1904:	12012903          	lw	s2,288(sp)
    1908:	13010113          	addi	sp,sp,304
    190c:	00008067          	ret
    1910:	00005537          	lui	a0,0x5
    1914:	54c50513          	addi	a0,a0,1356 # 554c <CSWTCH.15+0x530>
    1918:	098030ef          	jal	49b0 <print>
    191c:	00005537          	lui	a0,0x5
    1920:	55c50513          	addi	a0,a0,1372 # 555c <CSWTCH.15+0x540>
    1924:	08c030ef          	jal	49b0 <print>
    1928:	00005537          	lui	a0,0x5
    192c:	57850513          	addi	a0,a0,1400 # 5578 <CSWTCH.15+0x55c>
    1930:	080030ef          	jal	49b0 <print>
    1934:	00005537          	lui	a0,0x5
    1938:	5a850513          	addi	a0,a0,1448 # 55a8 <CSWTCH.15+0x58c>
    193c:	074030ef          	jal	49b0 <print>
    1940:	00005537          	lui	a0,0x5
    1944:	5d850513          	addi	a0,a0,1496 # 55d8 <CSWTCH.15+0x5bc>
    1948:	068030ef          	jal	49b0 <print>
    194c:	00005537          	lui	a0,0x5
    1950:	5f050513          	addi	a0,a0,1520 # 55f0 <CSWTCH.15+0x5d4>
    1954:	05c030ef          	jal	49b0 <print>
    1958:	01c0006f          	j	1974 <interact_with_tile+0x11c>
    195c:	00157793          	andi	a5,a0,1
    1960:	04079ee3          	bnez	a5,21bc <interact_with_tile+0x964>
    1964:	00257793          	andi	a5,a0,2
    1968:	06079ee3          	bnez	a5,21e4 <interact_with_tile+0x98c>
    196c:	00457793          	andi	a5,a0,4
    1970:	2a0796e3          	bnez	a5,241c <interact_with_tile+0xbc4>
    1974:	194020ef          	jal	3b08 <get_sw>
    1978:	00857793          	andi	a5,a0,8
    197c:	fe0780e3          	beqz	a5,195c <interact_with_tile+0x104>
    1980:	12812403          	lw	s0,296(sp)
    1984:	12412483          	lw	s1,292(sp)
    1988:	12c12083          	lw	ra,300(sp)
    198c:	12012903          	lw	s2,288(sp)
    1990:	00005537          	lui	a0,0x5
    1994:	61850513          	addi	a0,a0,1560 # 5618 <CSWTCH.15+0x5fc>
    1998:	13010113          	addi	sp,sp,304
    199c:	0140306f          	j	49b0 <print>
    19a0:	00006537          	lui	a0,0x6
    19a4:	a2850513          	addi	a0,a0,-1496 # 5a28 <__global_pointer+0x2f8>
    19a8:	008030ef          	jal	49b0 <print>
    19ac:	00400693          	li	a3,4
    19b0:	000057b7          	lui	a5,0x5
    19b4:	f507a703          	lw	a4,-176(a5) # 4f50 <timer_event>
    19b8:	fe070ee3          	beqz	a4,19b4 <interact_with_tile+0x15c>
    19bc:	f407a823          	sw	zero,-176(a5)
    19c0:	fff68693          	addi	a3,a3,-1
    19c4:	fe0698e3          	bnez	a3,19b4 <interact_with_tile+0x15c>
    19c8:	00006537          	lui	a0,0x6
    19cc:	a5050513          	addi	a0,a0,-1456 # 5a50 <__global_pointer+0x320>
    19d0:	7e1020ef          	jal	49b0 <print>
    19d4:	00005537          	lui	a0,0x5
    19d8:	51050513          	addi	a0,a0,1296 # 5510 <CSWTCH.15+0x4f4>
    19dc:	7d5020ef          	jal	49b0 <print>
    19e0:	00c0006f          	j	19ec <interact_with_tile+0x194>
    19e4:	00257513          	andi	a0,a0,2
    19e8:	02051463          	bnez	a0,1a10 <interact_with_tile+0x1b8>
    19ec:	11c020ef          	jal	3b08 <get_sw>
    19f0:	00157793          	andi	a5,a0,1
    19f4:	fe0788e3          	beqz	a5,19e4 <interact_with_tile+0x18c>
    19f8:	00006537          	lui	a0,0x6
    19fc:	d0850513          	addi	a0,a0,-760 # 5d08 <__global_pointer+0x5d8>
    1a00:	7b1020ef          	jal	49b0 <print>
    1a04:	00b00593          	li	a1,11
    1a08:	00048513          	mv	a0,s1
    1a0c:	29c020ef          	jal	3ca8 <add_to_inventory>
    1a10:	00005537          	lui	a0,0x5
    1a14:	53450513          	addi	a0,a0,1332 # 5534 <CSWTCH.15+0x518>
    1a18:	799020ef          	jal	49b0 <print>
    1a1c:	0ec020ef          	jal	3b08 <get_sw>
    1a20:	00857513          	andi	a0,a0,8
    1a24:	fe050ce3          	beqz	a0,1a1c <interact_with_tile+0x1c4>
    1a28:	ed1ff06f          	j	18f8 <interact_with_tile+0xa0>
    1a2c:	00006537          	lui	a0,0x6
    1a30:	8a450513          	addi	a0,a0,-1884 # 58a4 <__global_pointer+0x174>
    1a34:	77d020ef          	jal	49b0 <print>
    1a38:	00005537          	lui	a0,0x5
    1a3c:	51050513          	addi	a0,a0,1296 # 5510 <CSWTCH.15+0x4f4>
    1a40:	771020ef          	jal	49b0 <print>
    1a44:	00c0006f          	j	1a50 <interact_with_tile+0x1f8>
    1a48:	00257513          	andi	a0,a0,2
    1a4c:	6a051663          	bnez	a0,20f8 <interact_with_tile+0x8a0>
    1a50:	0b8020ef          	jal	3b08 <get_sw>
    1a54:	00157793          	andi	a5,a0,1
    1a58:	fe0788e3          	beqz	a5,1a48 <interact_with_tile+0x1f0>
    1a5c:	00700593          	li	a1,7
    1a60:	00048513          	mv	a0,s1
    1a64:	244020ef          	jal	3ca8 <add_to_inventory>
    1a68:	00005537          	lui	a0,0x5
    1a6c:	53450513          	addi	a0,a0,1332 # 5534 <CSWTCH.15+0x518>
    1a70:	741020ef          	jal	49b0 <print>
    1a74:	094020ef          	jal	3b08 <get_sw>
    1a78:	00857513          	andi	a0,a0,8
    1a7c:	fe050ce3          	beqz	a0,1a74 <interact_with_tile+0x21c>
    1a80:	e79ff06f          	j	18f8 <interact_with_tile+0xa0>
    1a84:	00006537          	lui	a0,0x6
    1a88:	b5450513          	addi	a0,a0,-1196 # 5b54 <__global_pointer+0x424>
    1a8c:	725020ef          	jal	49b0 <print>
    1a90:	00400693          	li	a3,4
    1a94:	000057b7          	lui	a5,0x5
    1a98:	f507a703          	lw	a4,-176(a5) # 4f50 <timer_event>
    1a9c:	fe070ee3          	beqz	a4,1a98 <interact_with_tile+0x240>
    1aa0:	f407a823          	sw	zero,-176(a5)
    1aa4:	fff68693          	addi	a3,a3,-1
    1aa8:	fe0698e3          	bnez	a3,1a98 <interact_with_tile+0x240>
    1aac:	00c4a703          	lw	a4,12(s1)
    1ab0:	00005537          	lui	a0,0x5
    1ab4:	53450513          	addi	a0,a0,1332 # 5534 <CSWTCH.15+0x518>
    1ab8:	01f75793          	srli	a5,a4,0x1f
    1abc:	00e787b3          	add	a5,a5,a4
    1ac0:	4017d793          	srai	a5,a5,0x1
    1ac4:	00f4a623          	sw	a5,12(s1)
    1ac8:	6e9020ef          	jal	49b0 <print>
    1acc:	03c020ef          	jal	3b08 <get_sw>
    1ad0:	00857513          	andi	a0,a0,8
    1ad4:	fe050ce3          	beqz	a0,1acc <interact_with_tile+0x274>
    1ad8:	e21ff06f          	j	18f8 <interact_with_tile+0xa0>
    1adc:	00006537          	lui	a0,0x6
    1ae0:	bb850513          	addi	a0,a0,-1096 # 5bb8 <__global_pointer+0x488>
    1ae4:	6cd020ef          	jal	49b0 <print>
    1ae8:	00005537          	lui	a0,0x5
    1aec:	51050513          	addi	a0,a0,1296 # 5510 <CSWTCH.15+0x4f4>
    1af0:	6c1020ef          	jal	49b0 <print>
    1af4:	00c0006f          	j	1b00 <interact_with_tile+0x2a8>
    1af8:	00257513          	andi	a0,a0,2
    1afc:	04051263          	bnez	a0,1b40 <interact_with_tile+0x2e8>
    1b00:	008020ef          	jal	3b08 <get_sw>
    1b04:	00157793          	andi	a5,a0,1
    1b08:	fe0788e3          	beqz	a5,1af8 <interact_with_tile+0x2a0>
    1b0c:	00006537          	lui	a0,0x6
    1b10:	dfc50513          	addi	a0,a0,-516 # 5dfc <__global_pointer+0x6cc>
    1b14:	69d020ef          	jal	49b0 <print>
    1b18:	00400693          	li	a3,4
    1b1c:	000057b7          	lui	a5,0x5
    1b20:	f507a703          	lw	a4,-176(a5) # 4f50 <timer_event>
    1b24:	fe070ee3          	beqz	a4,1b20 <interact_with_tile+0x2c8>
    1b28:	f407a823          	sw	zero,-176(a5)
    1b2c:	fff68693          	addi	a3,a3,-1
    1b30:	fe0698e3          	bnez	a3,1b20 <interact_with_tile+0x2c8>
    1b34:	00400593          	li	a1,4
    1b38:	00048513          	mv	a0,s1
    1b3c:	16c020ef          	jal	3ca8 <add_to_inventory>
    1b40:	00005537          	lui	a0,0x5
    1b44:	53450513          	addi	a0,a0,1332 # 5534 <CSWTCH.15+0x518>
    1b48:	669020ef          	jal	49b0 <print>
    1b4c:	7bd010ef          	jal	3b08 <get_sw>
    1b50:	00857513          	andi	a0,a0,8
    1b54:	fe050ce3          	beqz	a0,1b4c <interact_with_tile+0x2f4>
    1b58:	da1ff06f          	j	18f8 <interact_with_tile+0xa0>
    1b5c:	00006537          	lui	a0,0x6
    1b60:	be050513          	addi	a0,a0,-1056 # 5be0 <__global_pointer+0x4b0>
    1b64:	64d020ef          	jal	49b0 <print>
    1b68:	00005537          	lui	a0,0x5
    1b6c:	51050513          	addi	a0,a0,1296 # 5510 <CSWTCH.15+0x4f4>
    1b70:	641020ef          	jal	49b0 <print>
    1b74:	00c0006f          	j	1b80 <interact_with_tile+0x328>
    1b78:	00257513          	andi	a0,a0,2
    1b7c:	02051463          	bnez	a0,1ba4 <interact_with_tile+0x34c>
    1b80:	789010ef          	jal	3b08 <get_sw>
    1b84:	00157793          	andi	a5,a0,1
    1b88:	fe0788e3          	beqz	a5,1b78 <interact_with_tile+0x320>
    1b8c:	00006537          	lui	a0,0x6
    1b90:	e2c50513          	addi	a0,a0,-468 # 5e2c <__global_pointer+0x6fc>
    1b94:	61d020ef          	jal	49b0 <print>
    1b98:	00200593          	li	a1,2
    1b9c:	00048513          	mv	a0,s1
    1ba0:	108020ef          	jal	3ca8 <add_to_inventory>
    1ba4:	00005537          	lui	a0,0x5
    1ba8:	53450513          	addi	a0,a0,1332 # 5534 <CSWTCH.15+0x518>
    1bac:	605020ef          	jal	49b0 <print>
    1bb0:	759010ef          	jal	3b08 <get_sw>
    1bb4:	00857513          	andi	a0,a0,8
    1bb8:	fe050ce3          	beqz	a0,1bb0 <interact_with_tile+0x358>
    1bbc:	d3dff06f          	j	18f8 <interact_with_tile+0xa0>
    1bc0:	00006537          	lui	a0,0x6
    1bc4:	c1450513          	addi	a0,a0,-1004 # 5c14 <__global_pointer+0x4e4>
    1bc8:	5e9020ef          	jal	49b0 <print>
    1bcc:	00005537          	lui	a0,0x5
    1bd0:	51050513          	addi	a0,a0,1296 # 5510 <CSWTCH.15+0x4f4>
    1bd4:	5dd020ef          	jal	49b0 <print>
    1bd8:	00c0006f          	j	1be4 <interact_with_tile+0x38c>
    1bdc:	00257513          	andi	a0,a0,2
    1be0:	02051463          	bnez	a0,1c08 <interact_with_tile+0x3b0>
    1be4:	725010ef          	jal	3b08 <get_sw>
    1be8:	00157793          	andi	a5,a0,1
    1bec:	fe0788e3          	beqz	a5,1bdc <interact_with_tile+0x384>
    1bf0:	00006537          	lui	a0,0x6
    1bf4:	e6c50513          	addi	a0,a0,-404 # 5e6c <__global_pointer+0x73c>
    1bf8:	5b9020ef          	jal	49b0 <print>
    1bfc:	00300593          	li	a1,3
    1c00:	00048513          	mv	a0,s1
    1c04:	0a4020ef          	jal	3ca8 <add_to_inventory>
    1c08:	00005537          	lui	a0,0x5
    1c0c:	53450513          	addi	a0,a0,1332 # 5534 <CSWTCH.15+0x518>
    1c10:	5a1020ef          	jal	49b0 <print>
    1c14:	6f5010ef          	jal	3b08 <get_sw>
    1c18:	00857513          	andi	a0,a0,8
    1c1c:	fe050ce3          	beqz	a0,1c14 <interact_with_tile+0x3bc>
    1c20:	cd9ff06f          	j	18f8 <interact_with_tile+0xa0>
    1c24:	00006537          	lui	a0,0x6
    1c28:	ad850513          	addi	a0,a0,-1320 # 5ad8 <__global_pointer+0x3a8>
    1c2c:	585020ef          	jal	49b0 <print>
    1c30:	00400693          	li	a3,4
    1c34:	000057b7          	lui	a5,0x5
    1c38:	f507a703          	lw	a4,-176(a5) # 4f50 <timer_event>
    1c3c:	fe070ee3          	beqz	a4,1c38 <interact_with_tile+0x3e0>
    1c40:	f407a823          	sw	zero,-176(a5)
    1c44:	fff68693          	addi	a3,a3,-1
    1c48:	fe0698e3          	bnez	a3,1c38 <interact_with_tile+0x3e0>
    1c4c:	0084a703          	lw	a4,8(s1)
    1c50:	00005537          	lui	a0,0x5
    1c54:	53450513          	addi	a0,a0,1332 # 5534 <CSWTCH.15+0x518>
    1c58:	01f75793          	srli	a5,a4,0x1f
    1c5c:	00e787b3          	add	a5,a5,a4
    1c60:	4017d793          	srai	a5,a5,0x1
    1c64:	00f4a423          	sw	a5,8(s1)
    1c68:	549020ef          	jal	49b0 <print>
    1c6c:	69d010ef          	jal	3b08 <get_sw>
    1c70:	00857513          	andi	a0,a0,8
    1c74:	fe050ce3          	beqz	a0,1c6c <interact_with_tile+0x414>
    1c78:	c81ff06f          	j	18f8 <interact_with_tile+0xa0>
    1c7c:	00006537          	lui	a0,0x6
    1c80:	a8050513          	addi	a0,a0,-1408 # 5a80 <__global_pointer+0x350>
    1c84:	52d020ef          	jal	49b0 <print>
    1c88:	00400693          	li	a3,4
    1c8c:	000057b7          	lui	a5,0x5
    1c90:	f507a703          	lw	a4,-176(a5) # 4f50 <timer_event>
    1c94:	fe070ee3          	beqz	a4,1c90 <interact_with_tile+0x438>
    1c98:	f407a823          	sw	zero,-176(a5)
    1c9c:	fff68693          	addi	a3,a3,-1
    1ca0:	fe0698e3          	bnez	a3,1c90 <interact_with_tile+0x438>
    1ca4:	0044a783          	lw	a5,4(s1)
    1ca8:	04079e63          	bnez	a5,1d04 <interact_with_tile+0x4ac>
    1cac:	0004a703          	lw	a4,0(s1)
    1cb0:	00400793          	li	a5,4
    1cb4:	06f71263          	bne	a4,a5,1d18 <interact_with_tile+0x4c0>
    1cb8:	00006537          	lui	a0,0x6
    1cbc:	aac50513          	addi	a0,a0,-1364 # 5aac <__global_pointer+0x37c>
    1cc0:	4f1020ef          	jal	49b0 <print>
    1cc4:	00005537          	lui	a0,0x5
    1cc8:	51050513          	addi	a0,a0,1296 # 5510 <CSWTCH.15+0x4f4>
    1ccc:	4e5020ef          	jal	49b0 <print>
    1cd0:	00c0006f          	j	1cdc <interact_with_tile+0x484>
    1cd4:	00257513          	andi	a0,a0,2
    1cd8:	02051463          	bnez	a0,1d00 <interact_with_tile+0x4a8>
    1cdc:	62d010ef          	jal	3b08 <get_sw>
    1ce0:	00157793          	andi	a5,a0,1
    1ce4:	fe0788e3          	beqz	a5,1cd4 <interact_with_tile+0x47c>
    1ce8:	00006537          	lui	a0,0x6
    1cec:	d8c50513          	addi	a0,a0,-628 # 5d8c <__global_pointer+0x65c>
    1cf0:	4c1020ef          	jal	49b0 <print>
    1cf4:	00a00593          	li	a1,10
    1cf8:	00048513          	mv	a0,s1
    1cfc:	7ad010ef          	jal	3ca8 <add_to_inventory>
    1d00:	0044a783          	lw	a5,4(s1)
    1d04:	00700713          	li	a4,7
    1d08:	00e79863          	bne	a5,a4,1d18 <interact_with_tile+0x4c0>
    1d0c:	0004a703          	lw	a4,0(s1)
    1d10:	00100793          	li	a5,1
    1d14:	24f702e3          	beq	a4,a5,2758 <interact_with_tile+0xf00>
    1d18:	00005537          	lui	a0,0x5
    1d1c:	53450513          	addi	a0,a0,1332 # 5534 <CSWTCH.15+0x518>
    1d20:	491020ef          	jal	49b0 <print>
    1d24:	5e5010ef          	jal	3b08 <get_sw>
    1d28:	00857513          	andi	a0,a0,8
    1d2c:	fe050ce3          	beqz	a0,1d24 <interact_with_tile+0x4cc>
    1d30:	bc9ff06f          	j	18f8 <interact_with_tile+0xa0>
    1d34:	00006537          	lui	a0,0x6
    1d38:	b1850513          	addi	a0,a0,-1256 # 5b18 <__global_pointer+0x3e8>
    1d3c:	475020ef          	jal	49b0 <print>
    1d40:	00005537          	lui	a0,0x5
    1d44:	51050513          	addi	a0,a0,1296 # 5510 <CSWTCH.15+0x4f4>
    1d48:	469020ef          	jal	49b0 <print>
    1d4c:	00c0006f          	j	1d58 <interact_with_tile+0x500>
    1d50:	00257513          	andi	a0,a0,2
    1d54:	02051463          	bnez	a0,1d7c <interact_with_tile+0x524>
    1d58:	5b1010ef          	jal	3b08 <get_sw>
    1d5c:	00157793          	andi	a5,a0,1
    1d60:	fe0788e3          	beqz	a5,1d50 <interact_with_tile+0x4f8>
    1d64:	00006537          	lui	a0,0x6
    1d68:	dbc50513          	addi	a0,a0,-580 # 5dbc <__global_pointer+0x68c>
    1d6c:	445020ef          	jal	49b0 <print>
    1d70:	00100593          	li	a1,1
    1d74:	00048513          	mv	a0,s1
    1d78:	731010ef          	jal	3ca8 <add_to_inventory>
    1d7c:	00005537          	lui	a0,0x5
    1d80:	53450513          	addi	a0,a0,1332 # 5534 <CSWTCH.15+0x518>
    1d84:	42d020ef          	jal	49b0 <print>
    1d88:	581010ef          	jal	3b08 <get_sw>
    1d8c:	00857513          	andi	a0,a0,8
    1d90:	fe050ce3          	beqz	a0,1d88 <interact_with_tile+0x530>
    1d94:	b65ff06f          	j	18f8 <interact_with_tile+0xa0>
    1d98:	00005537          	lui	a0,0x5
    1d9c:	76c50513          	addi	a0,a0,1900 # 576c <__global_pointer+0x3c>
    1da0:	411020ef          	jal	49b0 <print>
    1da4:	00005537          	lui	a0,0x5
    1da8:	51050513          	addi	a0,a0,1296 # 5510 <CSWTCH.15+0x4f4>
    1dac:	405020ef          	jal	49b0 <print>
    1db0:	00c0006f          	j	1dbc <interact_with_tile+0x564>
    1db4:	00257513          	andi	a0,a0,2
    1db8:	36051663          	bnez	a0,2124 <interact_with_tile+0x8cc>
    1dbc:	54d010ef          	jal	3b08 <get_sw>
    1dc0:	00157793          	andi	a5,a0,1
    1dc4:	fe0788e3          	beqz	a5,1db4 <interact_with_tile+0x55c>
    1dc8:	00006537          	lui	a0,0x6
    1dcc:	cb050513          	addi	a0,a0,-848 # 5cb0 <__global_pointer+0x580>
    1dd0:	3e1020ef          	jal	49b0 <print>
    1dd4:	5cd010ef          	jal	3ba0 <get_leds>
    1dd8:	01f00793          	li	a5,31
    1ddc:	00a7c4e3          	blt	a5,a0,25e4 <interact_with_tile+0xd8c>
    1de0:	1c054663          	bltz	a0,1fac <interact_with_tile+0x754>
    1de4:	1ca7e463          	bltu	a5,a0,1fac <interact_with_tile+0x754>
    1de8:	00005737          	lui	a4,0x5
    1dec:	00251793          	slli	a5,a0,0x2
    1df0:	f9c70713          	addi	a4,a4,-100 # 4f9c <timeoutcount+0x44>
    1df4:	00e787b3          	add	a5,a5,a4
    1df8:	0007a783          	lw	a5,0(a5)
    1dfc:	00078067          	jr	a5
    1e00:	00006537          	lui	a0,0x6
    1e04:	93050513          	addi	a0,a0,-1744 # 5930 <__global_pointer+0x200>
    1e08:	3a9020ef          	jal	49b0 <print>
    1e0c:	00006537          	lui	a0,0x6
    1e10:	95850513          	addi	a0,a0,-1704 # 5958 <__global_pointer+0x228>
    1e14:	39d020ef          	jal	49b0 <print>
    1e18:	00006537          	lui	a0,0x6
    1e1c:	97850513          	addi	a0,a0,-1672 # 5978 <__global_pointer+0x248>
    1e20:	391020ef          	jal	49b0 <print>
    1e24:	00006537          	lui	a0,0x6
    1e28:	99850513          	addi	a0,a0,-1640 # 5998 <__global_pointer+0x268>
    1e2c:	385020ef          	jal	49b0 <print>
    1e30:	0140006f          	j	1e44 <interact_with_tile+0x5ec>
    1e34:	00157793          	andi	a5,a0,1
    1e38:	30079a63          	bnez	a5,214c <interact_with_tile+0x8f4>
    1e3c:	00257793          	andi	a5,a0,2
    1e40:	34079263          	bnez	a5,2184 <interact_with_tile+0x92c>
    1e44:	4c5010ef          	jal	3b08 <get_sw>
    1e48:	00857793          	andi	a5,a0,8
    1e4c:	fe0784e3          	beqz	a5,1e34 <interact_with_tile+0x5dc>
    1e50:	00005537          	lui	a0,0x5
    1e54:	53450513          	addi	a0,a0,1332 # 5534 <CSWTCH.15+0x518>
    1e58:	359020ef          	jal	49b0 <print>
    1e5c:	4ad010ef          	jal	3b08 <get_sw>
    1e60:	00857513          	andi	a0,a0,8
    1e64:	fe050ce3          	beqz	a0,1e5c <interact_with_tile+0x604>
    1e68:	a91ff06f          	j	18f8 <interact_with_tile+0xa0>
    1e6c:	00006537          	lui	a0,0x6
    1e70:	9dc50513          	addi	a0,a0,-1572 # 59dc <__global_pointer+0x2ac>
    1e74:	33d020ef          	jal	49b0 <print>
    1e78:	00400693          	li	a3,4
    1e7c:	000057b7          	lui	a5,0x5
    1e80:	f507a703          	lw	a4,-176(a5) # 4f50 <timer_event>
    1e84:	fe070ee3          	beqz	a4,1e80 <interact_with_tile+0x628>
    1e88:	f407a823          	sw	zero,-176(a5)
    1e8c:	fff68693          	addi	a3,a3,-1
    1e90:	fe0698e3          	bnez	a3,1e80 <interact_with_tile+0x628>
    1e94:	00005537          	lui	a0,0x5
    1e98:	53450513          	addi	a0,a0,1332 # 5534 <CSWTCH.15+0x518>
    1e9c:	315020ef          	jal	49b0 <print>
    1ea0:	469010ef          	jal	3b08 <get_sw>
    1ea4:	00857513          	andi	a0,a0,8
    1ea8:	fe050ce3          	beqz	a0,1ea0 <interact_with_tile+0x648>
    1eac:	a4dff06f          	j	18f8 <interact_with_tile+0xa0>
    1eb0:	00006537          	lui	a0,0x6
    1eb4:	8b850513          	addi	a0,a0,-1864 # 58b8 <__global_pointer+0x188>
    1eb8:	11312e23          	sw	s3,284(sp)
    1ebc:	2f5020ef          	jal	49b0 <print>
    1ec0:	00005537          	lui	a0,0x5
    1ec4:	51050513          	addi	a0,a0,1296 # 5510 <CSWTCH.15+0x4f4>
    1ec8:	2e9020ef          	jal	49b0 <print>
    1ecc:	00c0006f          	j	1ed8 <interact_with_tile+0x680>
    1ed0:	00257513          	andi	a0,a0,2
    1ed4:	06051263          	bnez	a0,1f38 <interact_with_tile+0x6e0>
    1ed8:	431010ef          	jal	3b08 <get_sw>
    1edc:	00157993          	andi	s3,a0,1
    1ee0:	fe0988e3          	beqz	s3,1ed0 <interact_with_tile+0x678>
    1ee4:	0104a703          	lw	a4,16(s1)
    1ee8:	00900793          	li	a5,9
    1eec:	78f70e63          	beq	a4,a5,2688 <interact_with_tile+0xe30>
    1ef0:	0144a703          	lw	a4,20(s1)
    1ef4:	78f70c63          	beq	a4,a5,268c <interact_with_tile+0xe34>
    1ef8:	0184a703          	lw	a4,24(s1)
    1efc:	16f700e3          	beq	a4,a5,285c <interact_with_tile+0x1004>
    1f00:	01c4a703          	lw	a4,28(s1)
    1f04:	14f708e3          	beq	a4,a5,2854 <interact_with_tile+0xffc>
    1f08:	0204a703          	lw	a4,32(s1)
    1f0c:	00400993          	li	s3,4
    1f10:	76f70e63          	beq	a4,a5,268c <interact_with_tile+0xe34>
    1f14:	00006537          	lui	a0,0x6
    1f18:	90450513          	addi	a0,a0,-1788 # 5904 <__global_pointer+0x1d4>
    1f1c:	295020ef          	jal	49b0 <print>
    1f20:	000057b7          	lui	a5,0x5
    1f24:	f507a703          	lw	a4,-176(a5) # 4f50 <timer_event>
    1f28:	fe070ee3          	beqz	a4,1f24 <interact_with_tile+0x6cc>
    1f2c:	f407a823          	sw	zero,-176(a5)
    1f30:	fff90913          	addi	s2,s2,-1
    1f34:	fe0918e3          	bnez	s2,1f24 <interact_with_tile+0x6cc>
    1f38:	00005537          	lui	a0,0x5
    1f3c:	53450513          	addi	a0,a0,1332 # 5534 <CSWTCH.15+0x518>
    1f40:	271020ef          	jal	49b0 <print>
    1f44:	3c5010ef          	jal	3b08 <get_sw>
    1f48:	00857513          	andi	a0,a0,8
    1f4c:	fe050ce3          	beqz	a0,1f44 <interact_with_tile+0x6ec>
    1f50:	12812403          	lw	s0,296(sp)
    1f54:	12412483          	lw	s1,292(sp)
    1f58:	11c12983          	lw	s3,284(sp)
    1f5c:	9a5ff06f          	j	1900 <interact_with_tile+0xa8>
    1f60:	12812403          	lw	s0,296(sp)
    1f64:	12412483          	lw	s1,292(sp)
    1f68:	00006537          	lui	a0,0x6
    1f6c:	c8450513          	addi	a0,a0,-892 # 5c84 <__global_pointer+0x554>
    1f70:	241020ef          	jal	49b0 <print>
    1f74:	00400693          	li	a3,4
    1f78:	000057b7          	lui	a5,0x5
    1f7c:	f507a703          	lw	a4,-176(a5) # 4f50 <timer_event>
    1f80:	fe070ee3          	beqz	a4,1f7c <interact_with_tile+0x724>
    1f84:	f407a823          	sw	zero,-176(a5)
    1f88:	fff68693          	addi	a3,a3,-1
    1f8c:	fe0698e3          	bnez	a3,1f7c <interact_with_tile+0x724>
    1f90:	00005537          	lui	a0,0x5
    1f94:	53450513          	addi	a0,a0,1332 # 5534 <CSWTCH.15+0x518>
    1f98:	219020ef          	jal	49b0 <print>
    1f9c:	36d010ef          	jal	3b08 <get_sw>
    1fa0:	00857513          	andi	a0,a0,8
    1fa4:	fe050ce3          	beqz	a0,1f9c <interact_with_tile+0x744>
    1fa8:	959ff06f          	j	1900 <interact_with_tile+0xa8>
    1fac:	00005537          	lui	a0,0x5
    1fb0:	7a050513          	addi	a0,a0,1952 # 57a0 <__global_pointer+0x70>
    1fb4:	1fd020ef          	jal	49b0 <print>
    1fb8:	00000513          	li	a0,0
    1fbc:	22d020ef          	jal	49e8 <print_dec>
    1fc0:	00005537          	lui	a0,0x5
    1fc4:	7c050513          	addi	a0,a0,1984 # 57c0 <__global_pointer+0x90>
    1fc8:	1e9020ef          	jal	49b0 <print>
    1fcc:	00006537          	lui	a0,0x6
    1fd0:	86450513          	addi	a0,a0,-1948 # 5864 <__global_pointer+0x134>
    1fd4:	1dd020ef          	jal	49b0 <print>
    1fd8:	0000006f          	j	1fd8 <interact_with_tile+0x780>
    1fdc:	00006537          	lui	a0,0x6
    1fe0:	80050513          	addi	a0,a0,-2048 # 5800 <__global_pointer+0xd0>
    1fe4:	1cd020ef          	jal	49b0 <print>
    1fe8:	00005537          	lui	a0,0x5
    1fec:	7a050513          	addi	a0,a0,1952 # 57a0 <__global_pointer+0x70>
    1ff0:	1c1020ef          	jal	49b0 <print>
    1ff4:	00a00513          	li	a0,10
    1ff8:	1f1020ef          	jal	49e8 <print_dec>
    1ffc:	00005537          	lui	a0,0x5
    2000:	7c050513          	addi	a0,a0,1984 # 57c0 <__global_pointer+0x90>
    2004:	1ad020ef          	jal	49b0 <print>
    2008:	fc5ff06f          	j	1fcc <interact_with_tile+0x774>
    200c:	00005537          	lui	a0,0x5
    2010:	7c450513          	addi	a0,a0,1988 # 57c4 <__global_pointer+0x94>
    2014:	19d020ef          	jal	49b0 <print>
    2018:	00400693          	li	a3,4
    201c:	000057b7          	lui	a5,0x5
    2020:	f507a703          	lw	a4,-176(a5) # 4f50 <timer_event>
    2024:	fe070ee3          	beqz	a4,2020 <interact_with_tile+0x7c8>
    2028:	f407a823          	sw	zero,-176(a5)
    202c:	fff68693          	addi	a3,a3,-1
    2030:	fe0698e3          	bnez	a3,2020 <interact_with_tile+0x7c8>
    2034:	8c5ff06f          	j	18f8 <interact_with_tile+0xa0>
    2038:	00006537          	lui	a0,0x6
    203c:	81050513          	addi	a0,a0,-2032 # 5810 <__global_pointer+0xe0>
    2040:	171020ef          	jal	49b0 <print>
    2044:	00005537          	lui	a0,0x5
    2048:	7a050513          	addi	a0,a0,1952 # 57a0 <__global_pointer+0x70>
    204c:	165020ef          	jal	49b0 <print>
    2050:	03200513          	li	a0,50
    2054:	195020ef          	jal	49e8 <print_dec>
    2058:	00005537          	lui	a0,0x5
    205c:	7c050513          	addi	a0,a0,1984 # 57c0 <__global_pointer+0x90>
    2060:	151020ef          	jal	49b0 <print>
    2064:	f69ff06f          	j	1fcc <interact_with_tile+0x774>
    2068:	00006537          	lui	a0,0x6
    206c:	80c50513          	addi	a0,a0,-2036 # 580c <__global_pointer+0xdc>
    2070:	141020ef          	jal	49b0 <print>
    2074:	00005537          	lui	a0,0x5
    2078:	7a050513          	addi	a0,a0,1952 # 57a0 <__global_pointer+0x70>
    207c:	135020ef          	jal	49b0 <print>
    2080:	02800513          	li	a0,40
    2084:	165020ef          	jal	49e8 <print_dec>
    2088:	00005537          	lui	a0,0x5
    208c:	7c050513          	addi	a0,a0,1984 # 57c0 <__global_pointer+0x90>
    2090:	121020ef          	jal	49b0 <print>
    2094:	f39ff06f          	j	1fcc <interact_with_tile+0x774>
    2098:	00006537          	lui	a0,0x6
    209c:	80850513          	addi	a0,a0,-2040 # 5808 <__global_pointer+0xd8>
    20a0:	111020ef          	jal	49b0 <print>
    20a4:	00005537          	lui	a0,0x5
    20a8:	7a050513          	addi	a0,a0,1952 # 57a0 <__global_pointer+0x70>
    20ac:	105020ef          	jal	49b0 <print>
    20b0:	01e00513          	li	a0,30
    20b4:	135020ef          	jal	49e8 <print_dec>
    20b8:	00005537          	lui	a0,0x5
    20bc:	7c050513          	addi	a0,a0,1984 # 57c0 <__global_pointer+0x90>
    20c0:	0f1020ef          	jal	49b0 <print>
    20c4:	f09ff06f          	j	1fcc <interact_with_tile+0x774>
    20c8:	00006537          	lui	a0,0x6
    20cc:	80450513          	addi	a0,a0,-2044 # 5804 <__global_pointer+0xd4>
    20d0:	0e1020ef          	jal	49b0 <print>
    20d4:	00005537          	lui	a0,0x5
    20d8:	7a050513          	addi	a0,a0,1952 # 57a0 <__global_pointer+0x70>
    20dc:	0d5020ef          	jal	49b0 <print>
    20e0:	01400513          	li	a0,20
    20e4:	105020ef          	jal	49e8 <print_dec>
    20e8:	00005537          	lui	a0,0x5
    20ec:	7c050513          	addi	a0,a0,1984 # 57c0 <__global_pointer+0x90>
    20f0:	0c1020ef          	jal	49b0 <print>
    20f4:	ed9ff06f          	j	1fcc <interact_with_tile+0x774>
    20f8:	00006537          	lui	a0,0x6
    20fc:	cec50513          	addi	a0,a0,-788 # 5cec <__global_pointer+0x5bc>
    2100:	0b1020ef          	jal	49b0 <print>
    2104:	00400693          	li	a3,4
    2108:	000057b7          	lui	a5,0x5
    210c:	f507a703          	lw	a4,-176(a5) # 4f50 <timer_event>
    2110:	fe070ee3          	beqz	a4,210c <interact_with_tile+0x8b4>
    2114:	f407a823          	sw	zero,-176(a5)
    2118:	fff68693          	addi	a3,a3,-1
    211c:	fe0698e3          	bnez	a3,210c <interact_with_tile+0x8b4>
    2120:	949ff06f          	j	1a68 <interact_with_tile+0x210>
    2124:	00006537          	lui	a0,0x6
    2128:	cd450513          	addi	a0,a0,-812 # 5cd4 <__global_pointer+0x5a4>
    212c:	085020ef          	jal	49b0 <print>
    2130:	00005537          	lui	a0,0x5
    2134:	53450513          	addi	a0,a0,1332 # 5534 <CSWTCH.15+0x518>
    2138:	079020ef          	jal	49b0 <print>
    213c:	1cd010ef          	jal	3b08 <get_sw>
    2140:	00857513          	andi	a0,a0,8
    2144:	fe050ce3          	beqz	a0,213c <interact_with_tile+0x8e4>
    2148:	fb0ff06f          	j	18f8 <interact_with_tile+0xa0>
    214c:	00800593          	li	a1,8
    2150:	00048513          	mv	a0,s1
    2154:	355010ef          	jal	3ca8 <add_to_inventory>
    2158:	00006537          	lui	a0,0x6
    215c:	9a850513          	addi	a0,a0,-1624 # 59a8 <__global_pointer+0x278>
    2160:	051020ef          	jal	49b0 <print>
    2164:	00400693          	li	a3,4
    2168:	000057b7          	lui	a5,0x5
    216c:	f507a703          	lw	a4,-176(a5) # 4f50 <timer_event>
    2170:	fe070ee3          	beqz	a4,216c <interact_with_tile+0x914>
    2174:	f407a823          	sw	zero,-176(a5)
    2178:	fff68693          	addi	a3,a3,-1
    217c:	fe0698e3          	bnez	a3,216c <interact_with_tile+0x914>
    2180:	cd1ff06f          	j	1e50 <interact_with_tile+0x5f8>
    2184:	00900593          	li	a1,9
    2188:	00048513          	mv	a0,s1
    218c:	31d010ef          	jal	3ca8 <add_to_inventory>
    2190:	00006537          	lui	a0,0x6
    2194:	9c450513          	addi	a0,a0,-1596 # 59c4 <__global_pointer+0x294>
    2198:	019020ef          	jal	49b0 <print>
    219c:	00400693          	li	a3,4
    21a0:	000057b7          	lui	a5,0x5
    21a4:	f507a703          	lw	a4,-176(a5) # 4f50 <timer_event>
    21a8:	fe070ee3          	beqz	a4,21a4 <interact_with_tile+0x94c>
    21ac:	f407a823          	sw	zero,-176(a5)
    21b0:	fff68693          	addi	a3,a3,-1
    21b4:	fe0698e3          	bnez	a3,21a4 <interact_with_tile+0x94c>
    21b8:	c99ff06f          	j	1e50 <interact_with_tile+0x5f8>
    21bc:	00040593          	mv	a1,s0
    21c0:	00048513          	mv	a0,s1
    21c4:	775010ef          	jal	4138 <check_storage>
    21c8:	00005537          	lui	a0,0x5
    21cc:	74450513          	addi	a0,a0,1860 # 5744 <__global_pointer+0x14>
    21d0:	7e0020ef          	jal	49b0 <print>
    21d4:	135010ef          	jal	3b08 <get_sw>
    21d8:	00857513          	andi	a0,a0,8
    21dc:	fe050ce3          	beqz	a0,21d4 <interact_with_tile+0x97c>
    21e0:	fa0ff06f          	j	1980 <interact_with_tile+0x128>
    21e4:	00005537          	lui	a0,0x5
    21e8:	11312e23          	sw	s3,284(sp)
    21ec:	11612823          	sw	s6,272(sp)
    21f0:	62c50513          	addi	a0,a0,1580 # 562c <CSWTCH.15+0x610>
    21f4:	000059b7          	lui	s3,0x5
    21f8:	00005937          	lui	s2,0x5
    21fc:	00005b37          	lui	s6,0x5
    2200:	11412c23          	sw	s4,280(sp)
    2204:	11512a23          	sw	s5,276(sp)
    2208:	11712623          	sw	s7,268(sp)
    220c:	11812423          	sw	s8,264(sp)
    2210:	11912223          	sw	s9,260(sp)
    2214:	03100c13          	li	s8,49
    2218:	798020ef          	jal	49b0 <print>
    221c:	01048c93          	addi	s9,s1,16
    2220:	3b498993          	addi	s3,s3,948 # 53b4 <CSWTCH.15+0x398>
    2224:	3bc90913          	addi	s2,s2,956 # 53bc <CSWTCH.15+0x3a0>
    2228:	e64b0b13          	addi	s6,s6,-412 # 4e64 <COLLECTIBLE_NAMES>
    222c:	00005bb7          	lui	s7,0x5
    2230:	00a00a93          	li	s5,10
    2234:	03600a13          	li	s4,54
    2238:	00010023          	sb	zero,0(sp)
    223c:	00098693          	mv	a3,s3
    2240:	00010793          	mv	a5,sp
    2244:	05300713          	li	a4,83
    2248:	00168693          	addi	a3,a3,1
    224c:	00e78023          	sb	a4,0(a5)
    2250:	0006c703          	lbu	a4,0(a3)
    2254:	00178793          	addi	a5,a5,1
    2258:	fe0718e3          	bnez	a4,2248 <interact_with_tile+0x9f0>
    225c:	00078023          	sb	zero,0(a5)
    2260:	00014783          	lbu	a5,0(sp)
    2264:	16078663          	beqz	a5,23d0 <interact_with_tile+0xb78>
    2268:	00010793          	mv	a5,sp
    226c:	0017c703          	lbu	a4,1(a5)
    2270:	00178793          	addi	a5,a5,1
    2274:	fe071ce3          	bnez	a4,226c <interact_with_tile+0xa14>
    2278:	01878023          	sb	s8,0(a5)
    227c:	000780a3          	sb	zero,1(a5)
    2280:	00014783          	lbu	a5,0(sp)
    2284:	3c078463          	beqz	a5,264c <interact_with_tile+0xdf4>
    2288:	00010793          	mv	a5,sp
    228c:	0017c703          	lbu	a4,1(a5)
    2290:	00178793          	addi	a5,a5,1
    2294:	fe071ce3          	bnez	a4,228c <interact_with_tile+0xa34>
    2298:	00090693          	mv	a3,s2
    229c:	03a00713          	li	a4,58
    22a0:	00168693          	addi	a3,a3,1
    22a4:	00e78023          	sb	a4,0(a5)
    22a8:	0006c703          	lbu	a4,0(a3)
    22ac:	00178793          	addi	a5,a5,1
    22b0:	fe0718e3          	bnez	a4,22a0 <interact_with_tile+0xa48>
    22b4:	000ca703          	lw	a4,0(s9)
    22b8:	00078023          	sb	zero,0(a5)
    22bc:	10071e63          	bnez	a4,23d8 <interact_with_tile+0xb80>
    22c0:	00014703          	lbu	a4,0(sp)
    22c4:	00010793          	mv	a5,sp
    22c8:	00070863          	beqz	a4,22d8 <interact_with_tile+0xa80>
    22cc:	0017c703          	lbu	a4,1(a5)
    22d0:	00178793          	addi	a5,a5,1
    22d4:	fe071ce3          	bnez	a4,22cc <interact_with_tile+0xa74>
    22d8:	3c0b8693          	addi	a3,s7,960 # 53c0 <CSWTCH.15+0x3a4>
    22dc:	04500713          	li	a4,69
    22e0:	00168693          	addi	a3,a3,1
    22e4:	00e78023          	sb	a4,0(a5)
    22e8:	0006c703          	lbu	a4,0(a3)
    22ec:	00178793          	addi	a5,a5,1
    22f0:	fe0718e3          	bnez	a4,22e0 <interact_with_tile+0xa88>
    22f4:	00078023          	sb	zero,0(a5)
    22f8:	00014783          	lbu	a5,0(sp)
    22fc:	34078c63          	beqz	a5,2654 <interact_with_tile+0xdfc>
    2300:	00010793          	mv	a5,sp
    2304:	0017c703          	lbu	a4,1(a5)
    2308:	00178793          	addi	a5,a5,1
    230c:	fe071ce3          	bnez	a4,2304 <interact_with_tile+0xaac>
    2310:	001c0c13          	addi	s8,s8,1
    2314:	00010513          	mv	a0,sp
    2318:	01578023          	sb	s5,0(a5)
    231c:	000780a3          	sb	zero,1(a5)
    2320:	0ffc7c13          	zext.b	s8,s8
    2324:	68c020ef          	jal	49b0 <print>
    2328:	004c8c93          	addi	s9,s9,4
    232c:	f14c16e3          	bne	s8,s4,2238 <interact_with_tile+0x9e0>
    2330:	00005537          	lui	a0,0x5
    2334:	64050513          	addi	a0,a0,1600 # 5640 <CSWTCH.15+0x624>
    2338:	678020ef          	jal	49b0 <print>
    233c:	00100913          	li	s2,1
    2340:	7c8010ef          	jal	3b08 <get_sw>
    2344:	30050063          	beqz	a0,2644 <interact_with_tile+0xdec>
    2348:	fe091ce3          	bnez	s2,2340 <interact_with_tile+0xae8>
    234c:	10057913          	andi	s2,a0,256
    2350:	50091a63          	bnez	s2,2864 <interact_with_tile+0x100c>
    2354:	01f57793          	andi	a5,a0,31
    2358:	2e078263          	beqz	a5,263c <interact_with_tile+0xde4>
    235c:	00157793          	andi	a5,a0,1
    2360:	02079463          	bnez	a5,2388 <interact_with_tile+0xb30>
    2364:	00257793          	andi	a5,a0,2
    2368:	42079e63          	bnez	a5,27a4 <interact_with_tile+0xf4c>
    236c:	00457793          	andi	a5,a0,4
    2370:	4c079e63          	bnez	a5,284c <interact_with_tile+0xff4>
    2374:	00857793          	andi	a5,a0,8
    2378:	54079263          	bnez	a5,28bc <interact_with_tile+0x1064>
    237c:	01057513          	andi	a0,a0,16
    2380:	3a050663          	beqz	a0,272c <interact_with_tile+0xed4>
    2384:	00400913          	li	s2,4
    2388:	00490793          	addi	a5,s2,4
    238c:	00279793          	slli	a5,a5,0x2
    2390:	00f487b3          	add	a5,s1,a5
    2394:	0007a583          	lw	a1,0(a5)
    2398:	36058463          	beqz	a1,2700 <interact_with_tile+0xea8>
    239c:	00040513          	mv	a0,s0
    23a0:	30d010ef          	jal	3eac <add_to_storage>
    23a4:	00090593          	mv	a1,s2
    23a8:	00048513          	mv	a0,s1
    23ac:	1dd010ef          	jal	3d88 <remove_from_inventory>
    23b0:	11c12983          	lw	s3,284(sp)
    23b4:	11812a03          	lw	s4,280(sp)
    23b8:	11412a83          	lw	s5,276(sp)
    23bc:	11012b03          	lw	s6,272(sp)
    23c0:	10c12b83          	lw	s7,268(sp)
    23c4:	10812c03          	lw	s8,264(sp)
    23c8:	10412c83          	lw	s9,260(sp)
    23cc:	dfdff06f          	j	21c8 <interact_with_tile+0x970>
    23d0:	00010793          	mv	a5,sp
    23d4:	ea5ff06f          	j	2278 <interact_with_tile+0xa20>
    23d8:	00014603          	lbu	a2,0(sp)
    23dc:	00271793          	slli	a5,a4,0x2
    23e0:	00fb07b3          	add	a5,s6,a5
    23e4:	0007a683          	lw	a3,0(a5)
    23e8:	00010793          	mv	a5,sp
    23ec:	00060863          	beqz	a2,23fc <interact_with_tile+0xba4>
    23f0:	0017c703          	lbu	a4,1(a5)
    23f4:	00178793          	addi	a5,a5,1
    23f8:	fe071ce3          	bnez	a4,23f0 <interact_with_tile+0xb98>
    23fc:	0006c703          	lbu	a4,0(a3)
    2400:	ee070ae3          	beqz	a4,22f4 <interact_with_tile+0xa9c>
    2404:	00e78023          	sb	a4,0(a5)
    2408:	0016c703          	lbu	a4,1(a3)
    240c:	00178793          	addi	a5,a5,1
    2410:	00168693          	addi	a3,a3,1
    2414:	fe0718e3          	bnez	a4,2404 <interact_with_tile+0xbac>
    2418:	eddff06f          	j	22f4 <interact_with_tile+0xa9c>
    241c:	00005537          	lui	a0,0x5
    2420:	6b850513          	addi	a0,a0,1720 # 56b8 <CSWTCH.15+0x69c>
    2424:	00005937          	lui	s2,0x5
    2428:	11312e23          	sw	s3,284(sp)
    242c:	11412c23          	sw	s4,280(sp)
    2430:	11512a23          	sw	s5,276(sp)
    2434:	11612823          	sw	s6,272(sp)
    2438:	11712623          	sw	s7,268(sp)
    243c:	03100b13          	li	s6,49
    2440:	570020ef          	jal	49b0 <print>
    2444:	00c40b93          	addi	s7,s0,12
    2448:	00005ab7          	lui	s5,0x5
    244c:	00005a37          	lui	s4,0x5
    2450:	e6490913          	addi	s2,s2,-412 # 4e64 <COLLECTIBLE_NAMES>
    2454:	00a00993          	li	s3,10
    2458:	0180006f          	j	2470 <interact_with_tile+0xc18>
    245c:	001b0b13          	addi	s6,s6,1
    2460:	0ffb7b13          	zext.b	s6,s6
    2464:	03600793          	li	a5,54
    2468:	004b8b93          	addi	s7,s7,4
    246c:	10fb0263          	beq	s6,a5,2570 <interact_with_tile+0xd18>
    2470:	000ba603          	lw	a2,0(s7)
    2474:	fe0604e3          	beqz	a2,245c <interact_with_tile+0xc04>
    2478:	00010023          	sb	zero,0(sp)
    247c:	3b4a8693          	addi	a3,s5,948 # 53b4 <CSWTCH.15+0x398>
    2480:	00010793          	mv	a5,sp
    2484:	05300713          	li	a4,83
    2488:	00168693          	addi	a3,a3,1
    248c:	00e78023          	sb	a4,0(a5)
    2490:	0006c703          	lbu	a4,0(a3)
    2494:	00178793          	addi	a5,a5,1
    2498:	fe0718e3          	bnez	a4,2488 <interact_with_tile+0xc30>
    249c:	00078023          	sb	zero,0(a5)
    24a0:	00014783          	lbu	a5,0(sp)
    24a4:	0c078263          	beqz	a5,2568 <interact_with_tile+0xd10>
    24a8:	00010793          	mv	a5,sp
    24ac:	0017c703          	lbu	a4,1(a5)
    24b0:	00178793          	addi	a5,a5,1
    24b4:	fe071ce3          	bnez	a4,24ac <interact_with_tile+0xc54>
    24b8:	01678023          	sb	s6,0(a5)
    24bc:	000780a3          	sb	zero,1(a5)
    24c0:	00014783          	lbu	a5,0(sp)
    24c4:	38078063          	beqz	a5,2844 <interact_with_tile+0xfec>
    24c8:	00010793          	mv	a5,sp
    24cc:	0017c703          	lbu	a4,1(a5)
    24d0:	00178793          	addi	a5,a5,1
    24d4:	fe071ce3          	bnez	a4,24cc <interact_with_tile+0xc74>
    24d8:	3bca0693          	addi	a3,s4,956 # 53bc <CSWTCH.15+0x3a0>
    24dc:	03a00713          	li	a4,58
    24e0:	00168693          	addi	a3,a3,1
    24e4:	00e78023          	sb	a4,0(a5)
    24e8:	0006c703          	lbu	a4,0(a3)
    24ec:	00178793          	addi	a5,a5,1
    24f0:	fe0718e3          	bnez	a4,24e0 <interact_with_tile+0xc88>
    24f4:	00078023          	sb	zero,0(a5)
    24f8:	00014703          	lbu	a4,0(sp)
    24fc:	00261793          	slli	a5,a2,0x2
    2500:	00f907b3          	add	a5,s2,a5
    2504:	0007a683          	lw	a3,0(a5)
    2508:	00010793          	mv	a5,sp
    250c:	00070863          	beqz	a4,251c <interact_with_tile+0xcc4>
    2510:	0017c703          	lbu	a4,1(a5)
    2514:	00178793          	addi	a5,a5,1
    2518:	fe071ce3          	bnez	a4,2510 <interact_with_tile+0xcb8>
    251c:	0006c703          	lbu	a4,0(a3)
    2520:	00070c63          	beqz	a4,2538 <interact_with_tile+0xce0>
    2524:	00e78023          	sb	a4,0(a5)
    2528:	0016c703          	lbu	a4,1(a3)
    252c:	00178793          	addi	a5,a5,1
    2530:	00168693          	addi	a3,a3,1
    2534:	fe0718e3          	bnez	a4,2524 <interact_with_tile+0xccc>
    2538:	00078023          	sb	zero,0(a5)
    253c:	00014783          	lbu	a5,0(sp)
    2540:	2e078e63          	beqz	a5,283c <interact_with_tile+0xfe4>
    2544:	00010793          	mv	a5,sp
    2548:	0017c703          	lbu	a4,1(a5)
    254c:	00178793          	addi	a5,a5,1
    2550:	fe071ce3          	bnez	a4,2548 <interact_with_tile+0xcf0>
    2554:	00010513          	mv	a0,sp
    2558:	01378023          	sb	s3,0(a5)
    255c:	000780a3          	sb	zero,1(a5)
    2560:	450020ef          	jal	49b0 <print>
    2564:	ef9ff06f          	j	245c <interact_with_tile+0xc04>
    2568:	00010793          	mv	a5,sp
    256c:	f4dff06f          	j	24b8 <interact_with_tile+0xc60>
    2570:	00005537          	lui	a0,0x5
    2574:	6c850513          	addi	a0,a0,1736 # 56c8 <CSWTCH.15+0x6ac>
    2578:	438020ef          	jal	49b0 <print>
    257c:	58c010ef          	jal	3b08 <get_sw>
    2580:	fe051ee3          	bnez	a0,257c <interact_with_tile+0xd24>
    2584:	584010ef          	jal	3b08 <get_sw>
    2588:	fe050ee3          	beqz	a0,2584 <interact_with_tile+0xd2c>
    258c:	10057913          	andi	s2,a0,256
    2590:	30091063          	bnez	s2,2890 <interact_with_tile+0x1038>
    2594:	00157713          	andi	a4,a0,1
    2598:	00071863          	bnez	a4,25a8 <interact_with_tile+0xd50>
    259c:	00257713          	andi	a4,a0,2
    25a0:	32070263          	beqz	a4,28c4 <interact_with_tile+0x106c>
    25a4:	00100913          	li	s2,1
    25a8:	00291793          	slli	a5,s2,0x2
    25ac:	00f407b3          	add	a5,s0,a5
    25b0:	00c7a583          	lw	a1,12(a5)
    25b4:	0a058463          	beqz	a1,265c <interact_with_tile+0xe04>
    25b8:	00048513          	mv	a0,s1
    25bc:	6ec010ef          	jal	3ca8 <add_to_inventory>
    25c0:	00090593          	mv	a1,s2
    25c4:	00040513          	mv	a0,s0
    25c8:	24d010ef          	jal	4014 <remove_from_storage>
    25cc:	11c12983          	lw	s3,284(sp)
    25d0:	11812a03          	lw	s4,280(sp)
    25d4:	11412a83          	lw	s5,276(sp)
    25d8:	11012b03          	lw	s6,272(sp)
    25dc:	10c12b83          	lw	s7,268(sp)
    25e0:	be9ff06f          	j	21c8 <interact_with_tile+0x970>
    25e4:	0ff00793          	li	a5,255
    25e8:	1cf50263          	beq	a0,a5,27ac <interact_with_tile+0xf54>
    25ec:	0ca7ca63          	blt	a5,a0,26c0 <interact_with_tile+0xe68>
    25f0:	03f00793          	li	a5,63
    25f4:	1ef50463          	beq	a0,a5,27dc <interact_with_tile+0xf84>
    25f8:	07f00793          	li	a5,127
    25fc:	9af518e3          	bne	a0,a5,1fac <interact_with_tile+0x754>
    2600:	00006537          	lui	a0,0x6
    2604:	81850513          	addi	a0,a0,-2024 # 5818 <__global_pointer+0xe8>
    2608:	3a8020ef          	jal	49b0 <print>
    260c:	00005537          	lui	a0,0x5
    2610:	7a050513          	addi	a0,a0,1952 # 57a0 <__global_pointer+0x70>
    2614:	39c020ef          	jal	49b0 <print>
    2618:	04600513          	li	a0,70
    261c:	3cc020ef          	jal	49e8 <print_dec>
    2620:	00005537          	lui	a0,0x5
    2624:	7c050513          	addi	a0,a0,1984 # 57c0 <__global_pointer+0x90>
    2628:	388020ef          	jal	49b0 <print>
    262c:	00006537          	lui	a0,0x6
    2630:	82850513          	addi	a0,a0,-2008 # 5828 <__global_pointer+0xf8>
    2634:	37c020ef          	jal	49b0 <print>
    2638:	9a1ff06f          	j	1fd8 <interact_with_tile+0x780>
    263c:	4cc010ef          	jal	3b08 <get_sw>
    2640:	d00516e3          	bnez	a0,234c <interact_with_tile+0xaf4>
    2644:	00000913          	li	s2,0
    2648:	cf9ff06f          	j	2340 <interact_with_tile+0xae8>
    264c:	00010793          	mv	a5,sp
    2650:	c49ff06f          	j	2298 <interact_with_tile+0xa40>
    2654:	00010793          	mv	a5,sp
    2658:	cb9ff06f          	j	2310 <interact_with_tile+0xab8>
    265c:	00005537          	lui	a0,0x5
    2660:	72c50513          	addi	a0,a0,1836 # 572c <CSWTCH.15+0x710>
    2664:	34c020ef          	jal	49b0 <print>
    2668:	00400693          	li	a3,4
    266c:	000057b7          	lui	a5,0x5
    2670:	f507a703          	lw	a4,-176(a5) # 4f50 <timer_event>
    2674:	fe070ee3          	beqz	a4,2670 <interact_with_tile+0xe18>
    2678:	f407a823          	sw	zero,-176(a5)
    267c:	fff68693          	addi	a3,a3,-1
    2680:	fe0698e3          	bnez	a3,2670 <interact_with_tile+0xe18>
    2684:	f49ff06f          	j	25cc <interact_with_tile+0xd74>
    2688:	00000993          	li	s3,0
    268c:	00040513          	mv	a0,s0
    2690:	00900593          	li	a1,9
    2694:	0f5010ef          	jal	3f88 <add_fuel_enginebay>
    2698:	00040593          	mv	a1,s0
    269c:	00048513          	mv	a0,s1
    26a0:	299010ef          	jal	4138 <check_storage>
    26a4:	00048513          	mv	a0,s1
    26a8:	00098593          	mv	a1,s3
    26ac:	6dc010ef          	jal	3d88 <remove_from_inventory>
    26b0:	00006537          	lui	a0,0x6
    26b4:	8d850513          	addi	a0,a0,-1832 # 58d8 <__global_pointer+0x1a8>
    26b8:	2f8020ef          	jal	49b0 <print>
    26bc:	87dff06f          	j	1f38 <interact_with_tile+0x6e0>
    26c0:	1ff00793          	li	a5,511
    26c4:	14f50463          	beq	a0,a5,280c <interact_with_tile+0xfb4>
    26c8:	3ff00793          	li	a5,1023
    26cc:	8ef510e3          	bne	a0,a5,1fac <interact_with_tile+0x754>
    26d0:	00006537          	lui	a0,0x6
    26d4:	82450513          	addi	a0,a0,-2012 # 5824 <__global_pointer+0xf4>
    26d8:	2d8020ef          	jal	49b0 <print>
    26dc:	00005537          	lui	a0,0x5
    26e0:	7a050513          	addi	a0,a0,1952 # 57a0 <__global_pointer+0x70>
    26e4:	2cc020ef          	jal	49b0 <print>
    26e8:	06400513          	li	a0,100
    26ec:	2fc020ef          	jal	49e8 <print_dec>
    26f0:	00005537          	lui	a0,0x5
    26f4:	7c050513          	addi	a0,a0,1984 # 57c0 <__global_pointer+0x90>
    26f8:	2b8020ef          	jal	49b0 <print>
    26fc:	f31ff06f          	j	262c <interact_with_tile+0xdd4>
    2700:	00005537          	lui	a0,0x5
    2704:	69c50513          	addi	a0,a0,1692 # 569c <CSWTCH.15+0x680>
    2708:	2a8020ef          	jal	49b0 <print>
    270c:	00400693          	li	a3,4
    2710:	000057b7          	lui	a5,0x5
    2714:	f507a703          	lw	a4,-176(a5) # 4f50 <timer_event>
    2718:	fe070ee3          	beqz	a4,2714 <interact_with_tile+0xebc>
    271c:	f407a823          	sw	zero,-176(a5)
    2720:	fff68693          	addi	a3,a3,-1
    2724:	fe0698e3          	bnez	a3,2714 <interact_with_tile+0xebc>
    2728:	c89ff06f          	j	23b0 <interact_with_tile+0xb58>
    272c:	00005537          	lui	a0,0x5
    2730:	69050513          	addi	a0,a0,1680 # 5690 <CSWTCH.15+0x674>
    2734:	27c020ef          	jal	49b0 <print>
    2738:	00400693          	li	a3,4
    273c:	000057b7          	lui	a5,0x5
    2740:	f507a703          	lw	a4,-176(a5) # 4f50 <timer_event>
    2744:	fe070ee3          	beqz	a4,2740 <interact_with_tile+0xee8>
    2748:	f407a823          	sw	zero,-176(a5)
    274c:	fff68693          	addi	a3,a3,-1
    2750:	fe0698e3          	bnez	a3,2740 <interact_with_tile+0xee8>
    2754:	c5dff06f          	j	23b0 <interact_with_tile+0xb58>
    2758:	00006537          	lui	a0,0x6
    275c:	aac50513          	addi	a0,a0,-1364 # 5aac <__global_pointer+0x37c>
    2760:	250020ef          	jal	49b0 <print>
    2764:	00005537          	lui	a0,0x5
    2768:	51050513          	addi	a0,a0,1296 # 5510 <CSWTCH.15+0x4f4>
    276c:	244020ef          	jal	49b0 <print>
    2770:	00c0006f          	j	277c <interact_with_tile+0xf24>
    2774:	00257513          	andi	a0,a0,2
    2778:	da051063          	bnez	a0,1d18 <interact_with_tile+0x4c0>
    277c:	38c010ef          	jal	3b08 <get_sw>
    2780:	00157793          	andi	a5,a0,1
    2784:	fe0788e3          	beqz	a5,2774 <interact_with_tile+0xf1c>
    2788:	00006537          	lui	a0,0x6
    278c:	d6450513          	addi	a0,a0,-668 # 5d64 <__global_pointer+0x634>
    2790:	220020ef          	jal	49b0 <print>
    2794:	00c00593          	li	a1,12
    2798:	00048513          	mv	a0,s1
    279c:	50c010ef          	jal	3ca8 <add_to_inventory>
    27a0:	d78ff06f          	j	1d18 <interact_with_tile+0x4c0>
    27a4:	00100913          	li	s2,1
    27a8:	be1ff06f          	j	2388 <interact_with_tile+0xb30>
    27ac:	00006537          	lui	a0,0x6
    27b0:	81c50513          	addi	a0,a0,-2020 # 581c <__global_pointer+0xec>
    27b4:	1fc020ef          	jal	49b0 <print>
    27b8:	00005537          	lui	a0,0x5
    27bc:	7a050513          	addi	a0,a0,1952 # 57a0 <__global_pointer+0x70>
    27c0:	1f0020ef          	jal	49b0 <print>
    27c4:	05000513          	li	a0,80
    27c8:	220020ef          	jal	49e8 <print_dec>
    27cc:	00005537          	lui	a0,0x5
    27d0:	7c050513          	addi	a0,a0,1984 # 57c0 <__global_pointer+0x90>
    27d4:	1dc020ef          	jal	49b0 <print>
    27d8:	e55ff06f          	j	262c <interact_with_tile+0xdd4>
    27dc:	00006537          	lui	a0,0x6
    27e0:	81450513          	addi	a0,a0,-2028 # 5814 <__global_pointer+0xe4>
    27e4:	1cc020ef          	jal	49b0 <print>
    27e8:	00005537          	lui	a0,0x5
    27ec:	7a050513          	addi	a0,a0,1952 # 57a0 <__global_pointer+0x70>
    27f0:	1c0020ef          	jal	49b0 <print>
    27f4:	03c00513          	li	a0,60
    27f8:	1f0020ef          	jal	49e8 <print_dec>
    27fc:	00005537          	lui	a0,0x5
    2800:	7c050513          	addi	a0,a0,1984 # 57c0 <__global_pointer+0x90>
    2804:	1ac020ef          	jal	49b0 <print>
    2808:	fc4ff06f          	j	1fcc <interact_with_tile+0x774>
    280c:	00006537          	lui	a0,0x6
    2810:	82050513          	addi	a0,a0,-2016 # 5820 <__global_pointer+0xf0>
    2814:	19c020ef          	jal	49b0 <print>
    2818:	00005537          	lui	a0,0x5
    281c:	7a050513          	addi	a0,a0,1952 # 57a0 <__global_pointer+0x70>
    2820:	190020ef          	jal	49b0 <print>
    2824:	05a00513          	li	a0,90
    2828:	1c0020ef          	jal	49e8 <print_dec>
    282c:	00005537          	lui	a0,0x5
    2830:	7c050513          	addi	a0,a0,1984 # 57c0 <__global_pointer+0x90>
    2834:	17c020ef          	jal	49b0 <print>
    2838:	df5ff06f          	j	262c <interact_with_tile+0xdd4>
    283c:	00010793          	mv	a5,sp
    2840:	d15ff06f          	j	2554 <interact_with_tile+0xcfc>
    2844:	00010793          	mv	a5,sp
    2848:	c91ff06f          	j	24d8 <interact_with_tile+0xc80>
    284c:	00200913          	li	s2,2
    2850:	b39ff06f          	j	2388 <interact_with_tile+0xb30>
    2854:	00300993          	li	s3,3
    2858:	e35ff06f          	j	268c <interact_with_tile+0xe34>
    285c:	00200993          	li	s3,2
    2860:	e2dff06f          	j	268c <interact_with_tile+0xe34>
    2864:	00005537          	lui	a0,0x5
    2868:	69050513          	addi	a0,a0,1680 # 5690 <CSWTCH.15+0x674>
    286c:	144020ef          	jal	49b0 <print>
    2870:	00400693          	li	a3,4
    2874:	000057b7          	lui	a5,0x5
    2878:	f507a703          	lw	a4,-176(a5) # 4f50 <timer_event>
    287c:	fe070ee3          	beqz	a4,2878 <interact_with_tile+0x1020>
    2880:	f407a823          	sw	zero,-176(a5)
    2884:	fff68693          	addi	a3,a3,-1
    2888:	fe0698e3          	bnez	a3,2878 <interact_with_tile+0x1020>
    288c:	b25ff06f          	j	23b0 <interact_with_tile+0xb58>
    2890:	00005537          	lui	a0,0x5
    2894:	69050513          	addi	a0,a0,1680 # 5690 <CSWTCH.15+0x674>
    2898:	118020ef          	jal	49b0 <print>
    289c:	00400693          	li	a3,4
    28a0:	000057b7          	lui	a5,0x5
    28a4:	f507a703          	lw	a4,-176(a5) # 4f50 <timer_event>
    28a8:	fe070ee3          	beqz	a4,28a4 <interact_with_tile+0x104c>
    28ac:	f407a823          	sw	zero,-176(a5)
    28b0:	fff68693          	addi	a3,a3,-1
    28b4:	fe0698e3          	bnez	a3,28a4 <interact_with_tile+0x104c>
    28b8:	d15ff06f          	j	25cc <interact_with_tile+0xd74>
    28bc:	00300913          	li	s2,3
    28c0:	ac9ff06f          	j	2388 <interact_with_tile+0xb30>
    28c4:	00457713          	andi	a4,a0,4
    28c8:	00070663          	beqz	a4,28d4 <interact_with_tile+0x107c>
    28cc:	00200913          	li	s2,2
    28d0:	cd9ff06f          	j	25a8 <interact_with_tile+0xd50>
    28d4:	00857713          	andi	a4,a0,8
    28d8:	00070663          	beqz	a4,28e4 <interact_with_tile+0x108c>
    28dc:	00300913          	li	s2,3
    28e0:	cc9ff06f          	j	25a8 <interact_with_tile+0xd50>
    28e4:	01057793          	andi	a5,a0,16
    28e8:	c8078ee3          	beqz	a5,2584 <interact_with_tile+0xd2c>
    28ec:	00400913          	li	s2,4
    28f0:	cb9ff06f          	j	25a8 <interact_with_tile+0xd50>

000028f4 <handle_input>:
    28f4:	ff010113          	addi	sp,sp,-16
    28f8:	00812423          	sw	s0,8(sp)
    28fc:	00912223          	sw	s1,4(sp)
    2900:	01212023          	sw	s2,0(sp)
    2904:	00112623          	sw	ra,12(sp)
    2908:	20057913          	andi	s2,a0,512
    290c:	0005a783          	lw	a5,0(a1)
    2910:	0045a703          	lw	a4,4(a1)
    2914:	00050413          	mv	s0,a0
    2918:	00058493          	mv	s1,a1
    291c:	00060813          	mv	a6,a2
    2920:	1e091863          	bnez	s2,2b10 <handle_input+0x21c>
    2924:	00157513          	andi	a0,a0,1
    2928:	00247693          	andi	a3,s0,2
    292c:	00050593          	mv	a1,a0
    2930:	00a787b3          	add	a5,a5,a0
    2934:	00447613          	andi	a2,s0,4
    2938:	00847513          	andi	a0,s0,8
    293c:	14068263          	beqz	a3,2a80 <handle_input+0x18c>
    2940:	fff78793          	addi	a5,a5,-1
    2944:	20060463          	beqz	a2,2b4c <handle_input+0x258>
    2948:	00153513          	seqz	a0,a0
    294c:	00a70733          	add	a4,a4,a0
    2950:	00900693          	li	a3,9
    2954:	12f6ee63          	bltu	a3,a5,2a90 <handle_input+0x19c>
    2958:	12e6ec63          	bltu	a3,a4,2a90 <handle_input+0x19c>
    295c:	19000593          	li	a1,400
    2960:	02b706b3          	mul	a3,a4,a1
    2964:	00279613          	slli	a2,a5,0x2
    2968:	00f60633          	add	a2,a2,a5
    296c:	00361613          	slli	a2,a2,0x3
    2970:	01000513          	li	a0,16
    2974:	00d806b3          	add	a3,a6,a3
    2978:	00c686b3          	add	a3,a3,a2
    297c:	0006a683          	lw	a3,0(a3)
    2980:	10a68863          	beq	a3,a0,2a90 <handle_input+0x19c>
    2984:	02b785b3          	mul	a1,a5,a1
    2988:	00271613          	slli	a2,a4,0x2
    298c:	00e60633          	add	a2,a2,a4
    2990:	00361613          	slli	a2,a2,0x3
    2994:	00f00513          	li	a0,15
    2998:	00b806b3          	add	a3,a6,a1
    299c:	00c686b3          	add	a3,a3,a2
    29a0:	0006a683          	lw	a3,0(a3)
    29a4:	0ea68663          	beq	a3,a0,2a90 <handle_input+0x19c>
    29a8:	00f4a023          	sw	a5,0(s1)
    29ac:	00e4a223          	sw	a4,4(s1)
    29b0:	04047793          	andi	a5,s0,64
    29b4:	04078c63          	beqz	a5,2a0c <handle_input+0x118>
    29b8:	0104a703          	lw	a4,16(s1)
    29bc:	00800793          	li	a5,8
    29c0:	1af70463          	beq	a4,a5,2b68 <handle_input+0x274>
    29c4:	0144a703          	lw	a4,20(s1)
    29c8:	1ef70c63          	beq	a4,a5,2bc0 <handle_input+0x2cc>
    29cc:	0184a703          	lw	a4,24(s1)
    29d0:	1ef70c63          	beq	a4,a5,2bc8 <handle_input+0x2d4>
    29d4:	01c4a703          	lw	a4,28(s1)
    29d8:	20f70063          	beq	a4,a5,2bd8 <handle_input+0x2e4>
    29dc:	0204a703          	lw	a4,32(s1)
    29e0:	20f70463          	beq	a4,a5,2be8 <handle_input+0x2f4>
    29e4:	00006537          	lui	a0,0x6
    29e8:	f2850513          	addi	a0,a0,-216 # 5f28 <__global_pointer+0x7f8>
    29ec:	7c5010ef          	jal	49b0 <print>
    29f0:	00400693          	li	a3,4
    29f4:	000057b7          	lui	a5,0x5
    29f8:	f507a703          	lw	a4,-176(a5) # 4f50 <timer_event>
    29fc:	fe070ee3          	beqz	a4,29f8 <handle_input+0x104>
    2a00:	f407a823          	sw	zero,-176(a5)
    2a04:	fff68693          	addi	a3,a3,-1
    2a08:	fe0698e3          	bnez	a3,29f8 <handle_input+0x104>
    2a0c:	08047413          	andi	s0,s0,128
    2a10:	04040c63          	beqz	s0,2a68 <handle_input+0x174>
    2a14:	0104a703          	lw	a4,16(s1)
    2a18:	00700793          	li	a5,7
    2a1c:	0af70263          	beq	a4,a5,2ac0 <handle_input+0x1cc>
    2a20:	0144a703          	lw	a4,20(s1)
    2a24:	08f70c63          	beq	a4,a5,2abc <handle_input+0x1c8>
    2a28:	0184a703          	lw	a4,24(s1)
    2a2c:	1af70263          	beq	a4,a5,2bd0 <handle_input+0x2dc>
    2a30:	01c4a703          	lw	a4,28(s1)
    2a34:	1af70663          	beq	a4,a5,2be0 <handle_input+0x2ec>
    2a38:	0204a703          	lw	a4,32(s1)
    2a3c:	1af70a63          	beq	a4,a5,2bf0 <handle_input+0x2fc>
    2a40:	00006537          	lui	a0,0x6
    2a44:	f4850513          	addi	a0,a0,-184 # 5f48 <__global_pointer+0x818>
    2a48:	769010ef          	jal	49b0 <print>
    2a4c:	00400693          	li	a3,4
    2a50:	000057b7          	lui	a5,0x5
    2a54:	f507a703          	lw	a4,-176(a5) # 4f50 <timer_event>
    2a58:	fe070ee3          	beqz	a4,2a54 <handle_input+0x160>
    2a5c:	f407a823          	sw	zero,-176(a5)
    2a60:	fff68693          	addi	a3,a3,-1
    2a64:	fe0698e3          	bnez	a3,2a54 <handle_input+0x160>
    2a68:	00c12083          	lw	ra,12(sp)
    2a6c:	00812403          	lw	s0,8(sp)
    2a70:	00412483          	lw	s1,4(sp)
    2a74:	00012903          	lw	s2,0(sp)
    2a78:	01010113          	addi	sp,sp,16
    2a7c:	00008067          	ret
    2a80:	ec0614e3          	bnez	a2,2948 <handle_input+0x54>
    2a84:	0c050e63          	beqz	a0,2b60 <handle_input+0x26c>
    2a88:	fff70713          	addi	a4,a4,-1
    2a8c:	ec5ff06f          	j	2950 <handle_input+0x5c>
    2a90:	00006537          	lui	a0,0x6
    2a94:	ed850513          	addi	a0,a0,-296 # 5ed8 <__global_pointer+0x7a8>
    2a98:	719010ef          	jal	49b0 <print>
    2a9c:	00400693          	li	a3,4
    2aa0:	000057b7          	lui	a5,0x5
    2aa4:	f507a703          	lw	a4,-176(a5) # 4f50 <timer_event>
    2aa8:	fe070ee3          	beqz	a4,2aa4 <handle_input+0x1b0>
    2aac:	f407a823          	sw	zero,-176(a5)
    2ab0:	fff68693          	addi	a3,a3,-1
    2ab4:	fe0698e3          	bnez	a3,2aa4 <handle_input+0x1b0>
    2ab8:	ef9ff06f          	j	29b0 <handle_input+0xbc>
    2abc:	00100913          	li	s2,1
    2ac0:	0084a703          	lw	a4,8(s1)
    2ac4:	00490793          	addi	a5,s2,4
    2ac8:	00279793          	slli	a5,a5,0x2
    2acc:	00f487b3          	add	a5,s1,a5
    2ad0:	0007a023          	sw	zero,0(a5)
    2ad4:	03270793          	addi	a5,a4,50
    2ad8:	06300713          	li	a4,99
    2adc:	06f74e63          	blt	a4,a5,2b58 <handle_input+0x264>
    2ae0:	00006537          	lui	a0,0x6
    2ae4:	00f4a423          	sw	a5,8(s1)
    2ae8:	f6450513          	addi	a0,a0,-156 # 5f64 <__global_pointer+0x834>
    2aec:	6c5010ef          	jal	49b0 <print>
    2af0:	00400693          	li	a3,4
    2af4:	000057b7          	lui	a5,0x5
    2af8:	f507a703          	lw	a4,-176(a5) # 4f50 <timer_event>
    2afc:	fe070ee3          	beqz	a4,2af8 <handle_input+0x204>
    2b00:	f407a823          	sw	zero,-176(a5)
    2b04:	fff68693          	addi	a3,a3,-1
    2b08:	fe0698e3          	bnez	a3,2af8 <handle_input+0x204>
    2b0c:	f5dff06f          	j	2a68 <handle_input+0x174>
    2b10:	19000593          	li	a1,400
    2b14:	02b705b3          	mul	a1,a4,a1
    2b18:	00279713          	slli	a4,a5,0x2
    2b1c:	00812403          	lw	s0,8(sp)
    2b20:	00f707b3          	add	a5,a4,a5
    2b24:	00c12083          	lw	ra,12(sp)
    2b28:	00012903          	lw	s2,0(sp)
    2b2c:	00379793          	slli	a5,a5,0x3
    2b30:	00050693          	mv	a3,a0
    2b34:	00048513          	mv	a0,s1
    2b38:	00412483          	lw	s1,4(sp)
    2b3c:	00f585b3          	add	a1,a1,a5
    2b40:	00b605b3          	add	a1,a2,a1
    2b44:	01010113          	addi	sp,sp,16
    2b48:	d11fe06f          	j	1858 <interact_with_tile>
    2b4c:	00a03533          	snez	a0,a0
    2b50:	40a70733          	sub	a4,a4,a0
    2b54:	dfdff06f          	j	2950 <handle_input+0x5c>
    2b58:	06300793          	li	a5,99
    2b5c:	f85ff06f          	j	2ae0 <handle_input+0x1ec>
    2b60:	e40588e3          	beqz	a1,29b0 <handle_input+0xbc>
    2b64:	dedff06f          	j	2950 <handle_input+0x5c>
    2b68:	00000793          	li	a5,0
    2b6c:	0244a703          	lw	a4,36(s1)
    2b70:	00478793          	addi	a5,a5,4
    2b74:	00279793          	slli	a5,a5,0x2
    2b78:	00f487b3          	add	a5,s1,a5
    2b7c:	0007a023          	sw	zero,0(a5)
    2b80:	03270793          	addi	a5,a4,50
    2b84:	06300713          	li	a4,99
    2b88:	00f75463          	bge	a4,a5,2b90 <handle_input+0x29c>
    2b8c:	06300793          	li	a5,99
    2b90:	00006537          	lui	a0,0x6
    2b94:	02f4a223          	sw	a5,36(s1)
    2b98:	efc50513          	addi	a0,a0,-260 # 5efc <__global_pointer+0x7cc>
    2b9c:	615010ef          	jal	49b0 <print>
    2ba0:	00400693          	li	a3,4
    2ba4:	000057b7          	lui	a5,0x5
    2ba8:	f507a703          	lw	a4,-176(a5) # 4f50 <timer_event>
    2bac:	fe070ee3          	beqz	a4,2ba8 <handle_input+0x2b4>
    2bb0:	f407a823          	sw	zero,-176(a5)
    2bb4:	fff68693          	addi	a3,a3,-1
    2bb8:	fe0698e3          	bnez	a3,2ba8 <handle_input+0x2b4>
    2bbc:	e51ff06f          	j	2a0c <handle_input+0x118>
    2bc0:	00100793          	li	a5,1
    2bc4:	fa9ff06f          	j	2b6c <handle_input+0x278>
    2bc8:	00200793          	li	a5,2
    2bcc:	fa1ff06f          	j	2b6c <handle_input+0x278>
    2bd0:	00200913          	li	s2,2
    2bd4:	eedff06f          	j	2ac0 <handle_input+0x1cc>
    2bd8:	00300793          	li	a5,3
    2bdc:	f91ff06f          	j	2b6c <handle_input+0x278>
    2be0:	00300913          	li	s2,3
    2be4:	eddff06f          	j	2ac0 <handle_input+0x1cc>
    2be8:	00400793          	li	a5,4
    2bec:	f81ff06f          	j	2b6c <handle_input+0x278>
    2bf0:	00400913          	li	s2,4
    2bf4:	ecdff06f          	j	2ac0 <handle_input+0x1cc>

00002bf8 <main>:
    2bf8:	fffff2b7          	lui	t0,0xfffff
    2bfc:	f7010113          	addi	sp,sp,-144
    2c00:	08112623          	sw	ra,140(sp)
    2c04:	08812423          	sw	s0,136(sp)
    2c08:	08912223          	sw	s1,132(sp)
    2c0c:	09212023          	sw	s2,128(sp)
    2c10:	07312e23          	sw	s3,124(sp)
    2c14:	07412c23          	sw	s4,120(sp)
    2c18:	07512a23          	sw	s5,116(sp)
    2c1c:	07612823          	sw	s6,112(sp)
    2c20:	07712623          	sw	s7,108(sp)
    2c24:	07812423          	sw	s8,104(sp)
    2c28:	07912223          	sw	s9,100(sp)
    2c2c:	07a12023          	sw	s10,96(sp)
    2c30:	00510133          	add	sp,sp,t0
    2c34:	00001437          	lui	s0,0x1
    2c38:	77d000ef          	jal	3bb4 <labinit>
    2c3c:	fffff7b7          	lui	a5,0xfffff
    2c40:	05040713          	addi	a4,s0,80 # 1050 <display_frame+0x74c>
    2c44:	00f70733          	add	a4,a4,a5
    2c48:	01010793          	addi	a5,sp,16
    2c4c:	00f707b3          	add	a5,a4,a5
    2c50:	06078513          	addi	a0,a5,96 # fffff060 <_stack_end+0xffef8a84>
    2c54:	00a00593          	li	a1,10
    2c58:	00f12023          	sw	a5,0(sp)
    2c5c:	2a9010ef          	jal	4704 <ct>
    2c60:	00012783          	lw	a5,0(sp)
    2c64:	00900593          	li	a1,9
    2c68:	00040b13          	mv	s6,s0
    2c6c:	08878513          	addi	a0,a5,136
    2c70:	295010ef          	jal	4704 <ct>
    2c74:	00012783          	lw	a5,0(sp)
    2c78:	00800593          	li	a1,8
    2c7c:	0b078513          	addi	a0,a5,176
    2c80:	285010ef          	jal	4704 <ct>
    2c84:	00012783          	lw	a5,0(sp)
    2c88:	00800593          	li	a1,8
    2c8c:	0d878513          	addi	a0,a5,216
    2c90:	275010ef          	jal	4704 <ct>
    2c94:	00012783          	lw	a5,0(sp)
    2c98:	00800593          	li	a1,8
    2c9c:	10078513          	addi	a0,a5,256
    2ca0:	265010ef          	jal	4704 <ct>
    2ca4:	00012783          	lw	a5,0(sp)
    2ca8:	00a00593          	li	a1,10
    2cac:	12878513          	addi	a0,a5,296
    2cb0:	255010ef          	jal	4704 <ct>
    2cb4:	00012783          	lw	a5,0(sp)
    2cb8:	00800593          	li	a1,8
    2cbc:	15078513          	addi	a0,a5,336
    2cc0:	245010ef          	jal	4704 <ct>
    2cc4:	00012783          	lw	a5,0(sp)
    2cc8:	00800593          	li	a1,8
    2ccc:	17878513          	addi	a0,a5,376
    2cd0:	235010ef          	jal	4704 <ct>
    2cd4:	00012783          	lw	a5,0(sp)
    2cd8:	00f00593          	li	a1,15
    2cdc:	1a078513          	addi	a0,a5,416
    2ce0:	225010ef          	jal	4704 <ct>
    2ce4:	00012783          	lw	a5,0(sp)
    2ce8:	00a00593          	li	a1,10
    2cec:	1c878513          	addi	a0,a5,456
    2cf0:	215010ef          	jal	4704 <ct>
    2cf4:	00012783          	lw	a5,0(sp)
    2cf8:	00b00593          	li	a1,11
    2cfc:	1f078513          	addi	a0,a5,496
    2d00:	205010ef          	jal	4704 <ct>
    2d04:	00012783          	lw	a5,0(sp)
    2d08:	00800593          	li	a1,8
    2d0c:	21878513          	addi	a0,a5,536
    2d10:	1f5010ef          	jal	4704 <ct>
    2d14:	00012783          	lw	a5,0(sp)
    2d18:	00800593          	li	a1,8
    2d1c:	24078513          	addi	a0,a5,576
    2d20:	1e5010ef          	jal	4704 <ct>
    2d24:	00012783          	lw	a5,0(sp)
    2d28:	00800593          	li	a1,8
    2d2c:	26878513          	addi	a0,a5,616
    2d30:	1d5010ef          	jal	4704 <ct>
    2d34:	00012783          	lw	a5,0(sp)
    2d38:	00800593          	li	a1,8
    2d3c:	29078513          	addi	a0,a5,656
    2d40:	1c5010ef          	jal	4704 <ct>
    2d44:	00012783          	lw	a5,0(sp)
    2d48:	00800593          	li	a1,8
    2d4c:	2b878513          	addi	a0,a5,696
    2d50:	1b5010ef          	jal	4704 <ct>
    2d54:	00012783          	lw	a5,0(sp)
    2d58:	00a00593          	li	a1,10
    2d5c:	2e078513          	addi	a0,a5,736
    2d60:	1a5010ef          	jal	4704 <ct>
    2d64:	00012783          	lw	a5,0(sp)
    2d68:	00800593          	li	a1,8
    2d6c:	30878513          	addi	a0,a5,776
    2d70:	195010ef          	jal	4704 <ct>
    2d74:	00012783          	lw	a5,0(sp)
    2d78:	00f00593          	li	a1,15
    2d7c:	33078513          	addi	a0,a5,816
    2d80:	185010ef          	jal	4704 <ct>
    2d84:	00012783          	lw	a5,0(sp)
    2d88:	00e00593          	li	a1,14
    2d8c:	35878513          	addi	a0,a5,856
    2d90:	175010ef          	jal	4704 <ct>
    2d94:	00012783          	lw	a5,0(sp)
    2d98:	01000593          	li	a1,16
    2d9c:	38078513          	addi	a0,a5,896
    2da0:	165010ef          	jal	4704 <ct>
    2da4:	00012783          	lw	a5,0(sp)
    2da8:	01000593          	li	a1,16
    2dac:	3a878513          	addi	a0,a5,936
    2db0:	155010ef          	jal	4704 <ct>
    2db4:	00012783          	lw	a5,0(sp)
    2db8:	01000593          	li	a1,16
    2dbc:	3d078513          	addi	a0,a5,976
    2dc0:	145010ef          	jal	4704 <ct>
    2dc4:	00012783          	lw	a5,0(sp)
    2dc8:	00800593          	li	a1,8
    2dcc:	3f878513          	addi	a0,a5,1016
    2dd0:	135010ef          	jal	4704 <ct>
    2dd4:	00012783          	lw	a5,0(sp)
    2dd8:	00800593          	li	a1,8
    2ddc:	42078513          	addi	a0,a5,1056
    2de0:	125010ef          	jal	4704 <ct>
    2de4:	00012783          	lw	a5,0(sp)
    2de8:	00800593          	li	a1,8
    2dec:	44878513          	addi	a0,a5,1096
    2df0:	115010ef          	jal	4704 <ct>
    2df4:	00012783          	lw	a5,0(sp)
    2df8:	00800593          	li	a1,8
    2dfc:	47078513          	addi	a0,a5,1136
    2e00:	105010ef          	jal	4704 <ct>
    2e04:	00012783          	lw	a5,0(sp)
    2e08:	00800593          	li	a1,8
    2e0c:	49878513          	addi	a0,a5,1176
    2e10:	0f5010ef          	jal	4704 <ct>
    2e14:	00012783          	lw	a5,0(sp)
    2e18:	00f00593          	li	a1,15
    2e1c:	4c078513          	addi	a0,a5,1216
    2e20:	0e5010ef          	jal	4704 <ct>
    2e24:	00012783          	lw	a5,0(sp)
    2e28:	00e00593          	li	a1,14
    2e2c:	4e878513          	addi	a0,a5,1256
    2e30:	0d5010ef          	jal	4704 <ct>
    2e34:	00012783          	lw	a5,0(sp)
    2e38:	00100593          	li	a1,1
    2e3c:	51078513          	addi	a0,a5,1296
    2e40:	0c5010ef          	jal	4704 <ct>
    2e44:	00012783          	lw	a5,0(sp)
    2e48:	00200593          	li	a1,2
    2e4c:	53878513          	addi	a0,a5,1336
    2e50:	0b5010ef          	jal	4704 <ct>
    2e54:	00012783          	lw	a5,0(sp)
    2e58:	01000593          	li	a1,16
    2e5c:	56078513          	addi	a0,a5,1376
    2e60:	0a5010ef          	jal	4704 <ct>
    2e64:	00012783          	lw	a5,0(sp)
    2e68:	00800593          	li	a1,8
    2e6c:	58878513          	addi	a0,a5,1416
    2e70:	095010ef          	jal	4704 <ct>
    2e74:	00012783          	lw	a5,0(sp)
    2e78:	00800593          	li	a1,8
    2e7c:	5b078513          	addi	a0,a5,1456
    2e80:	085010ef          	jal	4704 <ct>
    2e84:	00012783          	lw	a5,0(sp)
    2e88:	00800593          	li	a1,8
    2e8c:	5d878513          	addi	a0,a5,1496
    2e90:	075010ef          	jal	4704 <ct>
    2e94:	00012783          	lw	a5,0(sp)
    2e98:	00b00593          	li	a1,11
    2e9c:	60078513          	addi	a0,a5,1536
    2ea0:	065010ef          	jal	4704 <ct>
    2ea4:	00012783          	lw	a5,0(sp)
    2ea8:	00a00593          	li	a1,10
    2eac:	62878513          	addi	a0,a5,1576
    2eb0:	055010ef          	jal	4704 <ct>
    2eb4:	00012783          	lw	a5,0(sp)
    2eb8:	00f00593          	li	a1,15
    2ebc:	65078513          	addi	a0,a5,1616
    2ec0:	045010ef          	jal	4704 <ct>
    2ec4:	00012783          	lw	a5,0(sp)
    2ec8:	00800593          	li	a1,8
    2ecc:	67878513          	addi	a0,a5,1656
    2ed0:	035010ef          	jal	4704 <ct>
    2ed4:	00012783          	lw	a5,0(sp)
    2ed8:	00300593          	li	a1,3
    2edc:	6a078513          	addi	a0,a5,1696
    2ee0:	025010ef          	jal	4704 <ct>
    2ee4:	00012783          	lw	a5,0(sp)
    2ee8:	00000593          	li	a1,0
    2eec:	6c878513          	addi	a0,a5,1736
    2ef0:	015010ef          	jal	4704 <ct>
    2ef4:	00012783          	lw	a5,0(sp)
    2ef8:	00600593          	li	a1,6
    2efc:	6f078513          	addi	a0,a5,1776
    2f00:	005010ef          	jal	4704 <ct>
    2f04:	00012783          	lw	a5,0(sp)
    2f08:	00700593          	li	a1,7
    2f0c:	71878513          	addi	a0,a5,1816
    2f10:	7f4010ef          	jal	4704 <ct>
    2f14:	00012783          	lw	a5,0(sp)
    2f18:	00800593          	li	a1,8
    2f1c:	74078513          	addi	a0,a5,1856
    2f20:	7e4010ef          	jal	4704 <ct>
    2f24:	00012783          	lw	a5,0(sp)
    2f28:	00800593          	li	a1,8
    2f2c:	76878513          	addi	a0,a5,1896
    2f30:	7d4010ef          	jal	4704 <ct>
    2f34:	00012783          	lw	a5,0(sp)
    2f38:	00800593          	li	a1,8
    2f3c:	79078513          	addi	a0,a5,1936
    2f40:	7c4010ef          	jal	4704 <ct>
    2f44:	00012783          	lw	a5,0(sp)
    2f48:	00800593          	li	a1,8
    2f4c:	7b878513          	addi	a0,a5,1976
    2f50:	7b4010ef          	jal	4704 <ct>
    2f54:	00012783          	lw	a5,0(sp)
    2f58:	00f00593          	li	a1,15
    2f5c:	7e078513          	addi	a0,a5,2016
    2f60:	7a4010ef          	jal	4704 <ct>
    2f64:	86840793          	addi	a5,s0,-1944
    2f68:	00278533          	add	a0,a5,sp
    2f6c:	00900593          	li	a1,9
    2f70:	794010ef          	jal	4704 <ct>
    2f74:	89040793          	addi	a5,s0,-1904
    2f78:	00278533          	add	a0,a5,sp
    2f7c:	00400593          	li	a1,4
    2f80:	784010ef          	jal	4704 <ct>
    2f84:	8b840793          	addi	a5,s0,-1864
    2f88:	00278533          	add	a0,a5,sp
    2f8c:	00500593          	li	a1,5
    2f90:	774010ef          	jal	4704 <ct>
    2f94:	8e040793          	addi	a5,s0,-1824
    2f98:	00278533          	add	a0,a5,sp
    2f9c:	01000593          	li	a1,16
    2fa0:	764010ef          	jal	4704 <ct>
    2fa4:	90840793          	addi	a5,s0,-1784
    2fa8:	00278533          	add	a0,a5,sp
    2fac:	00800593          	li	a1,8
    2fb0:	754010ef          	jal	4704 <ct>
    2fb4:	93040793          	addi	a5,s0,-1744
    2fb8:	00278533          	add	a0,a5,sp
    2fbc:	00800593          	li	a1,8
    2fc0:	744010ef          	jal	4704 <ct>
    2fc4:	95840793          	addi	a5,s0,-1704
    2fc8:	00278533          	add	a0,a5,sp
    2fcc:	00900593          	li	a1,9
    2fd0:	734010ef          	jal	4704 <ct>
    2fd4:	98040793          	addi	a5,s0,-1664
    2fd8:	00278533          	add	a0,a5,sp
    2fdc:	00800593          	li	a1,8
    2fe0:	724010ef          	jal	4704 <ct>
    2fe4:	9a840793          	addi	a5,s0,-1624
    2fe8:	00278533          	add	a0,a5,sp
    2fec:	00800593          	li	a1,8
    2ff0:	714010ef          	jal	4704 <ct>
    2ff4:	9d040793          	addi	a5,s0,-1584
    2ff8:	00278533          	add	a0,a5,sp
    2ffc:	00f00593          	li	a1,15
    3000:	704010ef          	jal	4704 <ct>
    3004:	9f840793          	addi	a5,s0,-1544
    3008:	00278533          	add	a0,a5,sp
    300c:	00800593          	li	a1,8
    3010:	6f4010ef          	jal	4704 <ct>
    3014:	a2040793          	addi	a5,s0,-1504
    3018:	00278533          	add	a0,a5,sp
    301c:	01000593          	li	a1,16
    3020:	6e4010ef          	jal	4704 <ct>
    3024:	a4840793          	addi	a5,s0,-1464
    3028:	00278533          	add	a0,a5,sp
    302c:	01000593          	li	a1,16
    3030:	6d4010ef          	jal	4704 <ct>
    3034:	a7040793          	addi	a5,s0,-1424
    3038:	00278533          	add	a0,a5,sp
    303c:	01000593          	li	a1,16
    3040:	6c4010ef          	jal	4704 <ct>
    3044:	a9840793          	addi	a5,s0,-1384
    3048:	00278533          	add	a0,a5,sp
    304c:	00b00593          	li	a1,11
    3050:	6b4010ef          	jal	4704 <ct>
    3054:	ac040793          	addi	a5,s0,-1344
    3058:	00278533          	add	a0,a5,sp
    305c:	00800593          	li	a1,8
    3060:	6a4010ef          	jal	4704 <ct>
    3064:	ae840793          	addi	a5,s0,-1304
    3068:	00278533          	add	a0,a5,sp
    306c:	00800593          	li	a1,8
    3070:	694010ef          	jal	4704 <ct>
    3074:	b1040793          	addi	a5,s0,-1264
    3078:	00278533          	add	a0,a5,sp
    307c:	00800593          	li	a1,8
    3080:	684010ef          	jal	4704 <ct>
    3084:	b3840793          	addi	a5,s0,-1224
    3088:	00278533          	add	a0,a5,sp
    308c:	00800593          	li	a1,8
    3090:	674010ef          	jal	4704 <ct>
    3094:	b6040793          	addi	a5,s0,-1184
    3098:	00278533          	add	a0,a5,sp
    309c:	00b00593          	li	a1,11
    30a0:	664010ef          	jal	4704 <ct>
    30a4:	b8840793          	addi	a5,s0,-1144
    30a8:	00278533          	add	a0,a5,sp
    30ac:	00800593          	li	a1,8
    30b0:	654010ef          	jal	4704 <ct>
    30b4:	bb040793          	addi	a5,s0,-1104
    30b8:	00278533          	add	a0,a5,sp
    30bc:	00800593          	li	a1,8
    30c0:	644010ef          	jal	4704 <ct>
    30c4:	bd840793          	addi	a5,s0,-1064
    30c8:	00278533          	add	a0,a5,sp
    30cc:	00800593          	li	a1,8
    30d0:	634010ef          	jal	4704 <ct>
    30d4:	c0040793          	addi	a5,s0,-1024
    30d8:	00278533          	add	a0,a5,sp
    30dc:	00900593          	li	a1,9
    30e0:	624010ef          	jal	4704 <ct>
    30e4:	c2840793          	addi	a5,s0,-984
    30e8:	00278533          	add	a0,a5,sp
    30ec:	00800593          	li	a1,8
    30f0:	614010ef          	jal	4704 <ct>
    30f4:	c5040793          	addi	a5,s0,-944
    30f8:	00278533          	add	a0,a5,sp
    30fc:	00800593          	li	a1,8
    3100:	604010ef          	jal	4704 <ct>
    3104:	c7840793          	addi	a5,s0,-904
    3108:	00278533          	add	a0,a5,sp
    310c:	00e00593          	li	a1,14
    3110:	5f4010ef          	jal	4704 <ct>
    3114:	ca040793          	addi	a5,s0,-864
    3118:	00278533          	add	a0,a5,sp
    311c:	00800593          	li	a1,8
    3120:	5e4010ef          	jal	4704 <ct>
    3124:	cc840793          	addi	a5,s0,-824
    3128:	00278533          	add	a0,a5,sp
    312c:	00800593          	li	a1,8
    3130:	5d4010ef          	jal	4704 <ct>
    3134:	cf040793          	addi	a5,s0,-784
    3138:	00278533          	add	a0,a5,sp
    313c:	00f00593          	li	a1,15
    3140:	5c4010ef          	jal	4704 <ct>
    3144:	d1840793          	addi	a5,s0,-744
    3148:	00278533          	add	a0,a5,sp
    314c:	00800593          	li	a1,8
    3150:	5b4010ef          	jal	4704 <ct>
    3154:	d4040793          	addi	a5,s0,-704
    3158:	00278533          	add	a0,a5,sp
    315c:	00d00593          	li	a1,13
    3160:	5a4010ef          	jal	4704 <ct>
    3164:	d6840793          	addi	a5,s0,-664
    3168:	00278533          	add	a0,a5,sp
    316c:	00800593          	li	a1,8
    3170:	594010ef          	jal	4704 <ct>
    3174:	d9040793          	addi	a5,s0,-624
    3178:	00278533          	add	a0,a5,sp
    317c:	00800593          	li	a1,8
    3180:	584010ef          	jal	4704 <ct>
    3184:	db840793          	addi	a5,s0,-584
    3188:	00278533          	add	a0,a5,sp
    318c:	00f00593          	li	a1,15
    3190:	574010ef          	jal	4704 <ct>
    3194:	de040793          	addi	a5,s0,-544
    3198:	00278533          	add	a0,a5,sp
    319c:	00f00593          	li	a1,15
    31a0:	564010ef          	jal	4704 <ct>
    31a4:	e0840793          	addi	a5,s0,-504
    31a8:	00278533          	add	a0,a5,sp
    31ac:	00800593          	li	a1,8
    31b0:	554010ef          	jal	4704 <ct>
    31b4:	e3040793          	addi	a5,s0,-464
    31b8:	00278533          	add	a0,a5,sp
    31bc:	00f00593          	li	a1,15
    31c0:	544010ef          	jal	4704 <ct>
    31c4:	e5840793          	addi	a5,s0,-424
    31c8:	00278533          	add	a0,a5,sp
    31cc:	00f00593          	li	a1,15
    31d0:	534010ef          	jal	4704 <ct>
    31d4:	e8040793          	addi	a5,s0,-384
    31d8:	00278533          	add	a0,a5,sp
    31dc:	00f00593          	li	a1,15
    31e0:	524010ef          	jal	4704 <ct>
    31e4:	ea840793          	addi	a5,s0,-344
    31e8:	00278533          	add	a0,a5,sp
    31ec:	00a00593          	li	a1,10
    31f0:	514010ef          	jal	4704 <ct>
    31f4:	ed040793          	addi	a5,s0,-304
    31f8:	00278533          	add	a0,a5,sp
    31fc:	00c00593          	li	a1,12
    3200:	504010ef          	jal	4704 <ct>
    3204:	ef840793          	addi	a5,s0,-264
    3208:	00278533          	add	a0,a5,sp
    320c:	00800593          	li	a1,8
    3210:	4f4010ef          	jal	4704 <ct>
    3214:	f2040793          	addi	a5,s0,-224
    3218:	00278533          	add	a0,a5,sp
    321c:	00800593          	li	a1,8
    3220:	4e4010ef          	jal	4704 <ct>
    3224:	f4840793          	addi	a5,s0,-184
    3228:	00278533          	add	a0,a5,sp
    322c:	00f00593          	li	a1,15
    3230:	4d4010ef          	jal	4704 <ct>
    3234:	f7040793          	addi	a5,s0,-144
    3238:	00278533          	add	a0,a5,sp
    323c:	00a00593          	li	a1,10
    3240:	4c4010ef          	jal	4704 <ct>
    3244:	f9840793          	addi	a5,s0,-104
    3248:	00278533          	add	a0,a5,sp
    324c:	00800593          	li	a1,8
    3250:	4b4010ef          	jal	4704 <ct>
    3254:	fc040793          	addi	a5,s0,-64
    3258:	00278533          	add	a0,a5,sp
    325c:	00800593          	li	a1,8
    3260:	4a4010ef          	jal	4704 <ct>
    3264:	fe840793          	addi	a5,s0,-24
    3268:	00278533          	add	a0,a5,sp
    326c:	00e00593          	li	a1,14
    3270:	494010ef          	jal	4704 <ct>
    3274:	01040793          	addi	a5,s0,16
    3278:	00278533          	add	a0,a5,sp
    327c:	00f00593          	li	a1,15
    3280:	484010ef          	jal	4704 <ct>
    3284:	03840793          	addi	a5,s0,56
    3288:	00a00593          	li	a1,10
    328c:	00278533          	add	a0,a5,sp
    3290:	474010ef          	jal	4704 <ct>
    3294:	00012783          	lw	a5,0(sp)
    3298:	01078513          	addi	a0,a5,16
    329c:	ee9fc0ef          	jal	184 <create_player>
    32a0:	00012783          	lw	a5,0(sp)
    32a4:	19000513          	li	a0,400
    32a8:	00012803          	lw	a6,0(sp)
    32ac:	0147a083          	lw	ra,20(a5)
    32b0:	0107a683          	lw	a3,16(a5)
    32b4:	fffff737          	lui	a4,0xfffff
    32b8:	02a08533          	mul	a0,ra,a0
    32bc:	00269793          	slli	a5,a3,0x2
    32c0:	00d787b3          	add	a5,a5,a3
    32c4:	00379793          	slli	a5,a5,0x3
    32c8:	06070713          	addi	a4,a4,96 # fffff060 <_stack_end+0xffef8a84>
    32cc:	fffff5b7          	lui	a1,0xfffff
    32d0:	fb058593          	addi	a1,a1,-80 # ffffefb0 <_stack_end+0xffef89d4>
    32d4:	fffff637          	lui	a2,0xfffff
    32d8:	fe060613          	addi	a2,a2,-32 # ffffefe0 <_stack_end+0xffef8a04>
    32dc:	02082a03          	lw	s4,32(a6)
    32e0:	00a787b3          	add	a5,a5,a0
    32e4:	00080513          	mv	a0,a6
    32e8:	02c52903          	lw	s2,44(a0)
    32ec:	03052483          	lw	s1,48(a0)
    32f0:	03452403          	lw	s0,52(a0)
    32f4:	02852b83          	lw	s7,40(a0)
    32f8:	01852c03          	lw	s8,24(a0)
    32fc:	050b0513          	addi	a0,s6,80
    3300:	00e50533          	add	a0,a0,a4
    3304:	01010713          	addi	a4,sp,16
    3308:	00e50733          	add	a4,a0,a4
    330c:	00e12423          	sw	a4,8(sp)
    3310:	050b0713          	addi	a4,s6,80
    3314:	00b70733          	add	a4,a4,a1
    3318:	01010593          	addi	a1,sp,16
    331c:	00b70733          	add	a4,a4,a1
    3320:	00e12623          	sw	a4,12(sp)
    3324:	050b0713          	addi	a4,s6,80
    3328:	00c70733          	add	a4,a4,a2
    332c:	00f807b3          	add	a5,a6,a5
    3330:	00b70733          	add	a4,a4,a1
    3334:	0607a383          	lw	t2,96(a5)
    3338:	0647a283          	lw	t0,100(a5)
    333c:	0687af83          	lw	t6,104(a5)
    3340:	06c7af03          	lw	t5,108(a5)
    3344:	0707ae83          	lw	t4,112(a5)
    3348:	0747ae03          	lw	t3,116(a5)
    334c:	00e12223          	sw	a4,4(sp)
    3350:	00012703          	lw	a4,0(sp)
    3354:	07c7a883          	lw	a7,124(a5)
    3358:	02482983          	lw	s3,36(a6)
    335c:	0787a303          	lw	t1,120(a5)
    3360:	01c82a83          	lw	s5,28(a6)
    3364:	0807a803          	lw	a6,128(a5)
    3368:	0847a783          	lw	a5,132(a5)
    336c:	02772c23          	sw	t2,56(a4)
    3370:	02572e23          	sw	t0,60(a4)
    3374:	05f72023          	sw	t6,64(a4)
    3378:	05e72223          	sw	t5,68(a4)
    337c:	05d72423          	sw	t4,72(a4)
    3380:	05c72623          	sw	t3,76(a4)
    3384:	04672823          	sw	t1,80(a4)
    3388:	04f72e23          	sw	a5,92(a4)
    338c:	05172a23          	sw	a7,84(a4)
    3390:	05072c23          	sw	a6,88(a4)
    3394:	fed72023          	sw	a3,-32(a4)
    3398:	00012703          	lw	a4,0(sp)
    339c:	00812603          	lw	a2,8(sp)
    33a0:	00c12583          	lw	a1,12(sp)
    33a4:	fe172223          	sw	ra,-28(a4)
    33a8:	00012703          	lw	a4,0(sp)
    33ac:	00412503          	lw	a0,4(sp)
    33b0:	ff872423          	sw	s8,-24(a4)
    33b4:	00012703          	lw	a4,0(sp)
    33b8:	ff572623          	sw	s5,-20(a4)
    33bc:	00012703          	lw	a4,0(sp)
    33c0:	ff472823          	sw	s4,-16(a4)
    33c4:	00012703          	lw	a4,0(sp)
    33c8:	00005a37          	lui	s4,0x5
    33cc:	ff372a23          	sw	s3,-12(a4)
    33d0:	00012703          	lw	a4,0(sp)
    33d4:	fffff9b7          	lui	s3,0xfffff
    33d8:	01098993          	addi	s3,s3,16 # fffff010 <_stack_end+0xffef8a34>
    33dc:	ff772c23          	sw	s7,-8(a4)
    33e0:	00012703          	lw	a4,0(sp)
    33e4:	ff272e23          	sw	s2,-4(a4)
    33e8:	00012703          	lw	a4,0(sp)
    33ec:	00005937          	lui	s2,0x5
    33f0:	00972023          	sw	s1,0(a4)
    33f4:	00012703          	lw	a4,0(sp)
    33f8:	000054b7          	lui	s1,0x5
    33fc:	00872223          	sw	s0,4(a4)
    3400:	00012703          	lw	a4,0(sp)
    3404:	00005437          	lui	s0,0x5
    3408:	fa772823          	sw	t2,-80(a4)
    340c:	00012703          	lw	a4,0(sp)
    3410:	fa572a23          	sw	t0,-76(a4)
    3414:	00012703          	lw	a4,0(sp)
    3418:	fbf72c23          	sw	t6,-72(a4)
    341c:	00012703          	lw	a4,0(sp)
    3420:	fbe72e23          	sw	t5,-68(a4)
    3424:	00012703          	lw	a4,0(sp)
    3428:	fdd72023          	sw	t4,-64(a4)
    342c:	00012703          	lw	a4,0(sp)
    3430:	fdc72223          	sw	t3,-60(a4)
    3434:	00012703          	lw	a4,0(sp)
    3438:	fc672423          	sw	t1,-56(a4)
    343c:	00012703          	lw	a4,0(sp)
    3440:	fd172623          	sw	a7,-52(a4)
    3444:	00012703          	lw	a4,0(sp)
    3448:	fd072823          	sw	a6,-48(a4)
    344c:	00012703          	lw	a4,0(sp)
    3450:	fcf72a23          	sw	a5,-44(a4)
    3454:	cb0fd0ef          	jal	904 <display_frame>
    3458:	050b0793          	addi	a5,s6,80
    345c:	013787b3          	add	a5,a5,s3
    3460:	01010713          	addi	a4,sp,16
    3464:	00e789b3          	add	s3,a5,a4
    3468:	f5492783          	lw	a5,-172(s2) # 4f54 <switch_event>
    346c:	38079063          	bnez	a5,37ec <main+0xbf4>
    3470:	f504a783          	lw	a5,-176(s1) # 4f50 <timer_event>
    3474:	4e079a63          	bnez	a5,3968 <main+0xd70>
    3478:	f4c42783          	lw	a5,-180(s0) # 4f4c <button_event>
    347c:	0a078c63          	beqz	a5,3534 <main+0x93c>
    3480:	00001737          	lui	a4,0x1
    3484:	fffff7b7          	lui	a5,0xfffff
    3488:	05070713          	addi	a4,a4,80 # 1050 <display_frame+0x74c>
    348c:	00f70733          	add	a4,a4,a5
    3490:	01010793          	addi	a5,sp,16
    3494:	00f707b3          	add	a5,a4,a5
    3498:	00f12023          	sw	a5,0(sp)
    349c:	0107ae83          	lw	t4,16(a5) # fffff010 <_stack_end+0xffef8a34>
    34a0:	00012f03          	lw	t5,0(sp)
    34a4:	0147ae03          	lw	t3,20(a5)
    34a8:	0187a303          	lw	t1,24(a5)
    34ac:	01c7a883          	lw	a7,28(a5)
    34b0:	0207a803          	lw	a6,32(a5)
    34b4:	0247a583          	lw	a1,36(a5)
    34b8:	0287a603          	lw	a2,40(a5)
    34bc:	02c7a683          	lw	a3,44(a5)
    34c0:	0307a703          	lw	a4,48(a5)
    34c4:	00412503          	lw	a0,4(sp)
    34c8:	0347a783          	lw	a5,52(a5)
    34cc:	ffdf2023          	sw	t4,-32(t5)
    34d0:	00012e83          	lw	t4,0(sp)
    34d4:	ffcea223          	sw	t3,-28(t4)
    34d8:	00012e03          	lw	t3,0(sp)
    34dc:	fe6e2423          	sw	t1,-24(t3)
    34e0:	00012303          	lw	t1,0(sp)
    34e4:	ff132623          	sw	a7,-20(t1) # 7fffffec <_stack_end+0x7fef9a10>
    34e8:	00012883          	lw	a7,0(sp)
    34ec:	ff08a823          	sw	a6,-16(a7)
    34f0:	00012803          	lw	a6,0(sp)
    34f4:	feb82a23          	sw	a1,-12(a6)
    34f8:	00012583          	lw	a1,0(sp)
    34fc:	fec5ac23          	sw	a2,-8(a1)
    3500:	00012603          	lw	a2,0(sp)
    3504:	fed62e23          	sw	a3,-4(a2)
    3508:	00012683          	lw	a3,0(sp)
    350c:	00e6a023          	sw	a4,0(a3)
    3510:	00012703          	lw	a4,0(sp)
    3514:	00f72223          	sw	a5,4(a4)
    3518:	968fd0ef          	jal	680 <update_display>
    351c:	f44a2783          	lw	a5,-188(s4) # 4f44 <current_display>
    3520:	00300713          	li	a4,3
    3524:	f4042623          	sw	zero,-180(s0)
    3528:	00178793          	addi	a5,a5,1
    352c:	02e7e7b3          	rem	a5,a5,a4
    3530:	f4fa2223          	sw	a5,-188(s4)
    3534:	00001637          	lui	a2,0x1
    3538:	01010713          	addi	a4,sp,16
    353c:	88c60793          	addi	a5,a2,-1908 # 88c <__heap_size+0x8c>
    3540:	00e787b3          	add	a5,a5,a4
    3544:	0007a703          	lw	a4,0(a5)
    3548:	00900793          	li	a5,9
    354c:	fffff6b7          	lui	a3,0xfffff
    3550:	f0f71ce3          	bne	a4,a5,3468 <main+0x870>
    3554:	05060793          	addi	a5,a2,80
    3558:	01010713          	addi	a4,sp,16
    355c:	00d787b3          	add	a5,a5,a3
    3560:	00e787b3          	add	a5,a5,a4
    3564:	00f12023          	sw	a5,0(sp)
    3568:	0207a783          	lw	a5,32(a5)
    356c:	00600713          	li	a4,6
    3570:	ff678793          	addi	a5,a5,-10
    3574:	50f77863          	bgeu	a4,a5,3a84 <main+0xe8c>
    3578:	3ff00513          	li	a0,1023
    357c:	1ff00793          	li	a5,511
    3580:	0ff00713          	li	a4,255
    3584:	07f00693          	li	a3,127
    3588:	03f00613          	li	a2,63
    358c:	01f00593          	li	a1,31
    3590:	00f00813          	li	a6,15
    3594:	00700313          	li	t1,7
    3598:	00300e13          	li	t3,3
    359c:	00100f13          	li	t5,1
    35a0:	00001eb7          	lui	t4,0x1
    35a4:	fffff8b7          	lui	a7,0xfffff
    35a8:	050e8e93          	addi	t4,t4,80 # 1050 <display_frame+0x74c>
    35ac:	011e8eb3          	add	t4,t4,a7
    35b0:	01010893          	addi	a7,sp,16
    35b4:	011e88b3          	add	a7,t4,a7
    35b8:	01112023          	sw	a7,0(sp)
    35bc:	0248a883          	lw	a7,36(a7) # fffff024 <_stack_end+0xffef8a48>
    35c0:	00600e93          	li	t4,6
    35c4:	ff688893          	addi	a7,a7,-10
    35c8:	031ef463          	bgeu	t4,a7,35f0 <main+0x9f8>
    35cc:	00078513          	mv	a0,a5
    35d0:	00070793          	mv	a5,a4
    35d4:	00068713          	mv	a4,a3
    35d8:	00060693          	mv	a3,a2
    35dc:	00058613          	mv	a2,a1
    35e0:	00080593          	mv	a1,a6
    35e4:	00030813          	mv	a6,t1
    35e8:	000e0313          	mv	t1,t3
    35ec:	000f0e13          	mv	t3,t5
    35f0:	00001eb7          	lui	t4,0x1
    35f4:	fffff8b7          	lui	a7,0xfffff
    35f8:	050e8e93          	addi	t4,t4,80 # 1050 <display_frame+0x74c>
    35fc:	011e8eb3          	add	t4,t4,a7
    3600:	01010893          	addi	a7,sp,16
    3604:	011e88b3          	add	a7,t4,a7
    3608:	01112023          	sw	a7,0(sp)
    360c:	0288a883          	lw	a7,40(a7) # fffff028 <_stack_end+0xffef8a4c>
    3610:	00600e93          	li	t4,6
    3614:	ff688893          	addi	a7,a7,-10
    3618:	031ef263          	bgeu	t4,a7,363c <main+0xa44>
    361c:	00078513          	mv	a0,a5
    3620:	00070793          	mv	a5,a4
    3624:	00068713          	mv	a4,a3
    3628:	00060693          	mv	a3,a2
    362c:	00058613          	mv	a2,a1
    3630:	00080593          	mv	a1,a6
    3634:	00030813          	mv	a6,t1
    3638:	000e0313          	mv	t1,t3
    363c:	00001e37          	lui	t3,0x1
    3640:	fffff8b7          	lui	a7,0xfffff
    3644:	050e0e13          	addi	t3,t3,80 # 1050 <display_frame+0x74c>
    3648:	011e0e33          	add	t3,t3,a7
    364c:	01010893          	addi	a7,sp,16
    3650:	011e08b3          	add	a7,t3,a7
    3654:	01112023          	sw	a7,0(sp)
    3658:	02c8a883          	lw	a7,44(a7) # fffff02c <_stack_end+0xffef8a50>
    365c:	00600e13          	li	t3,6
    3660:	ff688893          	addi	a7,a7,-10
    3664:	031e7063          	bgeu	t3,a7,3684 <main+0xa8c>
    3668:	00078513          	mv	a0,a5
    366c:	00070793          	mv	a5,a4
    3670:	00068713          	mv	a4,a3
    3674:	00060693          	mv	a3,a2
    3678:	00058613          	mv	a2,a1
    367c:	00080593          	mv	a1,a6
    3680:	00030813          	mv	a6,t1
    3684:	00001337          	lui	t1,0x1
    3688:	fffff8b7          	lui	a7,0xfffff
    368c:	05030313          	addi	t1,t1,80 # 1050 <display_frame+0x74c>
    3690:	01130333          	add	t1,t1,a7
    3694:	01010893          	addi	a7,sp,16
    3698:	011308b3          	add	a7,t1,a7
    369c:	01112023          	sw	a7,0(sp)
    36a0:	0308a883          	lw	a7,48(a7) # fffff030 <_stack_end+0xffef8a54>
    36a4:	00600313          	li	t1,6
    36a8:	ff688893          	addi	a7,a7,-10
    36ac:	01137e63          	bgeu	t1,a7,36c8 <main+0xad0>
    36b0:	00078513          	mv	a0,a5
    36b4:	00070793          	mv	a5,a4
    36b8:	00068713          	mv	a4,a3
    36bc:	00060693          	mv	a3,a2
    36c0:	00058613          	mv	a2,a1
    36c4:	00080593          	mv	a1,a6
    36c8:	000018b7          	lui	a7,0x1
    36cc:	fffff837          	lui	a6,0xfffff
    36d0:	05088893          	addi	a7,a7,80 # 1050 <display_frame+0x74c>
    36d4:	010888b3          	add	a7,a7,a6
    36d8:	01010813          	addi	a6,sp,16
    36dc:	01088833          	add	a6,a7,a6
    36e0:	01012023          	sw	a6,0(sp)
    36e4:	6d482803          	lw	a6,1748(a6) # fffff6d4 <_stack_end+0xffef90f8>
    36e8:	00600893          	li	a7,6
    36ec:	ff680813          	addi	a6,a6,-10
    36f0:	0108fc63          	bgeu	a7,a6,3708 <main+0xb10>
    36f4:	00078513          	mv	a0,a5
    36f8:	00070793          	mv	a5,a4
    36fc:	00068713          	mv	a4,a3
    3700:	00060693          	mv	a3,a2
    3704:	00058613          	mv	a2,a1
    3708:	00001837          	lui	a6,0x1
    370c:	fffff5b7          	lui	a1,0xfffff
    3710:	05080813          	addi	a6,a6,80 # 1050 <display_frame+0x74c>
    3714:	00b80833          	add	a6,a6,a1
    3718:	01010593          	addi	a1,sp,16
    371c:	00b805b3          	add	a1,a6,a1
    3720:	00b12023          	sw	a1,0(sp)
    3724:	6d85a583          	lw	a1,1752(a1) # fffff6d8 <_stack_end+0xffef90fc>
    3728:	00600813          	li	a6,6
    372c:	ff658593          	addi	a1,a1,-10
    3730:	00b87a63          	bgeu	a6,a1,3744 <main+0xb4c>
    3734:	00078513          	mv	a0,a5
    3738:	00070793          	mv	a5,a4
    373c:	00068713          	mv	a4,a3
    3740:	00060693          	mv	a3,a2
    3744:	000015b7          	lui	a1,0x1
    3748:	fffff637          	lui	a2,0xfffff
    374c:	05058593          	addi	a1,a1,80 # 1050 <display_frame+0x74c>
    3750:	00c585b3          	add	a1,a1,a2
    3754:	01010613          	addi	a2,sp,16
    3758:	00c58633          	add	a2,a1,a2
    375c:	00c12023          	sw	a2,0(sp)
    3760:	6dc62603          	lw	a2,1756(a2) # fffff6dc <_stack_end+0xffef9100>
    3764:	00600593          	li	a1,6
    3768:	ff660613          	addi	a2,a2,-10
    376c:	00c5f863          	bgeu	a1,a2,377c <main+0xb84>
    3770:	00078513          	mv	a0,a5
    3774:	00070793          	mv	a5,a4
    3778:	00068713          	mv	a4,a3
    377c:	00001637          	lui	a2,0x1
    3780:	fffff6b7          	lui	a3,0xfffff
    3784:	05060613          	addi	a2,a2,80 # 1050 <display_frame+0x74c>
    3788:	00d60633          	add	a2,a2,a3
    378c:	01010693          	addi	a3,sp,16
    3790:	00d606b3          	add	a3,a2,a3
    3794:	00d12023          	sw	a3,0(sp)
    3798:	6e06a683          	lw	a3,1760(a3) # fffff6e0 <_stack_end+0xffef9104>
    379c:	00600613          	li	a2,6
    37a0:	ff668693          	addi	a3,a3,-10
    37a4:	00d67663          	bgeu	a2,a3,37b0 <main+0xbb8>
    37a8:	00078513          	mv	a0,a5
    37ac:	00070793          	mv	a5,a4
    37b0:	000016b7          	lui	a3,0x1
    37b4:	fffff737          	lui	a4,0xfffff
    37b8:	05068693          	addi	a3,a3,80 # 1050 <display_frame+0x74c>
    37bc:	00e686b3          	add	a3,a3,a4
    37c0:	01010713          	addi	a4,sp,16
    37c4:	00e68733          	add	a4,a3,a4
    37c8:	00e12023          	sw	a4,0(sp)
    37cc:	6e472703          	lw	a4,1764(a4) # fffff6e4 <_stack_end+0xffef9108>
    37d0:	00600693          	li	a3,6
    37d4:	ff670713          	addi	a4,a4,-10
    37d8:	00e6f463          	bgeu	a3,a4,37e0 <main+0xbe8>
    37dc:	00078513          	mv	a0,a5
    37e0:	3b0000ef          	jal	3b90 <set_leds>
    37e4:	f5492783          	lw	a5,-172(s2)
    37e8:	c80784e3          	beqz	a5,3470 <main+0x878>
    37ec:	f4092a23          	sw	zero,-172(s2)
    37f0:	318000ef          	jal	3b08 <get_sw>
    37f4:	00812603          	lw	a2,8(sp)
    37f8:	00098593          	mv	a1,s3
    37fc:	8f8ff0ef          	jal	28f4 <handle_input>
    3800:	00001737          	lui	a4,0x1
    3804:	fffff7b7          	lui	a5,0xfffff
    3808:	05070713          	addi	a4,a4,80 # 1050 <display_frame+0x74c>
    380c:	00f70733          	add	a4,a4,a5
    3810:	01010793          	addi	a5,sp,16
    3814:	00f707b3          	add	a5,a4,a5
    3818:	0147a603          	lw	a2,20(a5) # fffff014 <_stack_end+0xffef8a38>
    381c:	19000693          	li	a3,400
    3820:	0107a703          	lw	a4,16(a5)
    3824:	02d606b3          	mul	a3,a2,a3
    3828:	01c7ab03          	lw	s6,28(a5)
    382c:	00f12023          	sw	a5,0(sp)
    3830:	00271793          	slli	a5,a4,0x2
    3834:	00012583          	lw	a1,0(sp)
    3838:	00e787b3          	add	a5,a5,a4
    383c:	00379793          	slli	a5,a5,0x3
    3840:	0285a383          	lw	t2,40(a1)
    3844:	02c5a283          	lw	t0,44(a1)
    3848:	0305af83          	lw	t6,48(a1)
    384c:	00d787b3          	add	a5,a5,a3
    3850:	00f587b3          	add	a5,a1,a5
    3854:	0647a083          	lw	ra,100(a5)
    3858:	0687af03          	lw	t5,104(a5)
    385c:	06c7ae83          	lw	t4,108(a5)
    3860:	0707ae03          	lw	t3,112(a5)
    3864:	0747a303          	lw	t1,116(a5)
    3868:	0787a883          	lw	a7,120(a5)
    386c:	07c7a803          	lw	a6,124(a5)
    3870:	0807a683          	lw	a3,128(a5)
    3874:	0607aa83          	lw	s5,96(a5)
    3878:	0847a783          	lw	a5,132(a5)
    387c:	0215ae23          	sw	ra,60(a1)
    3880:	05e5a023          	sw	t5,64(a1)
    3884:	04f5ae23          	sw	a5,92(a1)
    3888:	05d5a223          	sw	t4,68(a1)
    388c:	05c5a423          	sw	t3,72(a1)
    3890:	0465a623          	sw	t1,76(a1)
    3894:	0515a823          	sw	a7,80(a1)
    3898:	0505aa23          	sw	a6,84(a1)
    389c:	04d5ac23          	sw	a3,88(a1)
    38a0:	0355ac23          	sw	s5,56(a1)
    38a4:	0205ab83          	lw	s7,32(a1)
    38a8:	0245ac03          	lw	s8,36(a1)
    38ac:	0345ac83          	lw	s9,52(a1)
    38b0:	0185ad03          	lw	s10,24(a1)
    38b4:	fee5a023          	sw	a4,-32(a1)
    38b8:	00012703          	lw	a4,0(sp)
    38bc:	00c12583          	lw	a1,12(sp)
    38c0:	00412503          	lw	a0,4(sp)
    38c4:	fec72223          	sw	a2,-28(a4)
    38c8:	00012703          	lw	a4,0(sp)
    38cc:	00812603          	lw	a2,8(sp)
    38d0:	ffa72423          	sw	s10,-24(a4)
    38d4:	00012703          	lw	a4,0(sp)
    38d8:	ff672623          	sw	s6,-20(a4)
    38dc:	00012703          	lw	a4,0(sp)
    38e0:	ff772823          	sw	s7,-16(a4)
    38e4:	00012703          	lw	a4,0(sp)
    38e8:	ff872a23          	sw	s8,-12(a4)
    38ec:	00012703          	lw	a4,0(sp)
    38f0:	fe772c23          	sw	t2,-8(a4)
    38f4:	00012703          	lw	a4,0(sp)
    38f8:	fe572e23          	sw	t0,-4(a4)
    38fc:	00012703          	lw	a4,0(sp)
    3900:	01f72023          	sw	t6,0(a4)
    3904:	00012703          	lw	a4,0(sp)
    3908:	01972223          	sw	s9,4(a4)
    390c:	00012703          	lw	a4,0(sp)
    3910:	fb572823          	sw	s5,-80(a4)
    3914:	00012703          	lw	a4,0(sp)
    3918:	fa172a23          	sw	ra,-76(a4)
    391c:	00012703          	lw	a4,0(sp)
    3920:	fbe72c23          	sw	t5,-72(a4)
    3924:	00012703          	lw	a4,0(sp)
    3928:	fbd72e23          	sw	t4,-68(a4)
    392c:	00012703          	lw	a4,0(sp)
    3930:	fdc72023          	sw	t3,-64(a4)
    3934:	00012703          	lw	a4,0(sp)
    3938:	fc672223          	sw	t1,-60(a4)
    393c:	00012703          	lw	a4,0(sp)
    3940:	fd172423          	sw	a7,-56(a4)
    3944:	00012703          	lw	a4,0(sp)
    3948:	fd072623          	sw	a6,-52(a4)
    394c:	00012703          	lw	a4,0(sp)
    3950:	fcd72823          	sw	a3,-48(a4)
    3954:	00012703          	lw	a4,0(sp)
    3958:	fcf72a23          	sw	a5,-44(a4)
    395c:	fa9fc0ef          	jal	904 <display_frame>
    3960:	f504a783          	lw	a5,-176(s1)
    3964:	b0078ae3          	beqz	a5,3478 <main+0x880>
    3968:	00001737          	lui	a4,0x1
    396c:	fffff7b7          	lui	a5,0xfffff
    3970:	05070713          	addi	a4,a4,80 # 1050 <display_frame+0x74c>
    3974:	00f70733          	add	a4,a4,a5
    3978:	01010793          	addi	a5,sp,16
    397c:	00f707b3          	add	a5,a4,a5
    3980:	00f12023          	sw	a5,0(sp)
    3984:	05c7a783          	lw	a5,92(a5) # fffff05c <_stack_end+0xffef8a80>
    3988:	f404a823          	sw	zero,-176(s1)
    398c:	00100713          	li	a4,1
    3990:	12e78063          	beq	a5,a4,3ab0 <main+0xeb8>
    3994:	00079863          	bnez	a5,39a4 <main+0xdac>
    3998:	00012703          	lw	a4,0(sp)
    399c:	06300793          	li	a5,99
    39a0:	00f72e23          	sw	a5,28(a4)
    39a4:	00001737          	lui	a4,0x1
    39a8:	fffff7b7          	lui	a5,0xfffff
    39ac:	05070713          	addi	a4,a4,80 # 1050 <display_frame+0x74c>
    39b0:	00f70733          	add	a4,a4,a5
    39b4:	01010793          	addi	a5,sp,16
    39b8:	00f707b3          	add	a5,a4,a5
    39bc:	00f12023          	sw	a5,0(sp)
    39c0:	00012703          	lw	a4,0(sp)
    39c4:	00012683          	lw	a3,0(sp)
    39c8:	0347a783          	lw	a5,52(a5) # fffff034 <_stack_end+0xffef8a58>
    39cc:	01872703          	lw	a4,24(a4)
    39d0:	00012603          	lw	a2,0(sp)
    39d4:	01c6a683          	lw	a3,28(a3)
    39d8:	fff78793          	addi	a5,a5,-1
    39dc:	fff70713          	addi	a4,a4,-1
    39e0:	02f62a23          	sw	a5,52(a2)
    39e4:	00e62c23          	sw	a4,24(a2)
    39e8:	0ed05063          	blez	a3,3ac8 <main+0xed0>
    39ec:	0ef05663          	blez	a5,3ad8 <main+0xee0>
    39f0:	0ee05c63          	blez	a4,3ae8 <main+0xef0>
    39f4:	fffff537          	lui	a0,0xfffff
    39f8:	00001f37          	lui	t5,0x1
    39fc:	fe050513          	addi	a0,a0,-32 # ffffefe0 <_stack_end+0xffef8a04>
    3a00:	050f0f13          	addi	t5,t5,80 # 1050 <display_frame+0x74c>
    3a04:	00af0f33          	add	t5,t5,a0
    3a08:	01010513          	addi	a0,sp,16
    3a0c:	01062e83          	lw	t4,16(a2)
    3a10:	00af0533          	add	a0,t5,a0
    3a14:	00012f03          	lw	t5,0(sp)
    3a18:	01462e03          	lw	t3,20(a2)
    3a1c:	02062303          	lw	t1,32(a2)
    3a20:	02462883          	lw	a7,36(a2)
    3a24:	02862803          	lw	a6,40(a2)
    3a28:	02c62583          	lw	a1,44(a2)
    3a2c:	03062603          	lw	a2,48(a2)
    3a30:	ffdf2023          	sw	t4,-32(t5)
    3a34:	00012e83          	lw	t4,0(sp)
    3a38:	ffcea223          	sw	t3,-28(t4)
    3a3c:	00012e03          	lw	t3,0(sp)
    3a40:	feee2423          	sw	a4,-24(t3)
    3a44:	00012703          	lw	a4,0(sp)
    3a48:	fed72623          	sw	a3,-20(a4)
    3a4c:	00012703          	lw	a4,0(sp)
    3a50:	fe672823          	sw	t1,-16(a4)
    3a54:	00012703          	lw	a4,0(sp)
    3a58:	ff172a23          	sw	a7,-12(a4)
    3a5c:	00012703          	lw	a4,0(sp)
    3a60:	ff072c23          	sw	a6,-8(a4)
    3a64:	00012703          	lw	a4,0(sp)
    3a68:	feb72e23          	sw	a1,-4(a4)
    3a6c:	00012703          	lw	a4,0(sp)
    3a70:	00c72023          	sw	a2,0(a4)
    3a74:	00012703          	lw	a4,0(sp)
    3a78:	00f72223          	sw	a5,4(a4)
    3a7c:	c05fc0ef          	jal	680 <update_display>
    3a80:	9f9ff06f          	j	3478 <main+0x880>
    3a84:	7ff00513          	li	a0,2047
    3a88:	3ff00793          	li	a5,1023
    3a8c:	1ff00713          	li	a4,511
    3a90:	0ff00693          	li	a3,255
    3a94:	07f00613          	li	a2,127
    3a98:	03f00593          	li	a1,63
    3a9c:	01f00813          	li	a6,31
    3aa0:	00f00313          	li	t1,15
    3aa4:	00700e13          	li	t3,7
    3aa8:	00300f13          	li	t5,3
    3aac:	af5ff06f          	j	35a0 <main+0x9a8>
    3ab0:	00012783          	lw	a5,0(sp)
    3ab4:	00012703          	lw	a4,0(sp)
    3ab8:	01c7a783          	lw	a5,28(a5)
    3abc:	fff78793          	addi	a5,a5,-1
    3ac0:	00f72e23          	sw	a5,28(a4)
    3ac4:	ee1ff06f          	j	39a4 <main+0xdac>
    3ac8:	00005537          	lui	a0,0x5
    3acc:	2b450513          	addi	a0,a0,692 # 52b4 <CSWTCH.15+0x298>
    3ad0:	6e1000ef          	jal	49b0 <print>
    3ad4:	0000006f          	j	3ad4 <main+0xedc>
    3ad8:	00005537          	lui	a0,0x5
    3adc:	2dc50513          	addi	a0,a0,732 # 52dc <CSWTCH.15+0x2c0>
    3ae0:	6d1000ef          	jal	49b0 <print>
    3ae4:	0000006f          	j	3ae4 <main+0xeec>
    3ae8:	00005537          	lui	a0,0x5
    3aec:	30450513          	addi	a0,a0,772 # 5304 <CSWTCH.15+0x2e8>
    3af0:	6c1000ef          	jal	49b0 <print>
    3af4:	0000006f          	j	3af4 <main+0xefc>

00003af8 <get_btn>:
    3af8:	040007b7          	lui	a5,0x4000
    3afc:	0d07a503          	lw	a0,208(a5) # 40000d0 <_stack_end+0x3ef9af4>
    3b00:	00157513          	andi	a0,a0,1
    3b04:	00008067          	ret

00003b08 <get_sw>:
    3b08:	040007b7          	lui	a5,0x4000
    3b0c:	0107a503          	lw	a0,16(a5) # 4000010 <_stack_end+0x3ef9a34>
    3b10:	3ff57513          	andi	a0,a0,1023
    3b14:	00008067          	ret

00003b18 <set_displays>:
    3b18:	00500793          	li	a5,5
    3b1c:	06a7e463          	bltu	a5,a0,3b84 <set_displays+0x6c>
    3b20:	ff010113          	addi	sp,sp,-16
    3b24:	00451513          	slli	a0,a0,0x4
    3b28:	00a12623          	sw	a0,12(sp)
    3b2c:	fff58593          	addi	a1,a1,-1
    3b30:	06300793          	li	a5,99
    3b34:	04000693          	li	a3,64
    3b38:	02b7f063          	bgeu	a5,a1,3b58 <set_displays+0x40>
    3b3c:	00c12783          	lw	a5,12(sp)
    3b40:	04000737          	lui	a4,0x4000
    3b44:	05070713          	addi	a4,a4,80 # 4000050 <_stack_end+0x3ef9a74>
    3b48:	00e787b3          	add	a5,a5,a4
    3b4c:	00d7a023          	sw	a3,0(a5)
    3b50:	01010113          	addi	sp,sp,16
    3b54:	00008067          	ret
    3b58:	000057b7          	lui	a5,0x5
    3b5c:	01c78793          	addi	a5,a5,28 # 501c <CSWTCH.15>
    3b60:	00b787b3          	add	a5,a5,a1
    3b64:	00078683          	lb	a3,0(a5)
    3b68:	00c12783          	lw	a5,12(sp)
    3b6c:	04000737          	lui	a4,0x4000
    3b70:	05070713          	addi	a4,a4,80 # 4000050 <_stack_end+0x3ef9a74>
    3b74:	00e787b3          	add	a5,a5,a4
    3b78:	00d7a023          	sw	a3,0(a5)
    3b7c:	01010113          	addi	sp,sp,16
    3b80:	00008067          	ret
    3b84:	00006537          	lui	a0,0x6
    3b88:	f9050513          	addi	a0,a0,-112 # 5f90 <__global_pointer+0x860>
    3b8c:	6250006f          	j	49b0 <print>

00003b90 <set_leds>:
    3b90:	000057b7          	lui	a5,0x5
    3b94:	f407a783          	lw	a5,-192(a5) # 4f40 <led_start>
    3b98:	00a7a023          	sw	a0,0(a5)
    3b9c:	00008067          	ret

00003ba0 <get_leds>:
    3ba0:	000057b7          	lui	a5,0x5
    3ba4:	f407a783          	lw	a5,-192(a5) # 4f40 <led_start>
    3ba8:	0007a503          	lw	a0,0(a5)
    3bac:	3ff57513          	andi	a0,a0,1023
    3bb0:	00008067          	ret

00003bb4 <labinit>:
    3bb4:	000057b7          	lui	a5,0x5
    3bb8:	f347a683          	lw	a3,-204(a5) # 4f34 <timer_periodl>
    3bbc:	000057b7          	lui	a5,0x5
    3bc0:	f307a703          	lw	a4,-208(a5) # 4f30 <timer_periodh>
    3bc4:	000057b7          	lui	a5,0x5
    3bc8:	f387a783          	lw	a5,-200(a5) # 4f38 <timer_control>
    3bcc:	6c000613          	li	a2,1728
    3bd0:	00c6a023          	sw	a2,0(a3)
    3bd4:	02d00693          	li	a3,45
    3bd8:	00d72023          	sw	a3,0(a4)
    3bdc:	00700693          	li	a3,7
    3be0:	00d7a023          	sw	a3,0(a5)
    3be4:	04000737          	lui	a4,0x4000
    3be8:	00100693          	li	a3,1
    3bec:	0cd72c23          	sw	a3,216(a4) # 40000d8 <_stack_end+0x3ef9afc>
    3bf0:	040007b7          	lui	a5,0x4000
    3bf4:	3ff00713          	li	a4,1023
    3bf8:	00e7ac23          	sw	a4,24(a5) # 4000018 <_stack_end+0x3ef9a3c>
    3bfc:	d74fc06f          	j	170 <enable_interrupt>

00003c00 <handle_interrupt>:
    3c00:	01000793          	li	a5,16
    3c04:	06f50063          	beq	a0,a5,3c64 <handle_interrupt+0x64>
    3c08:	01100793          	li	a5,17
    3c0c:	04f50063          	beq	a0,a5,3c4c <handle_interrupt+0x4c>
    3c10:	01200793          	li	a5,18
    3c14:	02f51a63          	bne	a0,a5,3c48 <handle_interrupt+0x48>
    3c18:	040007b7          	lui	a5,0x4000
    3c1c:	00005737          	lui	a4,0x5
    3c20:	0c07ae23          	sw	zero,220(a5) # 40000dc <_stack_end+0x3ef9b00>
    3c24:	f4872683          	lw	a3,-184(a4) # 4f48 <button_toggle>
    3c28:	00068c63          	beqz	a3,3c40 <handle_interrupt+0x40>
    3c2c:	000057b7          	lui	a5,0x5
    3c30:	00100693          	li	a3,1
    3c34:	f4d7a623          	sw	a3,-180(a5) # 4f4c <button_event>
    3c38:	f4072423          	sw	zero,-184(a4)
    3c3c:	00008067          	ret
    3c40:	00100793          	li	a5,1
    3c44:	f4f72423          	sw	a5,-184(a4)
    3c48:	00008067          	ret
    3c4c:	040007b7          	lui	a5,0x4000
    3c50:	0007ae23          	sw	zero,28(a5) # 400001c <_stack_end+0x3ef9a40>
    3c54:	00100713          	li	a4,1
    3c58:	000057b7          	lui	a5,0x5
    3c5c:	f4e7aa23          	sw	a4,-172(a5) # 4f54 <switch_event>
    3c60:	00008067          	ret
    3c64:	000057b7          	lui	a5,0x5
    3c68:	f3c7a683          	lw	a3,-196(a5) # 4f3c <timer_status>
    3c6c:	000057b7          	lui	a5,0x5
    3c70:	00900613          	li	a2,9
    3c74:	0006a703          	lw	a4,0(a3)
    3c78:	ffe77713          	andi	a4,a4,-2
    3c7c:	00e6a023          	sw	a4,0(a3)
    3c80:	f587a703          	lw	a4,-168(a5) # 4f58 <timeoutcount>
    3c84:	00170713          	addi	a4,a4,1
    3c88:	f4e7ac23          	sw	a4,-168(a5)
    3c8c:	f587a703          	lw	a4,-168(a5)
    3c90:	fae65ce3          	bge	a2,a4,3c48 <handle_interrupt+0x48>
    3c94:	f407ac23          	sw	zero,-168(a5)
    3c98:	00100713          	li	a4,1
    3c9c:	000057b7          	lui	a5,0x5
    3ca0:	f4e7a823          	sw	a4,-176(a5) # 4f50 <timer_event>
    3ca4:	00008067          	ret

00003ca8 <add_to_inventory>:
    3ca8:	01052783          	lw	a5,16(a0)
    3cac:	ef010113          	addi	sp,sp,-272
    3cb0:	10812423          	sw	s0,264(sp)
    3cb4:	10112623          	sw	ra,268(sp)
    3cb8:	00010023          	sb	zero,0(sp)
    3cbc:	00058413          	mv	s0,a1
    3cc0:	04078063          	beqz	a5,3d00 <add_to_inventory+0x58>
    3cc4:	01452783          	lw	a5,20(a0)
    3cc8:	0a078063          	beqz	a5,3d68 <add_to_inventory+0xc0>
    3ccc:	01852783          	lw	a5,24(a0)
    3cd0:	0a078063          	beqz	a5,3d70 <add_to_inventory+0xc8>
    3cd4:	01c52783          	lw	a5,28(a0)
    3cd8:	0a078063          	beqz	a5,3d78 <add_to_inventory+0xd0>
    3cdc:	02052783          	lw	a5,32(a0)
    3ce0:	0a078063          	beqz	a5,3d80 <add_to_inventory+0xd8>
    3ce4:	00006537          	lui	a0,0x6
    3ce8:	fd450513          	addi	a0,a0,-44 # 5fd4 <__global_pointer+0x8a4>
    3cec:	4c5000ef          	jal	49b0 <print>
    3cf0:	10c12083          	lw	ra,268(sp)
    3cf4:	10812403          	lw	s0,264(sp)
    3cf8:	11010113          	addi	sp,sp,272
    3cfc:	00008067          	ret
    3d00:	00000793          	li	a5,0
    3d04:	00478793          	addi	a5,a5,4
    3d08:	00279793          	slli	a5,a5,0x2
    3d0c:	00f50533          	add	a0,a0,a5
    3d10:	000065b7          	lui	a1,0x6
    3d14:	00852023          	sw	s0,0(a0)
    3d18:	fa858593          	addi	a1,a1,-88 # 5fa8 <__global_pointer+0x878>
    3d1c:	00010513          	mv	a0,sp
    3d20:	819fc0ef          	jal	538 <append_str>
    3d24:	000057b7          	lui	a5,0x5
    3d28:	00241593          	slli	a1,s0,0x2
    3d2c:	e6478793          	addi	a5,a5,-412 # 4e64 <COLLECTIBLE_NAMES>
    3d30:	00b787b3          	add	a5,a5,a1
    3d34:	0007a583          	lw	a1,0(a5)
    3d38:	00010513          	mv	a0,sp
    3d3c:	ffcfc0ef          	jal	538 <append_str>
    3d40:	000065b7          	lui	a1,0x6
    3d44:	00010513          	mv	a0,sp
    3d48:	fbc58593          	addi	a1,a1,-68 # 5fbc <__global_pointer+0x88c>
    3d4c:	fecfc0ef          	jal	538 <append_str>
    3d50:	00010513          	mv	a0,sp
    3d54:	45d000ef          	jal	49b0 <print>
    3d58:	10c12083          	lw	ra,268(sp)
    3d5c:	10812403          	lw	s0,264(sp)
    3d60:	11010113          	addi	sp,sp,272
    3d64:	00008067          	ret
    3d68:	00100793          	li	a5,1
    3d6c:	f99ff06f          	j	3d04 <add_to_inventory+0x5c>
    3d70:	00200793          	li	a5,2
    3d74:	f91ff06f          	j	3d04 <add_to_inventory+0x5c>
    3d78:	00300793          	li	a5,3
    3d7c:	f89ff06f          	j	3d04 <add_to_inventory+0x5c>
    3d80:	00400793          	li	a5,4
    3d84:	f81ff06f          	j	3d04 <add_to_inventory+0x5c>

00003d88 <remove_from_inventory>:
    3d88:	ee010113          	addi	sp,sp,-288
    3d8c:	10112e23          	sw	ra,284(sp)
    3d90:	00010823          	sb	zero,16(sp)
    3d94:	00400793          	li	a5,4
    3d98:	0eb7ee63          	bltu	a5,a1,3e94 <remove_from_inventory+0x10c>
    3d9c:	00259793          	slli	a5,a1,0x2
    3da0:	10912a23          	sw	s1,276(sp)
    3da4:	00f504b3          	add	s1,a0,a5
    3da8:	0104a783          	lw	a5,16(s1)
    3dac:	10812c23          	sw	s0,280(sp)
    3db0:	00158413          	addi	s0,a1,1
    3db4:	04079c63          	bnez	a5,3e0c <remove_from_inventory+0x84>
    3db8:	000065b7          	lui	a1,0x6
    3dbc:	01010513          	addi	a0,sp,16
    3dc0:	02858593          	addi	a1,a1,40 # 6028 <__global_pointer+0x8f8>
    3dc4:	f74fc0ef          	jal	538 <append_str>
    3dc8:	00410593          	addi	a1,sp,4
    3dcc:	00040513          	mv	a0,s0
    3dd0:	be8fc0ef          	jal	1b8 <int_to_str>
    3dd4:	00410593          	addi	a1,sp,4
    3dd8:	01010513          	addi	a0,sp,16
    3ddc:	f5cfc0ef          	jal	538 <append_str>
    3de0:	000065b7          	lui	a1,0x6
    3de4:	01010513          	addi	a0,sp,16
    3de8:	03858593          	addi	a1,a1,56 # 6038 <__global_pointer+0x908>
    3dec:	f4cfc0ef          	jal	538 <append_str>
    3df0:	01010513          	addi	a0,sp,16
    3df4:	3bd000ef          	jal	49b0 <print>
    3df8:	11c12083          	lw	ra,284(sp)
    3dfc:	11812403          	lw	s0,280(sp)
    3e00:	11412483          	lw	s1,276(sp)
    3e04:	12010113          	addi	sp,sp,288
    3e08:	00008067          	ret
    3e0c:	000065b7          	lui	a1,0x6
    3e10:	01010513          	addi	a0,sp,16
    3e14:	00458593          	addi	a1,a1,4 # 6004 <__global_pointer+0x8d4>
    3e18:	f20fc0ef          	jal	538 <append_str>
    3e1c:	0104a703          	lw	a4,16(s1)
    3e20:	000057b7          	lui	a5,0x5
    3e24:	e6478793          	addi	a5,a5,-412 # 4e64 <COLLECTIBLE_NAMES>
    3e28:	00271713          	slli	a4,a4,0x2
    3e2c:	00e787b3          	add	a5,a5,a4
    3e30:	0007a583          	lw	a1,0(a5)
    3e34:	01010513          	addi	a0,sp,16
    3e38:	f00fc0ef          	jal	538 <append_str>
    3e3c:	000065b7          	lui	a1,0x6
    3e40:	01010513          	addi	a0,sp,16
    3e44:	01058593          	addi	a1,a1,16 # 6010 <__global_pointer+0x8e0>
    3e48:	ef0fc0ef          	jal	538 <append_str>
    3e4c:	00410593          	addi	a1,sp,4
    3e50:	00040513          	mv	a0,s0
    3e54:	b64fc0ef          	jal	1b8 <int_to_str>
    3e58:	00410593          	addi	a1,sp,4
    3e5c:	01010513          	addi	a0,sp,16
    3e60:	ed8fc0ef          	jal	538 <append_str>
    3e64:	000055b7          	lui	a1,0x5
    3e68:	01010513          	addi	a0,sp,16
    3e6c:	3ec58593          	addi	a1,a1,1004 # 53ec <CSWTCH.15+0x3d0>
    3e70:	ec8fc0ef          	jal	538 <append_str>
    3e74:	01010513          	addi	a0,sp,16
    3e78:	339000ef          	jal	49b0 <print>
    3e7c:	11c12083          	lw	ra,284(sp)
    3e80:	11812403          	lw	s0,280(sp)
    3e84:	0004a823          	sw	zero,16(s1)
    3e88:	11412483          	lw	s1,276(sp)
    3e8c:	12010113          	addi	sp,sp,288
    3e90:	00008067          	ret
    3e94:	00006537          	lui	a0,0x6
    3e98:	04c50513          	addi	a0,a0,76 # 604c <__global_pointer+0x91c>
    3e9c:	315000ef          	jal	49b0 <print>
    3ea0:	11c12083          	lw	ra,284(sp)
    3ea4:	12010113          	addi	sp,sp,288
    3ea8:	00008067          	ret

00003eac <add_to_storage>:
    3eac:	00c52783          	lw	a5,12(a0)
    3eb0:	ef010113          	addi	sp,sp,-272
    3eb4:	10812423          	sw	s0,264(sp)
    3eb8:	10112623          	sw	ra,268(sp)
    3ebc:	00010023          	sb	zero,0(sp)
    3ec0:	00058413          	mv	s0,a1
    3ec4:	04078063          	beqz	a5,3f04 <add_to_storage+0x58>
    3ec8:	01052783          	lw	a5,16(a0)
    3ecc:	08078e63          	beqz	a5,3f68 <add_to_storage+0xbc>
    3ed0:	01452783          	lw	a5,20(a0)
    3ed4:	08078e63          	beqz	a5,3f70 <add_to_storage+0xc4>
    3ed8:	01852783          	lw	a5,24(a0)
    3edc:	08078e63          	beqz	a5,3f78 <add_to_storage+0xcc>
    3ee0:	01c52783          	lw	a5,28(a0)
    3ee4:	08078e63          	beqz	a5,3f80 <add_to_storage+0xd4>
    3ee8:	00006537          	lui	a0,0x6
    3eec:	08050513          	addi	a0,a0,128 # 6080 <__global_pointer+0x950>
    3ef0:	2c1000ef          	jal	49b0 <print>
    3ef4:	10c12083          	lw	ra,268(sp)
    3ef8:	10812403          	lw	s0,264(sp)
    3efc:	11010113          	addi	sp,sp,272
    3f00:	00008067          	ret
    3f04:	00000793          	li	a5,0
    3f08:	00279793          	slli	a5,a5,0x2
    3f0c:	00f50533          	add	a0,a0,a5
    3f10:	000065b7          	lui	a1,0x6
    3f14:	00852623          	sw	s0,12(a0)
    3f18:	06858593          	addi	a1,a1,104 # 6068 <__global_pointer+0x938>
    3f1c:	00010513          	mv	a0,sp
    3f20:	e18fc0ef          	jal	538 <append_str>
    3f24:	000057b7          	lui	a5,0x5
    3f28:	00241593          	slli	a1,s0,0x2
    3f2c:	e6478793          	addi	a5,a5,-412 # 4e64 <COLLECTIBLE_NAMES>
    3f30:	00b787b3          	add	a5,a5,a1
    3f34:	0007a583          	lw	a1,0(a5)
    3f38:	00010513          	mv	a0,sp
    3f3c:	dfcfc0ef          	jal	538 <append_str>
    3f40:	000065b7          	lui	a1,0x6
    3f44:	00010513          	mv	a0,sp
    3f48:	07058593          	addi	a1,a1,112 # 6070 <__global_pointer+0x940>
    3f4c:	decfc0ef          	jal	538 <append_str>
    3f50:	00010513          	mv	a0,sp
    3f54:	25d000ef          	jal	49b0 <print>
    3f58:	10c12083          	lw	ra,268(sp)
    3f5c:	10812403          	lw	s0,264(sp)
    3f60:	11010113          	addi	sp,sp,272
    3f64:	00008067          	ret
    3f68:	00100793          	li	a5,1
    3f6c:	f9dff06f          	j	3f08 <add_to_storage+0x5c>
    3f70:	00200793          	li	a5,2
    3f74:	f95ff06f          	j	3f08 <add_to_storage+0x5c>
    3f78:	00300793          	li	a5,3
    3f7c:	f8dff06f          	j	3f08 <add_to_storage+0x5c>
    3f80:	00400793          	li	a5,4
    3f84:	f85ff06f          	j	3f08 <add_to_storage+0x5c>

00003f88 <add_fuel_enginebay>:
    3f88:	00c52783          	lw	a5,12(a0)
    3f8c:	ef010113          	addi	sp,sp,-272
    3f90:	10112623          	sw	ra,268(sp)
    3f94:	00010023          	sb	zero,0(sp)
    3f98:	00078e63          	beqz	a5,3fb4 <add_fuel_enginebay+0x2c>
    3f9c:	00006537          	lui	a0,0x6
    3fa0:	0c050513          	addi	a0,a0,192 # 60c0 <__global_pointer+0x990>
    3fa4:	20d000ef          	jal	49b0 <print>
    3fa8:	10c12083          	lw	ra,268(sp)
    3fac:	11010113          	addi	sp,sp,272
    3fb0:	00008067          	ret
    3fb4:	10812423          	sw	s0,264(sp)
    3fb8:	00b52623          	sw	a1,12(a0)
    3fbc:	00058413          	mv	s0,a1
    3fc0:	000065b7          	lui	a1,0x6
    3fc4:	00010513          	mv	a0,sp
    3fc8:	06858593          	addi	a1,a1,104 # 6068 <__global_pointer+0x938>
    3fcc:	d6cfc0ef          	jal	538 <append_str>
    3fd0:	000057b7          	lui	a5,0x5
    3fd4:	00241593          	slli	a1,s0,0x2
    3fd8:	e6478793          	addi	a5,a5,-412 # 4e64 <COLLECTIBLE_NAMES>
    3fdc:	00b787b3          	add	a5,a5,a1
    3fe0:	0007a583          	lw	a1,0(a5)
    3fe4:	00010513          	mv	a0,sp
    3fe8:	d50fc0ef          	jal	538 <append_str>
    3fec:	000065b7          	lui	a1,0x6
    3ff0:	00010513          	mv	a0,sp
    3ff4:	0ac58593          	addi	a1,a1,172 # 60ac <__global_pointer+0x97c>
    3ff8:	d40fc0ef          	jal	538 <append_str>
    3ffc:	00010513          	mv	a0,sp
    4000:	1b1000ef          	jal	49b0 <print>
    4004:	10c12083          	lw	ra,268(sp)
    4008:	10812403          	lw	s0,264(sp)
    400c:	11010113          	addi	sp,sp,272
    4010:	00008067          	ret

00004014 <remove_from_storage>:
    4014:	ee010113          	addi	sp,sp,-288
    4018:	10112e23          	sw	ra,284(sp)
    401c:	00010823          	sb	zero,16(sp)
    4020:	00400793          	li	a5,4
    4024:	0eb7ee63          	bltu	a5,a1,4120 <remove_from_storage+0x10c>
    4028:	00259793          	slli	a5,a1,0x2
    402c:	10912a23          	sw	s1,276(sp)
    4030:	00f504b3          	add	s1,a0,a5
    4034:	00c4a783          	lw	a5,12(s1)
    4038:	10812c23          	sw	s0,280(sp)
    403c:	00158413          	addi	s0,a1,1
    4040:	04079c63          	bnez	a5,4098 <remove_from_storage+0x84>
    4044:	000065b7          	lui	a1,0x6
    4048:	01010513          	addi	a0,sp,16
    404c:	10458593          	addi	a1,a1,260 # 6104 <__global_pointer+0x9d4>
    4050:	ce8fc0ef          	jal	538 <append_str>
    4054:	00410593          	addi	a1,sp,4
    4058:	00040513          	mv	a0,s0
    405c:	95cfc0ef          	jal	1b8 <int_to_str>
    4060:	00410593          	addi	a1,sp,4
    4064:	01010513          	addi	a0,sp,16
    4068:	cd0fc0ef          	jal	538 <append_str>
    406c:	000065b7          	lui	a1,0x6
    4070:	01010513          	addi	a0,sp,16
    4074:	03858593          	addi	a1,a1,56 # 6038 <__global_pointer+0x908>
    4078:	cc0fc0ef          	jal	538 <append_str>
    407c:	01010513          	addi	a0,sp,16
    4080:	131000ef          	jal	49b0 <print>
    4084:	11c12083          	lw	ra,284(sp)
    4088:	11812403          	lw	s0,280(sp)
    408c:	11412483          	lw	s1,276(sp)
    4090:	12010113          	addi	sp,sp,288
    4094:	00008067          	ret
    4098:	000065b7          	lui	a1,0x6
    409c:	01010513          	addi	a0,sp,16
    40a0:	00458593          	addi	a1,a1,4 # 6004 <__global_pointer+0x8d4>
    40a4:	c94fc0ef          	jal	538 <append_str>
    40a8:	00c4a703          	lw	a4,12(s1)
    40ac:	000057b7          	lui	a5,0x5
    40b0:	e6478793          	addi	a5,a5,-412 # 4e64 <COLLECTIBLE_NAMES>
    40b4:	00271713          	slli	a4,a4,0x2
    40b8:	00e787b3          	add	a5,a5,a4
    40bc:	0007a583          	lw	a1,0(a5)
    40c0:	01010513          	addi	a0,sp,16
    40c4:	c74fc0ef          	jal	538 <append_str>
    40c8:	000065b7          	lui	a1,0x6
    40cc:	01010513          	addi	a0,sp,16
    40d0:	0f058593          	addi	a1,a1,240 # 60f0 <__global_pointer+0x9c0>
    40d4:	c64fc0ef          	jal	538 <append_str>
    40d8:	00410593          	addi	a1,sp,4
    40dc:	00040513          	mv	a0,s0
    40e0:	8d8fc0ef          	jal	1b8 <int_to_str>
    40e4:	00410593          	addi	a1,sp,4
    40e8:	01010513          	addi	a0,sp,16
    40ec:	c4cfc0ef          	jal	538 <append_str>
    40f0:	000055b7          	lui	a1,0x5
    40f4:	01010513          	addi	a0,sp,16
    40f8:	3ec58593          	addi	a1,a1,1004 # 53ec <CSWTCH.15+0x3d0>
    40fc:	c3cfc0ef          	jal	538 <append_str>
    4100:	01010513          	addi	a0,sp,16
    4104:	0ad000ef          	jal	49b0 <print>
    4108:	11c12083          	lw	ra,284(sp)
    410c:	11812403          	lw	s0,280(sp)
    4110:	0004a623          	sw	zero,12(s1)
    4114:	11412483          	lw	s1,276(sp)
    4118:	12010113          	addi	sp,sp,288
    411c:	00008067          	ret
    4120:	00006537          	lui	a0,0x6
    4124:	11450513          	addi	a0,a0,276 # 6114 <__global_pointer+0x9e4>
    4128:	089000ef          	jal	49b0 <print>
    412c:	11c12083          	lw	ra,284(sp)
    4130:	12010113          	addi	sp,sp,288
    4134:	00008067          	ret

00004138 <check_storage>:
    4138:	ee010113          	addi	sp,sp,-288
    413c:	10812c23          	sw	s0,280(sp)
    4140:	00058413          	mv	s0,a1
    4144:	0085a583          	lw	a1,8(a1)
    4148:	01010513          	addi	a0,sp,16
    414c:	10112e23          	sw	ra,284(sp)
    4150:	10912a23          	sw	s1,276(sp)
    4154:	00010823          	sb	zero,16(sp)
    4158:	000054b7          	lui	s1,0x5
    415c:	bdcfc0ef          	jal	538 <append_str>
    4160:	3ec48593          	addi	a1,s1,1004 # 53ec <CSWTCH.15+0x3d0>
    4164:	01010513          	addi	a0,sp,16
    4168:	bd0fc0ef          	jal	538 <append_str>
    416c:	01010513          	addi	a0,sp,16
    4170:	041000ef          	jal	49b0 <print>
    4174:	00006537          	lui	a0,0x6
    4178:	12c50513          	addi	a0,a0,300 # 612c <__global_pointer+0x9fc>
    417c:	035000ef          	jal	49b0 <print>
    4180:	00c42783          	lw	a5,12(s0)
    4184:	00900713          	li	a4,9
    4188:	ff978793          	addi	a5,a5,-7
    418c:	04f77c63          	bgeu	a4,a5,41e4 <check_storage+0xac>
    4190:	01042783          	lw	a5,16(s0)
    4194:	00900713          	li	a4,9
    4198:	ff978793          	addi	a5,a5,-7
    419c:	0cf77463          	bgeu	a4,a5,4264 <check_storage+0x12c>
    41a0:	01442783          	lw	a5,20(s0)
    41a4:	00900713          	li	a4,9
    41a8:	ff978793          	addi	a5,a5,-7
    41ac:	12f77c63          	bgeu	a4,a5,42e4 <check_storage+0x1ac>
    41b0:	01842783          	lw	a5,24(s0)
    41b4:	00900713          	li	a4,9
    41b8:	ff978793          	addi	a5,a5,-7
    41bc:	1af77463          	bgeu	a4,a5,4364 <check_storage+0x22c>
    41c0:	01c42783          	lw	a5,28(s0)
    41c4:	00900713          	li	a4,9
    41c8:	ff978793          	addi	a5,a5,-7
    41cc:	20f77c63          	bgeu	a4,a5,43e4 <check_storage+0x2ac>
    41d0:	11c12083          	lw	ra,284(sp)
    41d4:	11812403          	lw	s0,280(sp)
    41d8:	11412483          	lw	s1,276(sp)
    41dc:	12010113          	addi	sp,sp,288
    41e0:	00008067          	ret
    41e4:	000055b7          	lui	a1,0x5
    41e8:	3b458593          	addi	a1,a1,948 # 53b4 <CSWTCH.15+0x398>
    41ec:	01010513          	addi	a0,sp,16
    41f0:	00010823          	sb	zero,16(sp)
    41f4:	b44fc0ef          	jal	538 <append_str>
    41f8:	00410593          	addi	a1,sp,4
    41fc:	00100513          	li	a0,1
    4200:	fb9fb0ef          	jal	1b8 <int_to_str>
    4204:	00410593          	addi	a1,sp,4
    4208:	01010513          	addi	a0,sp,16
    420c:	b2cfc0ef          	jal	538 <append_str>
    4210:	000055b7          	lui	a1,0x5
    4214:	3bc58593          	addi	a1,a1,956 # 53bc <CSWTCH.15+0x3a0>
    4218:	01010513          	addi	a0,sp,16
    421c:	b1cfc0ef          	jal	538 <append_str>
    4220:	00c42703          	lw	a4,12(s0)
    4224:	000057b7          	lui	a5,0x5
    4228:	e6478793          	addi	a5,a5,-412 # 4e64 <COLLECTIBLE_NAMES>
    422c:	00271713          	slli	a4,a4,0x2
    4230:	00e787b3          	add	a5,a5,a4
    4234:	0007a583          	lw	a1,0(a5)
    4238:	01010513          	addi	a0,sp,16
    423c:	afcfc0ef          	jal	538 <append_str>
    4240:	3ec48593          	addi	a1,s1,1004
    4244:	01010513          	addi	a0,sp,16
    4248:	af0fc0ef          	jal	538 <append_str>
    424c:	01010513          	addi	a0,sp,16
    4250:	760000ef          	jal	49b0 <print>
    4254:	01042783          	lw	a5,16(s0)
    4258:	00900713          	li	a4,9
    425c:	ff978793          	addi	a5,a5,-7
    4260:	f4f760e3          	bltu	a4,a5,41a0 <check_storage+0x68>
    4264:	000055b7          	lui	a1,0x5
    4268:	3b458593          	addi	a1,a1,948 # 53b4 <CSWTCH.15+0x398>
    426c:	01010513          	addi	a0,sp,16
    4270:	00010823          	sb	zero,16(sp)
    4274:	ac4fc0ef          	jal	538 <append_str>
    4278:	00410593          	addi	a1,sp,4
    427c:	00200513          	li	a0,2
    4280:	f39fb0ef          	jal	1b8 <int_to_str>
    4284:	00410593          	addi	a1,sp,4
    4288:	01010513          	addi	a0,sp,16
    428c:	aacfc0ef          	jal	538 <append_str>
    4290:	000055b7          	lui	a1,0x5
    4294:	3bc58593          	addi	a1,a1,956 # 53bc <CSWTCH.15+0x3a0>
    4298:	01010513          	addi	a0,sp,16
    429c:	a9cfc0ef          	jal	538 <append_str>
    42a0:	01042703          	lw	a4,16(s0)
    42a4:	000057b7          	lui	a5,0x5
    42a8:	e6478793          	addi	a5,a5,-412 # 4e64 <COLLECTIBLE_NAMES>
    42ac:	00271713          	slli	a4,a4,0x2
    42b0:	00e787b3          	add	a5,a5,a4
    42b4:	0007a583          	lw	a1,0(a5)
    42b8:	01010513          	addi	a0,sp,16
    42bc:	a7cfc0ef          	jal	538 <append_str>
    42c0:	3ec48593          	addi	a1,s1,1004
    42c4:	01010513          	addi	a0,sp,16
    42c8:	a70fc0ef          	jal	538 <append_str>
    42cc:	01010513          	addi	a0,sp,16
    42d0:	6e0000ef          	jal	49b0 <print>
    42d4:	01442783          	lw	a5,20(s0)
    42d8:	00900713          	li	a4,9
    42dc:	ff978793          	addi	a5,a5,-7
    42e0:	ecf768e3          	bltu	a4,a5,41b0 <check_storage+0x78>
    42e4:	000055b7          	lui	a1,0x5
    42e8:	3b458593          	addi	a1,a1,948 # 53b4 <CSWTCH.15+0x398>
    42ec:	01010513          	addi	a0,sp,16
    42f0:	00010823          	sb	zero,16(sp)
    42f4:	a44fc0ef          	jal	538 <append_str>
    42f8:	00410593          	addi	a1,sp,4
    42fc:	00300513          	li	a0,3
    4300:	eb9fb0ef          	jal	1b8 <int_to_str>
    4304:	00410593          	addi	a1,sp,4
    4308:	01010513          	addi	a0,sp,16
    430c:	a2cfc0ef          	jal	538 <append_str>
    4310:	000055b7          	lui	a1,0x5
    4314:	3bc58593          	addi	a1,a1,956 # 53bc <CSWTCH.15+0x3a0>
    4318:	01010513          	addi	a0,sp,16
    431c:	a1cfc0ef          	jal	538 <append_str>
    4320:	01442703          	lw	a4,20(s0)
    4324:	000057b7          	lui	a5,0x5
    4328:	e6478793          	addi	a5,a5,-412 # 4e64 <COLLECTIBLE_NAMES>
    432c:	00271713          	slli	a4,a4,0x2
    4330:	00e787b3          	add	a5,a5,a4
    4334:	0007a583          	lw	a1,0(a5)
    4338:	01010513          	addi	a0,sp,16
    433c:	9fcfc0ef          	jal	538 <append_str>
    4340:	3ec48593          	addi	a1,s1,1004
    4344:	01010513          	addi	a0,sp,16
    4348:	9f0fc0ef          	jal	538 <append_str>
    434c:	01010513          	addi	a0,sp,16
    4350:	660000ef          	jal	49b0 <print>
    4354:	01842783          	lw	a5,24(s0)
    4358:	00900713          	li	a4,9
    435c:	ff978793          	addi	a5,a5,-7
    4360:	e6f760e3          	bltu	a4,a5,41c0 <check_storage+0x88>
    4364:	000055b7          	lui	a1,0x5
    4368:	3b458593          	addi	a1,a1,948 # 53b4 <CSWTCH.15+0x398>
    436c:	01010513          	addi	a0,sp,16
    4370:	00010823          	sb	zero,16(sp)
    4374:	9c4fc0ef          	jal	538 <append_str>
    4378:	00410593          	addi	a1,sp,4
    437c:	00400513          	li	a0,4
    4380:	e39fb0ef          	jal	1b8 <int_to_str>
    4384:	00410593          	addi	a1,sp,4
    4388:	01010513          	addi	a0,sp,16
    438c:	9acfc0ef          	jal	538 <append_str>
    4390:	000055b7          	lui	a1,0x5
    4394:	3bc58593          	addi	a1,a1,956 # 53bc <CSWTCH.15+0x3a0>
    4398:	01010513          	addi	a0,sp,16
    439c:	99cfc0ef          	jal	538 <append_str>
    43a0:	01842703          	lw	a4,24(s0)
    43a4:	000057b7          	lui	a5,0x5
    43a8:	e6478793          	addi	a5,a5,-412 # 4e64 <COLLECTIBLE_NAMES>
    43ac:	00271713          	slli	a4,a4,0x2
    43b0:	00e787b3          	add	a5,a5,a4
    43b4:	0007a583          	lw	a1,0(a5)
    43b8:	01010513          	addi	a0,sp,16
    43bc:	97cfc0ef          	jal	538 <append_str>
    43c0:	3ec48593          	addi	a1,s1,1004
    43c4:	01010513          	addi	a0,sp,16
    43c8:	970fc0ef          	jal	538 <append_str>
    43cc:	01010513          	addi	a0,sp,16
    43d0:	5e0000ef          	jal	49b0 <print>
    43d4:	01c42783          	lw	a5,28(s0)
    43d8:	00900713          	li	a4,9
    43dc:	ff978793          	addi	a5,a5,-7
    43e0:	def768e3          	bltu	a4,a5,41d0 <check_storage+0x98>
    43e4:	000055b7          	lui	a1,0x5
    43e8:	01010513          	addi	a0,sp,16
    43ec:	3b458593          	addi	a1,a1,948 # 53b4 <CSWTCH.15+0x398>
    43f0:	00010823          	sb	zero,16(sp)
    43f4:	944fc0ef          	jal	538 <append_str>
    43f8:	00410593          	addi	a1,sp,4
    43fc:	00500513          	li	a0,5
    4400:	db9fb0ef          	jal	1b8 <int_to_str>
    4404:	00410593          	addi	a1,sp,4
    4408:	01010513          	addi	a0,sp,16
    440c:	92cfc0ef          	jal	538 <append_str>
    4410:	000055b7          	lui	a1,0x5
    4414:	01010513          	addi	a0,sp,16
    4418:	3bc58593          	addi	a1,a1,956 # 53bc <CSWTCH.15+0x3a0>
    441c:	91cfc0ef          	jal	538 <append_str>
    4420:	01c42703          	lw	a4,28(s0)
    4424:	000057b7          	lui	a5,0x5
    4428:	e6478793          	addi	a5,a5,-412 # 4e64 <COLLECTIBLE_NAMES>
    442c:	00271713          	slli	a4,a4,0x2
    4430:	00e787b3          	add	a5,a5,a4
    4434:	0007a583          	lw	a1,0(a5)
    4438:	01010513          	addi	a0,sp,16
    443c:	8fcfc0ef          	jal	538 <append_str>
    4440:	3ec48593          	addi	a1,s1,1004
    4444:	01010513          	addi	a0,sp,16
    4448:	8f0fc0ef          	jal	538 <append_str>
    444c:	01010513          	addi	a0,sp,16
    4450:	560000ef          	jal	49b0 <print>
    4454:	11c12083          	lw	ra,284(sp)
    4458:	11812403          	lw	s0,280(sp)
    445c:	11412483          	lw	s1,276(sp)
    4460:	12010113          	addi	sp,sp,288
    4464:	00008067          	ret

00004468 <storage>:
    4468:	00100713          	li	a4,1
    446c:	00e52223          	sw	a4,4(a0)
    4470:	00006737          	lui	a4,0x6
    4474:	15470713          	addi	a4,a4,340 # 6154 <__global_pointer+0xa24>
    4478:	00e52423          	sw	a4,8(a0)
    447c:	00700713          	li	a4,7
    4480:	00e52623          	sw	a4,12(a0)
    4484:	00900713          	li	a4,9
    4488:	fd010113          	addi	sp,sp,-48
    448c:	00052023          	sw	zero,0(a0)
    4490:	00e52823          	sw	a4,16(a0)
    4494:	00052a23          	sw	zero,20(a0)
    4498:	00052c23          	sw	zero,24(a0)
    449c:	00052e23          	sw	zero,28(a0)
    44a0:	02052023          	sw	zero,32(a0)
    44a4:	02052223          	sw	zero,36(a0)
    44a8:	03010113          	addi	sp,sp,48
    44ac:	00008067          	ret

000044b0 <chambers>:
    44b0:	00100713          	li	a4,1
    44b4:	00e52023          	sw	a4,0(a0)
    44b8:	00006737          	lui	a4,0x6
    44bc:	1c470713          	addi	a4,a4,452 # 61c4 <__global_pointer+0xa94>
    44c0:	00e52423          	sw	a4,8(a0)
    44c4:	02052223          	sw	zero,36(a0)
    44c8:	00008067          	ret

000044cc <cockpit>:
    44cc:	00200713          	li	a4,2
    44d0:	00e52023          	sw	a4,0(a0)
    44d4:	00100713          	li	a4,1
    44d8:	00e52223          	sw	a4,4(a0)
    44dc:	00006737          	lui	a4,0x6
    44e0:	20470713          	addi	a4,a4,516 # 6204 <__global_pointer+0xad4>
    44e4:	00e52423          	sw	a4,8(a0)
    44e8:	02052223          	sw	zero,36(a0)
    44ec:	00008067          	ret

000044f0 <cafeteria>:
    44f0:	00300713          	li	a4,3
    44f4:	00e52023          	sw	a4,0(a0)
    44f8:	00006737          	lui	a4,0x6
    44fc:	25470713          	addi	a4,a4,596 # 6254 <__global_pointer+0xb24>
    4500:	00e52423          	sw	a4,8(a0)
    4504:	00700713          	li	a4,7
    4508:	02e52023          	sw	a4,32(a0)
    450c:	02052223          	sw	zero,36(a0)
    4510:	00008067          	ret

00004514 <engine_bay>:
    4514:	fd010113          	addi	sp,sp,-48
    4518:	00400713          	li	a4,4
    451c:	00e52023          	sw	a4,0(a0)
    4520:	00c12703          	lw	a4,12(sp)
    4524:	00052623          	sw	zero,12(a0)
    4528:	00052823          	sw	zero,16(a0)
    452c:	00e52223          	sw	a4,4(a0)
    4530:	00006737          	lui	a4,0x6
    4534:	28870713          	addi	a4,a4,648 # 6288 <__global_pointer+0xb58>
    4538:	00e52423          	sw	a4,8(a0)
    453c:	00052a23          	sw	zero,20(a0)
    4540:	00052c23          	sw	zero,24(a0)
    4544:	00052e23          	sw	zero,28(a0)
    4548:	02052023          	sw	zero,32(a0)
    454c:	02052223          	sw	zero,36(a0)
    4550:	03010113          	addi	sp,sp,48
    4554:	00008067          	ret

00004558 <laboratory>:
    4558:	00500713          	li	a4,5
    455c:	00e52023          	sw	a4,0(a0)
    4560:	00006737          	lui	a4,0x6
    4564:	2c870713          	addi	a4,a4,712 # 62c8 <__global_pointer+0xb98>
    4568:	00e52423          	sw	a4,8(a0)
    456c:	02052223          	sw	zero,36(a0)
    4570:	00008067          	ret

00004574 <airlock>:
    4574:	00600713          	li	a4,6
    4578:	00e52023          	sw	a4,0(a0)
    457c:	00006737          	lui	a4,0x6
    4580:	2fc70713          	addi	a4,a4,764 # 62fc <__global_pointer+0xbcc>
    4584:	00e52423          	sw	a4,8(a0)
    4588:	02052223          	sw	zero,36(a0)
    458c:	00008067          	ret

00004590 <landing_site>:
    4590:	00700713          	li	a4,7
    4594:	00e52023          	sw	a4,0(a0)
    4598:	00006737          	lui	a4,0x6
    459c:	34c70713          	addi	a4,a4,844 # 634c <__global_pointer+0xc1c>
    45a0:	00100693          	li	a3,1
    45a4:	00e52423          	sw	a4,8(a0)
    45a8:	00b00713          	li	a4,11
    45ac:	00d52223          	sw	a3,4(a0)
    45b0:	00e52623          	sw	a4,12(a0)
    45b4:	02d52223          	sw	a3,36(a0)
    45b8:	00008067          	ret

000045bc <wasteland>:
    45bc:	00800713          	li	a4,8
    45c0:	00e52023          	sw	a4,0(a0)
    45c4:	00006737          	lui	a4,0x6
    45c8:	38c70713          	addi	a4,a4,908 # 638c <__global_pointer+0xc5c>
    45cc:	00e52423          	sw	a4,8(a0)
    45d0:	00100713          	li	a4,1
    45d4:	02e52223          	sw	a4,36(a0)
    45d8:	00008067          	ret

000045dc <loose_soil>:
    45dc:	00900713          	li	a4,9
    45e0:	00e52023          	sw	a4,0(a0)
    45e4:	00006737          	lui	a4,0x6
    45e8:	3b070713          	addi	a4,a4,944 # 63b0 <__global_pointer+0xc80>
    45ec:	00e52423          	sw	a4,8(a0)
    45f0:	00100713          	li	a4,1
    45f4:	02e52223          	sw	a4,36(a0)
    45f8:	00008067          	ret

000045fc <pond>:
    45fc:	00a00693          	li	a3,10
    4600:	00d52023          	sw	a3,0(a0)
    4604:	000066b7          	lui	a3,0x6
    4608:	00100713          	li	a4,1
    460c:	3f068693          	addi	a3,a3,1008 # 63f0 <__global_pointer+0xcc0>
    4610:	00d52423          	sw	a3,8(a0)
    4614:	00e52623          	sw	a4,12(a0)
    4618:	02e52023          	sw	a4,32(a0)
    461c:	02e52223          	sw	a4,36(a0)
    4620:	00008067          	ret

00004624 <sharp_rocks>:
    4624:	00b00713          	li	a4,11
    4628:	00e52023          	sw	a4,0(a0)
    462c:	00006737          	lui	a4,0x6
    4630:	41070713          	addi	a4,a4,1040 # 6410 <__global_pointer+0xce0>
    4634:	00e52423          	sw	a4,8(a0)
    4638:	00100713          	li	a4,1
    463c:	02e52223          	sw	a4,36(a0)
    4640:	00008067          	ret

00004644 <cave>:
    4644:	00c00713          	li	a4,12
    4648:	00e52023          	sw	a4,0(a0)
    464c:	00006737          	lui	a4,0x6
    4650:	46c70713          	addi	a4,a4,1132 # 646c <__global_pointer+0xd3c>
    4654:	00400693          	li	a3,4
    4658:	00e52423          	sw	a4,8(a0)
    465c:	00100713          	li	a4,1
    4660:	00d52623          	sw	a3,12(a0)
    4664:	02d52023          	sw	a3,32(a0)
    4668:	02e52223          	sw	a4,36(a0)
    466c:	00008067          	ret

00004670 <crater>:
    4670:	00d00713          	li	a4,13
    4674:	00e52023          	sw	a4,0(a0)
    4678:	00006737          	lui	a4,0x6
    467c:	4a070713          	addi	a4,a4,1184 # 64a0 <__global_pointer+0xd70>
    4680:	00200693          	li	a3,2
    4684:	00e52423          	sw	a4,8(a0)
    4688:	00100713          	li	a4,1
    468c:	00d52623          	sw	a3,12(a0)
    4690:	02d52023          	sw	a3,32(a0)
    4694:	02e52223          	sw	a4,36(a0)
    4698:	00008067          	ret

0000469c <canyon>:
    469c:	00e00713          	li	a4,14
    46a0:	00e52023          	sw	a4,0(a0)
    46a4:	00006737          	lui	a4,0x6
    46a8:	4c470713          	addi	a4,a4,1220 # 64c4 <__global_pointer+0xd94>
    46ac:	00300693          	li	a3,3
    46b0:	00e52423          	sw	a4,8(a0)
    46b4:	00100713          	li	a4,1
    46b8:	00d52623          	sw	a3,12(a0)
    46bc:	02d52023          	sw	a3,32(a0)
    46c0:	02e52223          	sw	a4,36(a0)
    46c4:	00008067          	ret

000046c8 <mountain>:
    46c8:	00f00713          	li	a4,15
    46cc:	00e52023          	sw	a4,0(a0)
    46d0:	00006737          	lui	a4,0x6
    46d4:	4f470713          	addi	a4,a4,1268 # 64f4 <__global_pointer+0xdc4>
    46d8:	00e52423          	sw	a4,8(a0)
    46dc:	00100713          	li	a4,1
    46e0:	02e52223          	sw	a4,36(a0)
    46e4:	00008067          	ret

000046e8 <empty>:
    46e8:	01000713          	li	a4,16
    46ec:	00e52023          	sw	a4,0(a0)
    46f0:	00006737          	lui	a4,0x6
    46f4:	52870713          	addi	a4,a4,1320 # 6528 <__global_pointer+0xdf8>
    46f8:	00e52423          	sw	a4,8(a0)
    46fc:	02052223          	sw	zero,36(a0)
    4700:	00008067          	ret

00004704 <ct>:
    4704:	01000793          	li	a5,16
    4708:	26b7e463          	bltu	a5,a1,4970 <ct+0x26c>
    470c:	000057b7          	lui	a5,0x5
    4710:	08078793          	addi	a5,a5,128 # 5080 <CSWTCH.15+0x64>
    4714:	00259593          	slli	a1,a1,0x2
    4718:	00f585b3          	add	a1,a1,a5
    471c:	0005a783          	lw	a5,0(a1)
    4720:	00078067          	jr	a5
    4724:	01000793          	li	a5,16
    4728:	00f52023          	sw	a5,0(a0)
    472c:	000067b7          	lui	a5,0x6
    4730:	52878793          	addi	a5,a5,1320 # 6528 <__global_pointer+0xdf8>
    4734:	00f52423          	sw	a5,8(a0)
    4738:	02052223          	sw	zero,36(a0)
    473c:	00008067          	ret
    4740:	00100793          	li	a5,1
    4744:	00f52223          	sw	a5,4(a0)
    4748:	000067b7          	lui	a5,0x6
    474c:	15478793          	addi	a5,a5,340 # 6154 <__global_pointer+0xa24>
    4750:	00f52423          	sw	a5,8(a0)
    4754:	00700793          	li	a5,7
    4758:	00f52623          	sw	a5,12(a0)
    475c:	00900793          	li	a5,9
    4760:	00052023          	sw	zero,0(a0)
    4764:	00f52823          	sw	a5,16(a0)
    4768:	00052a23          	sw	zero,20(a0)
    476c:	00052c23          	sw	zero,24(a0)
    4770:	00052e23          	sw	zero,28(a0)
    4774:	02052023          	sw	zero,32(a0)
    4778:	02052223          	sw	zero,36(a0)
    477c:	00008067          	ret
    4780:	00100793          	li	a5,1
    4784:	00f52023          	sw	a5,0(a0)
    4788:	000067b7          	lui	a5,0x6
    478c:	1c478793          	addi	a5,a5,452 # 61c4 <__global_pointer+0xa94>
    4790:	00f52423          	sw	a5,8(a0)
    4794:	02052223          	sw	zero,36(a0)
    4798:	00008067          	ret
    479c:	00200793          	li	a5,2
    47a0:	00f52023          	sw	a5,0(a0)
    47a4:	00100793          	li	a5,1
    47a8:	00f52223          	sw	a5,4(a0)
    47ac:	000067b7          	lui	a5,0x6
    47b0:	20478793          	addi	a5,a5,516 # 6204 <__global_pointer+0xad4>
    47b4:	00f52423          	sw	a5,8(a0)
    47b8:	02052223          	sw	zero,36(a0)
    47bc:	00008067          	ret
    47c0:	00300793          	li	a5,3
    47c4:	00f52023          	sw	a5,0(a0)
    47c8:	000067b7          	lui	a5,0x6
    47cc:	25478793          	addi	a5,a5,596 # 6254 <__global_pointer+0xb24>
    47d0:	00f52423          	sw	a5,8(a0)
    47d4:	00700793          	li	a5,7
    47d8:	02f52023          	sw	a5,32(a0)
    47dc:	02052223          	sw	zero,36(a0)
    47e0:	00008067          	ret
    47e4:	fd010113          	addi	sp,sp,-48
    47e8:	00400793          	li	a5,4
    47ec:	00f52023          	sw	a5,0(a0)
    47f0:	00c12783          	lw	a5,12(sp)
    47f4:	00052623          	sw	zero,12(a0)
    47f8:	00052823          	sw	zero,16(a0)
    47fc:	00f52223          	sw	a5,4(a0)
    4800:	000067b7          	lui	a5,0x6
    4804:	28878793          	addi	a5,a5,648 # 6288 <__global_pointer+0xb58>
    4808:	00f52423          	sw	a5,8(a0)
    480c:	00052a23          	sw	zero,20(a0)
    4810:	00052c23          	sw	zero,24(a0)
    4814:	00052e23          	sw	zero,28(a0)
    4818:	02052023          	sw	zero,32(a0)
    481c:	02052223          	sw	zero,36(a0)
    4820:	03010113          	addi	sp,sp,48
    4824:	00008067          	ret
    4828:	00500793          	li	a5,5
    482c:	00f52023          	sw	a5,0(a0)
    4830:	000067b7          	lui	a5,0x6
    4834:	2c878793          	addi	a5,a5,712 # 62c8 <__global_pointer+0xb98>
    4838:	00f52423          	sw	a5,8(a0)
    483c:	02052223          	sw	zero,36(a0)
    4840:	00008067          	ret
    4844:	00600793          	li	a5,6
    4848:	00f52023          	sw	a5,0(a0)
    484c:	000067b7          	lui	a5,0x6
    4850:	2fc78793          	addi	a5,a5,764 # 62fc <__global_pointer+0xbcc>
    4854:	00f52423          	sw	a5,8(a0)
    4858:	02052223          	sw	zero,36(a0)
    485c:	00008067          	ret
    4860:	00700793          	li	a5,7
    4864:	00f52023          	sw	a5,0(a0)
    4868:	000067b7          	lui	a5,0x6
    486c:	34c78793          	addi	a5,a5,844 # 634c <__global_pointer+0xc1c>
    4870:	00100713          	li	a4,1
    4874:	00f52423          	sw	a5,8(a0)
    4878:	00b00793          	li	a5,11
    487c:	00e52223          	sw	a4,4(a0)
    4880:	00f52623          	sw	a5,12(a0)
    4884:	02e52223          	sw	a4,36(a0)
    4888:	00008067          	ret
    488c:	00900793          	li	a5,9
    4890:	00f52023          	sw	a5,0(a0)
    4894:	000067b7          	lui	a5,0x6
    4898:	3b078793          	addi	a5,a5,944 # 63b0 <__global_pointer+0xc80>
    489c:	00f52423          	sw	a5,8(a0)
    48a0:	00100793          	li	a5,1
    48a4:	02f52223          	sw	a5,36(a0)
    48a8:	00008067          	ret
    48ac:	00a00713          	li	a4,10
    48b0:	00e52023          	sw	a4,0(a0)
    48b4:	00006737          	lui	a4,0x6
    48b8:	00100793          	li	a5,1
    48bc:	3f070713          	addi	a4,a4,1008 # 63f0 <__global_pointer+0xcc0>
    48c0:	00e52423          	sw	a4,8(a0)
    48c4:	00f52623          	sw	a5,12(a0)
    48c8:	02f52023          	sw	a5,32(a0)
    48cc:	02f52223          	sw	a5,36(a0)
    48d0:	00008067          	ret
    48d4:	00b00793          	li	a5,11
    48d8:	00f52023          	sw	a5,0(a0)
    48dc:	000067b7          	lui	a5,0x6
    48e0:	41078793          	addi	a5,a5,1040 # 6410 <__global_pointer+0xce0>
    48e4:	00f52423          	sw	a5,8(a0)
    48e8:	00100793          	li	a5,1
    48ec:	02f52223          	sw	a5,36(a0)
    48f0:	00008067          	ret
    48f4:	00c00793          	li	a5,12
    48f8:	00f52023          	sw	a5,0(a0)
    48fc:	000067b7          	lui	a5,0x6
    4900:	00400713          	li	a4,4
    4904:	46c78793          	addi	a5,a5,1132 # 646c <__global_pointer+0xd3c>
    4908:	00f52423          	sw	a5,8(a0)
    490c:	00100793          	li	a5,1
    4910:	00e52623          	sw	a4,12(a0)
    4914:	02e52023          	sw	a4,32(a0)
    4918:	02f52223          	sw	a5,36(a0)
    491c:	00008067          	ret
    4920:	00d00793          	li	a5,13
    4924:	00f52023          	sw	a5,0(a0)
    4928:	000067b7          	lui	a5,0x6
    492c:	00200713          	li	a4,2
    4930:	4a078793          	addi	a5,a5,1184 # 64a0 <__global_pointer+0xd70>
    4934:	fd5ff06f          	j	4908 <ct+0x204>
    4938:	00e00793          	li	a5,14
    493c:	00f52023          	sw	a5,0(a0)
    4940:	000067b7          	lui	a5,0x6
    4944:	00300713          	li	a4,3
    4948:	4c478793          	addi	a5,a5,1220 # 64c4 <__global_pointer+0xd94>
    494c:	fbdff06f          	j	4908 <ct+0x204>
    4950:	00f00793          	li	a5,15
    4954:	00f52023          	sw	a5,0(a0)
    4958:	000067b7          	lui	a5,0x6
    495c:	4f478793          	addi	a5,a5,1268 # 64f4 <__global_pointer+0xdc4>
    4960:	00f52423          	sw	a5,8(a0)
    4964:	00100793          	li	a5,1
    4968:	02f52223          	sw	a5,36(a0)
    496c:	00008067          	ret
    4970:	00800793          	li	a5,8
    4974:	00f52023          	sw	a5,0(a0)
    4978:	000067b7          	lui	a5,0x6
    497c:	38c78793          	addi	a5,a5,908 # 638c <__global_pointer+0xc5c>
    4980:	00f52423          	sw	a5,8(a0)
    4984:	00100793          	li	a5,1
    4988:	02f52223          	sw	a5,36(a0)
    498c:	00008067          	ret

00004990 <printc>:
    4990:	04000737          	lui	a4,0x4000
    4994:	04470713          	addi	a4,a4,68 # 4000044 <_stack_end+0x3ef9a68>
    4998:	000106b7          	lui	a3,0x10
    499c:	00072783          	lw	a5,0(a4)
    49a0:	fed7eee3          	bltu	a5,a3,499c <printc+0xc>
    49a4:	040007b7          	lui	a5,0x4000
    49a8:	04a7a023          	sw	a0,64(a5) # 4000040 <_stack_end+0x3ef9a64>
    49ac:	00008067          	ret

000049b0 <print>:
    49b0:	00054603          	lbu	a2,0(a0)
    49b4:	02060863          	beqz	a2,49e4 <print+0x34>
    49b8:	04000737          	lui	a4,0x4000
    49bc:	040005b7          	lui	a1,0x4000
    49c0:	04470713          	addi	a4,a4,68 # 4000044 <_stack_end+0x3ef9a68>
    49c4:	000106b7          	lui	a3,0x10
    49c8:	04058593          	addi	a1,a1,64 # 4000040 <_stack_end+0x3ef9a64>
    49cc:	00072783          	lw	a5,0(a4)
    49d0:	fed7eee3          	bltu	a5,a3,49cc <print+0x1c>
    49d4:	00c5a023          	sw	a2,0(a1)
    49d8:	00154603          	lbu	a2,1(a0)
    49dc:	00150513          	addi	a0,a0,1
    49e0:	fe0616e3          	bnez	a2,49cc <print+0x1c>
    49e4:	00008067          	ret

000049e8 <print_dec>:
    49e8:	3b9ad737          	lui	a4,0x3b9ad
    49ec:	040006b7          	lui	a3,0x4000
    49f0:	04000337          	lui	t1,0x4000
    49f4:	00a00593          	li	a1,10
    49f8:	00000793          	li	a5,0
    49fc:	a0070713          	addi	a4,a4,-1536 # 3b9aca00 <_stack_end+0x3b8a6424>
    4a00:	04468693          	addi	a3,a3,68 # 4000044 <_stack_end+0x3ef9a68>
    4a04:	00010637          	lui	a2,0x10
    4a08:	04030313          	addi	t1,t1,64 # 4000040 <_stack_end+0x3ef9a64>
    4a0c:	00a00893          	li	a7,10
    4a10:	04e57063          	bgeu	a0,a4,4a50 <print_dec+0x68>
    4a14:	02079e63          	bnez	a5,4a50 <print_dec+0x68>
    4a18:	fff58593          	addi	a1,a1,-1
    4a1c:	02e57533          	remu	a0,a0,a4
    4a20:	03175733          	divu	a4,a4,a7
    4a24:	fe0596e3          	bnez	a1,4a10 <print_dec+0x28>
    4a28:	02079263          	bnez	a5,4a4c <print_dec+0x64>
    4a2c:	04000737          	lui	a4,0x4000
    4a30:	04470713          	addi	a4,a4,68 # 4000044 <_stack_end+0x3ef9a68>
    4a34:	000106b7          	lui	a3,0x10
    4a38:	00072783          	lw	a5,0(a4)
    4a3c:	fed7eee3          	bltu	a5,a3,4a38 <print_dec+0x50>
    4a40:	040007b7          	lui	a5,0x4000
    4a44:	03000713          	li	a4,48
    4a48:	04e7a023          	sw	a4,64(a5) # 4000040 <_stack_end+0x3ef9a64>
    4a4c:	00008067          	ret
    4a50:	02e55833          	divu	a6,a0,a4
    4a54:	03080813          	addi	a6,a6,48
    4a58:	0ff87813          	zext.b	a6,a6
    4a5c:	0006a783          	lw	a5,0(a3) # 10000 <__global_pointer+0xa8d0>
    4a60:	fec7eee3          	bltu	a5,a2,4a5c <print_dec+0x74>
    4a64:	01032023          	sw	a6,0(t1)
    4a68:	00100793          	li	a5,1
    4a6c:	fadff06f          	j	4a18 <print_dec+0x30>

00004a70 <print_hex32>:
    4a70:	04000737          	lui	a4,0x4000
    4a74:	04470713          	addi	a4,a4,68 # 4000044 <_stack_end+0x3ef9a68>
    4a78:	000106b7          	lui	a3,0x10
    4a7c:	00072783          	lw	a5,0(a4)
    4a80:	fed7eee3          	bltu	a5,a3,4a7c <print_hex32+0xc>
    4a84:	03000693          	li	a3,48
    4a88:	040007b7          	lui	a5,0x4000
    4a8c:	04000737          	lui	a4,0x4000
    4a90:	04d7a023          	sw	a3,64(a5) # 4000040 <_stack_end+0x3ef9a64>
    4a94:	04470713          	addi	a4,a4,68 # 4000044 <_stack_end+0x3ef9a68>
    4a98:	000106b7          	lui	a3,0x10
    4a9c:	00072783          	lw	a5,0(a4)
    4aa0:	fed7eee3          	bltu	a5,a3,4a9c <print_hex32+0x2c>
    4aa4:	04000837          	lui	a6,0x4000
    4aa8:	04080813          	addi	a6,a6,64 # 4000040 <_stack_end+0x3ef9a64>
    4aac:	04000737          	lui	a4,0x4000
    4ab0:	07800793          	li	a5,120
    4ab4:	00f82023          	sw	a5,0(a6)
    4ab8:	01c00613          	li	a2,28
    4abc:	00900313          	li	t1,9
    4ac0:	04470713          	addi	a4,a4,68 # 4000044 <_stack_end+0x3ef9a68>
    4ac4:	000106b7          	lui	a3,0x10
    4ac8:	ffc00893          	li	a7,-4
    4acc:	00c557b3          	srl	a5,a0,a2
    4ad0:	00f7f793          	andi	a5,a5,15
    4ad4:	03778593          	addi	a1,a5,55
    4ad8:	00f36463          	bltu	t1,a5,4ae0 <print_hex32+0x70>
    4adc:	03078593          	addi	a1,a5,48
    4ae0:	00072783          	lw	a5,0(a4)
    4ae4:	fed7eee3          	bltu	a5,a3,4ae0 <print_hex32+0x70>
    4ae8:	00b82023          	sw	a1,0(a6)
    4aec:	ffc60613          	addi	a2,a2,-4 # fffc <__global_pointer+0xa8cc>
    4af0:	fd161ee3          	bne	a2,a7,4acc <print_hex32+0x5c>
    4af4:	00008067          	ret

00004af8 <handle_exception>:
    4af8:	00200793          	li	a5,2
    4afc:	18f80863          	beq	a6,a5,4c8c <handle_exception+0x194>
    4b00:	00b00793          	li	a5,11
    4b04:	12f80063          	beq	a6,a5,4c24 <handle_exception+0x12c>
    4b08:	04000737          	lui	a4,0x4000
    4b0c:	14081463          	bnez	a6,4c54 <handle_exception+0x15c>
    4b10:	04000837          	lui	a6,0x4000
    4b14:	00006637          	lui	a2,0x6
    4b18:	55460613          	addi	a2,a2,1364 # 6554 <__global_pointer+0xe24>
    4b1c:	00a00593          	li	a1,10
    4b20:	04470713          	addi	a4,a4,68 # 4000044 <_stack_end+0x3ef9a68>
    4b24:	000106b7          	lui	a3,0x10
    4b28:	04080813          	addi	a6,a6,64 # 4000040 <_stack_end+0x3ef9a64>
    4b2c:	00072783          	lw	a5,0(a4)
    4b30:	fed7eee3          	bltu	a5,a3,4b2c <handle_exception+0x34>
    4b34:	00b82023          	sw	a1,0(a6)
    4b38:	00164583          	lbu	a1,1(a2)
    4b3c:	00160613          	addi	a2,a2,1
    4b40:	fe0596e3          	bnez	a1,4b2c <handle_exception+0x34>
    4b44:	04000737          	lui	a4,0x4000
    4b48:	04000837          	lui	a6,0x4000
    4b4c:	00006637          	lui	a2,0x6
    4b50:	5c860613          	addi	a2,a2,1480 # 65c8 <__global_pointer+0xe98>
    4b54:	04500593          	li	a1,69
    4b58:	04470713          	addi	a4,a4,68 # 4000044 <_stack_end+0x3ef9a68>
    4b5c:	000106b7          	lui	a3,0x10
    4b60:	04080813          	addi	a6,a6,64 # 4000040 <_stack_end+0x3ef9a64>
    4b64:	00072783          	lw	a5,0(a4)
    4b68:	fed7eee3          	bltu	a5,a3,4b64 <handle_exception+0x6c>
    4b6c:	00b82023          	sw	a1,0(a6)
    4b70:	00164583          	lbu	a1,1(a2)
    4b74:	00160613          	addi	a2,a2,1
    4b78:	fe0596e3          	bnez	a1,4b64 <handle_exception+0x6c>
    4b7c:	04000737          	lui	a4,0x4000
    4b80:	04470713          	addi	a4,a4,68 # 4000044 <_stack_end+0x3ef9a68>
    4b84:	000106b7          	lui	a3,0x10
    4b88:	00072783          	lw	a5,0(a4)
    4b8c:	fed7eee3          	bltu	a5,a3,4b88 <handle_exception+0x90>
    4b90:	03000693          	li	a3,48
    4b94:	040007b7          	lui	a5,0x4000
    4b98:	04000737          	lui	a4,0x4000
    4b9c:	04d7a023          	sw	a3,64(a5) # 4000040 <_stack_end+0x3ef9a64>
    4ba0:	04470713          	addi	a4,a4,68 # 4000044 <_stack_end+0x3ef9a68>
    4ba4:	000106b7          	lui	a3,0x10
    4ba8:	00072783          	lw	a5,0(a4)
    4bac:	fed7eee3          	bltu	a5,a3,4ba8 <handle_exception+0xb0>
    4bb0:	04000837          	lui	a6,0x4000
    4bb4:	04080813          	addi	a6,a6,64 # 4000040 <_stack_end+0x3ef9a64>
    4bb8:	04000737          	lui	a4,0x4000
    4bbc:	07800793          	li	a5,120
    4bc0:	00f82023          	sw	a5,0(a6)
    4bc4:	01c00613          	li	a2,28
    4bc8:	00900313          	li	t1,9
    4bcc:	04470713          	addi	a4,a4,68 # 4000044 <_stack_end+0x3ef9a68>
    4bd0:	000106b7          	lui	a3,0x10
    4bd4:	ffc00893          	li	a7,-4
    4bd8:	00c557b3          	srl	a5,a0,a2
    4bdc:	00f7f793          	andi	a5,a5,15
    4be0:	03778593          	addi	a1,a5,55
    4be4:	00f36463          	bltu	t1,a5,4bec <handle_exception+0xf4>
    4be8:	03078593          	addi	a1,a5,48
    4bec:	00072783          	lw	a5,0(a4)
    4bf0:	fed7eee3          	bltu	a5,a3,4bec <handle_exception+0xf4>
    4bf4:	00b82023          	sw	a1,0(a6)
    4bf8:	ffc60613          	addi	a2,a2,-4
    4bfc:	fd161ee3          	bne	a2,a7,4bd8 <handle_exception+0xe0>
    4c00:	04000737          	lui	a4,0x4000
    4c04:	04470713          	addi	a4,a4,68 # 4000044 <_stack_end+0x3ef9a68>
    4c08:	000106b7          	lui	a3,0x10
    4c0c:	00072783          	lw	a5,0(a4)
    4c10:	fed7eee3          	bltu	a5,a3,4c0c <handle_exception+0x114>
    4c14:	040007b7          	lui	a5,0x4000
    4c18:	00a00713          	li	a4,10
    4c1c:	04e7a023          	sw	a4,64(a5) # 4000040 <_stack_end+0x3ef9a64>
    4c20:	0000006f          	j	4c20 <handle_exception+0x128>
    4c24:	00400793          	li	a5,4
    4c28:	0af88063          	beq	a7,a5,4cc8 <handle_exception+0x1d0>
    4c2c:	0d089a63          	bne	a7,a6,4d00 <handle_exception+0x208>
    4c30:	04000737          	lui	a4,0x4000
    4c34:	04470713          	addi	a4,a4,68 # 4000044 <_stack_end+0x3ef9a68>
    4c38:	000106b7          	lui	a3,0x10
    4c3c:	00072783          	lw	a5,0(a4)
    4c40:	fed7eee3          	bltu	a5,a3,4c3c <handle_exception+0x144>
    4c44:	040007b7          	lui	a5,0x4000
    4c48:	0ff57513          	zext.b	a0,a0
    4c4c:	04a7a023          	sw	a0,64(a5) # 4000040 <_stack_end+0x3ef9a64>
    4c50:	00008067          	ret
    4c54:	04000837          	lui	a6,0x4000
    4c58:	00006637          	lui	a2,0x6
    4c5c:	5a860613          	addi	a2,a2,1448 # 65a8 <__global_pointer+0xe78>
    4c60:	00a00593          	li	a1,10
    4c64:	04470713          	addi	a4,a4,68
    4c68:	000106b7          	lui	a3,0x10
    4c6c:	04080813          	addi	a6,a6,64 # 4000040 <_stack_end+0x3ef9a64>
    4c70:	00072783          	lw	a5,0(a4)
    4c74:	fed7eee3          	bltu	a5,a3,4c70 <handle_exception+0x178>
    4c78:	00b82023          	sw	a1,0(a6)
    4c7c:	00164583          	lbu	a1,1(a2)
    4c80:	00160613          	addi	a2,a2,1
    4c84:	fe0596e3          	bnez	a1,4c70 <handle_exception+0x178>
    4c88:	ebdff06f          	j	4b44 <handle_exception+0x4c>
    4c8c:	04000737          	lui	a4,0x4000
    4c90:	04000837          	lui	a6,0x4000
    4c94:	00006637          	lui	a2,0x6
    4c98:	58460613          	addi	a2,a2,1412 # 6584 <__global_pointer+0xe54>
    4c9c:	00a00593          	li	a1,10
    4ca0:	04470713          	addi	a4,a4,68 # 4000044 <_stack_end+0x3ef9a68>
    4ca4:	000106b7          	lui	a3,0x10
    4ca8:	04080813          	addi	a6,a6,64 # 4000040 <_stack_end+0x3ef9a64>
    4cac:	00072783          	lw	a5,0(a4)
    4cb0:	fed7eee3          	bltu	a5,a3,4cac <handle_exception+0x1b4>
    4cb4:	00b82023          	sw	a1,0(a6)
    4cb8:	00164583          	lbu	a1,1(a2)
    4cbc:	00160613          	addi	a2,a2,1
    4cc0:	fe0596e3          	bnez	a1,4cac <handle_exception+0x1b4>
    4cc4:	e81ff06f          	j	4b44 <handle_exception+0x4c>
    4cc8:	00054603          	lbu	a2,0(a0)
    4ccc:	02060a63          	beqz	a2,4d00 <handle_exception+0x208>
    4cd0:	04000737          	lui	a4,0x4000
    4cd4:	040005b7          	lui	a1,0x4000
    4cd8:	04470713          	addi	a4,a4,68 # 4000044 <_stack_end+0x3ef9a68>
    4cdc:	000106b7          	lui	a3,0x10
    4ce0:	04058593          	addi	a1,a1,64 # 4000040 <_stack_end+0x3ef9a64>
    4ce4:	00072783          	lw	a5,0(a4)
    4ce8:	fed7eee3          	bltu	a5,a3,4ce4 <handle_exception+0x1ec>
    4cec:	00c5a023          	sw	a2,0(a1)
    4cf0:	00154603          	lbu	a2,1(a0)
    4cf4:	00150513          	addi	a0,a0,1
    4cf8:	fe0616e3          	bnez	a2,4ce4 <handle_exception+0x1ec>
    4cfc:	00008067          	ret
    4d00:	00008067          	ret

00004d04 <nextprime>:
    4d04:	00200713          	li	a4,2
    4d08:	00050793          	mv	a5,a0
    4d0c:	02a74063          	blt	a4,a0,4d2c <nextprime+0x28>
    4d10:	00100513          	li	a0,1
    4d14:	00f05a63          	blez	a5,4d28 <nextprime+0x24>
    4d18:	fff78793          	addi	a5,a5,-1
    4d1c:	00f037b3          	snez	a5,a5
    4d20:	00278513          	addi	a0,a5,2
    4d24:	00008067          	ret
    4d28:	00008067          	ret
    4d2c:	00150793          	addi	a5,a0,1
    4d30:	0017e513          	ori	a0,a5,1
    4d34:	00300613          	li	a2,3
    4d38:	02c567b3          	rem	a5,a0,a2
    4d3c:	40155693          	srai	a3,a0,0x1
    4d40:	02078263          	beqz	a5,4d64 <nextprime+0x60>
    4d44:	00268693          	addi	a3,a3,2 # 10002 <__global_pointer+0xa8d2>
    4d48:	00300793          	li	a5,3
    4d4c:	00c0006f          	j	4d58 <nextprime+0x54>
    4d50:	02f56733          	rem	a4,a0,a5
    4d54:	00070863          	beqz	a4,4d64 <nextprime+0x60>
    4d58:	00178793          	addi	a5,a5,1
    4d5c:	fef69ae3          	bne	a3,a5,4d50 <nextprime+0x4c>
    4d60:	00008067          	ret
    4d64:	00250513          	addi	a0,a0,2
    4d68:	fd1ff06f          	j	4d38 <nextprime+0x34>

00004d6c <strlen>:
    4d6c:	00357793          	andi	a5,a0,3
    4d70:	872a                	mv	a4,a0
    4d72:	ef9d                	bnez	a5,4db0 <strlen+0x44>
    4d74:	7f7f86b7          	lui	a3,0x7f7f8
    4d78:	f7f68693          	addi	a3,a3,-129 # 7f7f7f7f <_stack_end+0x7f6f19a3>
    4d7c:	55fd                	li	a1,-1
    4d7e:	4310                	lw	a2,0(a4)
    4d80:	0711                	addi	a4,a4,4
    4d82:	00d677b3          	and	a5,a2,a3
    4d86:	97b6                	add	a5,a5,a3
    4d88:	8fd1                	or	a5,a5,a2
    4d8a:	8fd5                	or	a5,a5,a3
    4d8c:	feb789e3          	beq	a5,a1,4d7e <strlen+0x12>
    4d90:	ffc74683          	lbu	a3,-4(a4)
    4d94:	40a707b3          	sub	a5,a4,a0
    4d98:	ca8d                	beqz	a3,4dca <strlen+0x5e>
    4d9a:	ffd74683          	lbu	a3,-3(a4)
    4d9e:	c29d                	beqz	a3,4dc4 <strlen+0x58>
    4da0:	ffe74503          	lbu	a0,-2(a4)
    4da4:	00a03533          	snez	a0,a0
    4da8:	953e                	add	a0,a0,a5
    4daa:	1579                	addi	a0,a0,-2
    4dac:	8082                	ret
    4dae:	d2f9                	beqz	a3,4d74 <strlen+0x8>
    4db0:	00074783          	lbu	a5,0(a4)
    4db4:	0705                	addi	a4,a4,1
    4db6:	00377693          	andi	a3,a4,3
    4dba:	fbf5                	bnez	a5,4dae <strlen+0x42>
    4dbc:	8f09                	sub	a4,a4,a0
    4dbe:	fff70513          	addi	a0,a4,-1
    4dc2:	8082                	ret
    4dc4:	ffd78513          	addi	a0,a5,-3
    4dc8:	8082                	ret
    4dca:	ffc78513          	addi	a0,a5,-4
    4dce:	8082                	ret
